records {
  basic_abi {
    type_abi {
      name: "android::hidl::memory::V1_0::IMemory"
      size: 24
      alignment: 8
    }
    name: "android::hidl::memory::V1_0::IMemory"
    access: public_access
    linker_set_key: "_ZN7android4hidl6memory4V1_07IMemoryE"
  }
  base_specifiers {
    basic_abi {
      type_abi {
        name: "android::hidl::base::V1_0::IBase"
        size: 24
        alignment: 8
      }
      name: ""
      access: public_access
    }
    is_virtual: false
  }
  source_file: "/home/suhwa.kim/CONA_Proj/android/out/soong/.intermediates/system/libhidl/transport/memory/1.0/android.hidl.memory@1.0_genc++_headers/gen/android/hidl/memory/1.0/IMemory.h"
  mangled_record_name: "_ZN7android4hidl6memory4V1_07IMemoryE"
  vtable_layout {
    vtable_components {
      kind: VBaseOffset
      mangled_component_name: ""
      value: 8
    }
    vtable_components {
      kind: OffsetToTop
      mangled_component_name: ""
      value: 0
    }
    vtable_components {
      kind: RTTI
      mangled_component_name: "_ZN7android4hidl6memory4V1_07IMemoryE"
      value: 0
    }
    vtable_components {
      kind: FunctionPointer
      mangled_component_name: "_ZNK7android4hidl6memory4V1_07IMemory8isRemoteEv"
      value: 0
    }
    vtable_components {
      kind: FunctionPointer
      mangled_component_name: "_ZN7android4hidl6memory4V1_07IMemory14interfaceChainENSt3__18functionIFvRKNS_8hardware8hidl_vecINS6_11hidl_stringEEEEEE"
      value: 0
    }
    vtable_components {
      kind: FunctionPointer
      mangled_component_name: "_ZN7android4hidl6memory4V1_07IMemory5debugERKNS_8hardware11hidl_handleERKNS4_8hidl_vecINS4_11hidl_stringEEE"
      value: 0
    }
    vtable_components {
      kind: FunctionPointer
      mangled_component_name: "_ZN7android4hidl6memory4V1_07IMemory19interfaceDescriptorENSt3__18functionIFvRKNS_8hardware11hidl_stringEEEE"
      value: 0
    }
    vtable_components {
      kind: FunctionPointer
      mangled_component_name: "_ZN7android4hidl6memory4V1_07IMemory12getHashChainENSt3__18functionIFvRKNS_8hardware8hidl_vecINS6_10hidl_arrayIhLm32EJEEEEEEEE"
      value: 0
    }
    vtable_components {
      kind: FunctionPointer
      mangled_component_name: "_ZN7android4hidl6memory4V1_07IMemory21setHALInstrumentationEv"
      value: 0
    }
    vtable_components {
      kind: FunctionPointer
      mangled_component_name: "_ZN7android4hidl6memory4V1_07IMemory11linkToDeathERKNS_2spINS_8hardware20hidl_death_recipientEEEm"
      value: 0
    }
    vtable_components {
      kind: FunctionPointer
      mangled_component_name: "_ZN7android4hidl6memory4V1_07IMemory4pingEv"
      value: 0
    }
    vtable_components {
      kind: FunctionPointer
      mangled_component_name: "_ZN7android4hidl6memory4V1_07IMemory12getDebugInfoENSt3__18functionIFvRKNS0_4base4V1_09DebugInfoEEEE"
      value: 0
    }
    vtable_components {
      kind: FunctionPointer
      mangled_component_name: "_ZN7android4hidl6memory4V1_07IMemory21notifySyspropsChangedEv"
      value: 0
    }
    vtable_components {
      kind: FunctionPointer
      mangled_component_name: "_ZN7android4hidl6memory4V1_07IMemory13unlinkToDeathERKNS_2spINS_8hardware20hidl_death_recipientEEE"
      value: 0
    }
    vtable_components {
      kind: CompleteDtorPointer
      mangled_component_name: "_ZN7android4hidl6memory4V1_07IMemoryD0Ev"
      value: 0
    }
    vtable_components {
      kind: UnusedFunctionPointer
      mangled_component_name: "_ZN7android4hidl6memory4V1_07IMemoryD0Ev"
      value: 0
    }
    vtable_components {
      kind: FunctionPointer
      mangled_component_name: "_ZN7android4hidl6memory4V1_07IMemory6updateEv"
      value: 0
    }
    vtable_components {
      kind: FunctionPointer
      mangled_component_name: "_ZN7android4hidl6memory4V1_07IMemory11updateRangeEmm"
      value: 0
    }
    vtable_components {
      kind: FunctionPointer
      mangled_component_name: "_ZN7android4hidl6memory4V1_07IMemory4readEv"
      value: 0
    }
    vtable_components {
      kind: FunctionPointer
      mangled_component_name: "_ZN7android4hidl6memory4V1_07IMemory9readRangeEmm"
      value: 0
    }
    vtable_components {
      kind: FunctionPointer
      mangled_component_name: "_ZN7android4hidl6memory4V1_07IMemory6commitEv"
      value: 0
    }
    vtable_components {
      kind: FunctionPointer
      mangled_component_name: "_ZN7android4hidl6memory4V1_07IMemory10getPointerEv"
      value: 0
    }
    vtable_components {
      kind: FunctionPointer
      mangled_component_name: "_ZN7android4hidl6memory4V1_07IMemory7getSizeEv"
      value: 0
    }
    vtable_components {
      kind: VCallOffset
      mangled_component_name: ""
      value: 0
    }
    vtable_components {
      kind: VCallOffset
      mangled_component_name: ""
      value: 0
    }
    vtable_components {
      kind: VCallOffset
      mangled_component_name: ""
      value: 0
    }
    vtable_components {
      kind: VCallOffset
      mangled_component_name: ""
      value: 0
    }
    vtable_components {
      kind: VCallOffset
      mangled_component_name: ""
      value: 18446744073709551608
    }
    vtable_components {
      kind: OffsetToTop
      mangled_component_name: ""
      value: 18446744073709551608
    }
    vtable_components {
      kind: RTTI
      mangled_component_name: "_ZN7android4hidl6memory4V1_07IMemoryE"
      value: 0
    }
    vtable_components {
      kind: CompleteDtorPointer
      mangled_component_name: "_ZN7android4hidl6memory4V1_07IMemoryD0Ev"
      value: 0
    }
    vtable_components {
      kind: UnusedFunctionPointer
      mangled_component_name: "_ZN7android4hidl6memory4V1_07IMemoryD0Ev"
      value: 0
    }
    vtable_components {
      kind: FunctionPointer
      mangled_component_name: "_ZN7android7RefBase10onFirstRefEv"
      value: 0
    }
    vtable_components {
      kind: FunctionPointer
      mangled_component_name: "_ZN7android7RefBase15onLastStrongRefEPKv"
      value: 0
    }
    vtable_components {
      kind: FunctionPointer
      mangled_component_name: "_ZN7android7RefBase20onIncStrongAttemptedEjPKv"
      value: 0
    }
    vtable_components {
      kind: FunctionPointer
      mangled_component_name: "_ZN7android7RefBase13onLastWeakRefEPKv"
      value: 0
    }
  }
}
records {
  basic_abi {
    type_abi {
      name: "android::hidl::memory::V1_0::BpHwMemory"
      size: 216
      alignment: 8
    }
    name: "android::hidl::memory::V1_0::BpHwMemory"
    access: public_access
    linker_set_key: "_ZN7android4hidl6memory4V1_010BpHwMemoryE"
  }
  fields {
    basic_abi {
      type_abi {
        name: "std::mutex"
        size: 40
        alignment: 4
      }
      name: "_hidl_mMutex"
      access: private_access
    }
  }
  fields {
    basic_abi {
      type_abi {
        name: "std::vector<android::sp<android::hardware::hidl_binder_death_recipient>, std::allocator<android::sp<android::hardware::hidl_binder_death_recipient> > >"
        size: 24
        alignment: 8
      }
      name: "_hidl_mDeathRecipients"
      access: private_access
    }
  }
  base_specifiers {
    basic_abi {
      type_abi {
        name: "android::hardware::BpInterface<android::hidl::memory::V1_0::IMemory>"
        size: 64
        alignment: 8
      }
      name: ""
      access: public_access
    }
    is_virtual: false
  }
  base_specifiers {
    basic_abi {
      type_abi {
        name: "android::hardware::details::HidlInstrumentor"
        size: 88
        alignment: 8
      }
      name: ""
      access: public_access
    }
    is_virtual: false
  }
  source_file: "/home/suhwa.kim/CONA_Proj/android/out/soong/.intermediates/system/libhidl/transport/memory/1.0/android.hidl.memory@1.0_genc++_headers/gen/android/hidl/memory/1.0/BpHwMemory.h"
  mangled_record_name: "_ZN7android4hidl6memory4V1_010BpHwMemoryE"
  vtable_layout {
    vtable_components {
      kind: VBaseOffset
      mangled_component_name: ""
      value: 200
    }
    vtable_components {
      kind: OffsetToTop
      mangled_component_name: ""
      value: 0
    }
    vtable_components {
      kind: RTTI
      mangled_component_name: "_ZN7android4hidl6memory4V1_010BpHwMemoryE"
      value: 0
    }
    vtable_components {
      kind: FunctionPointer
      mangled_component_name: "_ZNK7android4hidl6memory4V1_010BpHwMemory8isRemoteEv"
      value: 0
    }
    vtable_components {
      kind: FunctionPointer
      mangled_component_name: "_ZN7android4hidl6memory4V1_010BpHwMemory14interfaceChainENSt3__18functionIFvRKNS_8hardware8hidl_vecINS6_11hidl_stringEEEEEE"
      value: 0
    }
    vtable_components {
      kind: FunctionPointer
      mangled_component_name: "_ZN7android4hidl6memory4V1_010BpHwMemory5debugERKNS_8hardware11hidl_handleERKNS4_8hidl_vecINS4_11hidl_stringEEE"
      value: 0
    }
    vtable_components {
      kind: FunctionPointer
      mangled_component_name: "_ZN7android4hidl6memory4V1_010BpHwMemory19interfaceDescriptorENSt3__18functionIFvRKNS_8hardware11hidl_stringEEEE"
      value: 0
    }
    vtable_components {
      kind: FunctionPointer
      mangled_component_name: "_ZN7android4hidl6memory4V1_010BpHwMemory12getHashChainENSt3__18functionIFvRKNS_8hardware8hidl_vecINS6_10hidl_arrayIhLm32EJEEEEEEEE"
      value: 0
    }
    vtable_components {
      kind: FunctionPointer
      mangled_component_name: "_ZN7android4hidl6memory4V1_010BpHwMemory21setHALInstrumentationEv"
      value: 0
    }
    vtable_components {
      kind: FunctionPointer
      mangled_component_name: "_ZN7android4hidl6memory4V1_010BpHwMemory11linkToDeathERKNS_2spINS_8hardware20hidl_death_recipientEEEm"
      value: 0
    }
    vtable_components {
      kind: FunctionPointer
      mangled_component_name: "_ZN7android4hidl6memory4V1_010BpHwMemory4pingEv"
      value: 0
    }
    vtable_components {
      kind: FunctionPointer
      mangled_component_name: "_ZN7android4hidl6memory4V1_010BpHwMemory12getDebugInfoENSt3__18functionIFvRKNS0_4base4V1_09DebugInfoEEEE"
      value: 0
    }
    vtable_components {
      kind: FunctionPointer
      mangled_component_name: "_ZN7android4hidl6memory4V1_010BpHwMemory21notifySyspropsChangedEv"
      value: 0
    }
    vtable_components {
      kind: FunctionPointer
      mangled_component_name: "_ZN7android4hidl6memory4V1_010BpHwMemory13unlinkToDeathERKNS_2spINS_8hardware20hidl_death_recipientEEE"
      value: 0
    }
    vtable_components {
      kind: CompleteDtorPointer
      mangled_component_name: "_ZN7android4hidl6memory4V1_010BpHwMemoryD0Ev"
      value: 0
    }
    vtable_components {
      kind: UnusedFunctionPointer
      mangled_component_name: "_ZN7android4hidl6memory4V1_010BpHwMemoryD0Ev"
      value: 0
    }
    vtable_components {
      kind: FunctionPointer
      mangled_component_name: "_ZN7android4hidl6memory4V1_010BpHwMemory6updateEv"
      value: 0
    }
    vtable_components {
      kind: FunctionPointer
      mangled_component_name: "_ZN7android4hidl6memory4V1_010BpHwMemory11updateRangeEmm"
      value: 0
    }
    vtable_components {
      kind: FunctionPointer
      mangled_component_name: "_ZN7android4hidl6memory4V1_010BpHwMemory4readEv"
      value: 0
    }
    vtable_components {
      kind: FunctionPointer
      mangled_component_name: "_ZN7android4hidl6memory4V1_010BpHwMemory9readRangeEmm"
      value: 0
    }
    vtable_components {
      kind: FunctionPointer
      mangled_component_name: "_ZN7android4hidl6memory4V1_010BpHwMemory6commitEv"
      value: 0
    }
    vtable_components {
      kind: FunctionPointer
      mangled_component_name: "_ZN7android4hidl6memory4V1_010BpHwMemory10getPointerEv"
      value: 0
    }
    vtable_components {
      kind: FunctionPointer
      mangled_component_name: "_ZN7android4hidl6memory4V1_010BpHwMemory7getSizeEv"
      value: 0
    }
    vtable_components {
      kind: FunctionPointer
      mangled_component_name: "_ZN7android8hardware11BpInterfaceINS_4hidl6memory4V1_07IMemoryEE10onAsBinderEv"
      value: 0
    }
    vtable_components {
      kind: VBaseOffset
      mangled_component_name: ""
      value: 192
    }
    vtable_components {
      kind: OffsetToTop
      mangled_component_name: ""
      value: 18446744073709551608
    }
    vtable_components {
      kind: RTTI
      mangled_component_name: "_ZN7android4hidl6memory4V1_010BpHwMemoryE"
      value: 0
    }
    vtable_components {
      kind: CompleteDtorPointer
      mangled_component_name: "_ZN7android4hidl6memory4V1_010BpHwMemoryD0Ev"
      value: 0
    }
    vtable_components {
      kind: UnusedFunctionPointer
      mangled_component_name: "_ZN7android4hidl6memory4V1_010BpHwMemoryD0Ev"
      value: 0
    }
    vtable_components {
      kind: FunctionPointer
      mangled_component_name: "_ZN7android8hardware11BpInterfaceINS_4hidl6memory4V1_07IMemoryEE10onAsBinderEv"
      value: 0
    }
    vtable_components {
      kind: VBaseOffset
      mangled_component_name: ""
      value: 184
    }
    vtable_components {
      kind: OffsetToTop
      mangled_component_name: ""
      value: 18446744073709551600
    }
    vtable_components {
      kind: RTTI
      mangled_component_name: "_ZN7android4hidl6memory4V1_010BpHwMemoryE"
      value: 0
    }
    vtable_components {
      kind: CompleteDtorPointer
      mangled_component_name: "_ZN7android4hidl6memory4V1_010BpHwMemoryD0Ev"
      value: 0
    }
    vtable_components {
      kind: UnusedFunctionPointer
      mangled_component_name: "_ZN7android4hidl6memory4V1_010BpHwMemoryD0Ev"
      value: 0
    }
    vtable_components {
      kind: FunctionPointer
      mangled_component_name: "_ZN7android8hardware11BpHwRefBase10onFirstRefEv"
      value: 0
    }
    vtable_components {
      kind: FunctionPointer
      mangled_component_name: "_ZN7android8hardware11BpHwRefBase15onLastStrongRefEPKv"
      value: 0
    }
    vtable_components {
      kind: FunctionPointer
      mangled_component_name: "_ZN7android8hardware11BpHwRefBase20onIncStrongAttemptedEjPKv"
      value: 0
    }
    vtable_components {
      kind: OffsetToTop
      mangled_component_name: ""
      value: 18446744073709551568
    }
    vtable_components {
      kind: RTTI
      mangled_component_name: "_ZN7android4hidl6memory4V1_010BpHwMemoryE"
      value: 0
    }
    vtable_components {
      kind: CompleteDtorPointer
      mangled_component_name: "_ZN7android4hidl6memory4V1_010BpHwMemoryD0Ev"
      value: 0
    }
    vtable_components {
      kind: UnusedFunctionPointer
      mangled_component_name: "_ZN7android4hidl6memory4V1_010BpHwMemoryD0Ev"
      value: 0
    }
    vtable_components {
      kind: VCallOffset
      mangled_component_name: ""
      value: 0
    }
    vtable_components {
      kind: VCallOffset
      mangled_component_name: ""
      value: 18446744073709551432
    }
    vtable_components {
      kind: VCallOffset
      mangled_component_name: ""
      value: 18446744073709551432
    }
    vtable_components {
      kind: VCallOffset
      mangled_component_name: ""
      value: 18446744073709551432
    }
    vtable_components {
      kind: VCallOffset
      mangled_component_name: ""
      value: 18446744073709551416
    }
    vtable_components {
      kind: OffsetToTop
      mangled_component_name: ""
      value: 18446744073709551416
    }
    vtable_components {
      kind: RTTI
      mangled_component_name: "_ZN7android4hidl6memory4V1_010BpHwMemoryE"
      value: 0
    }
    vtable_components {
      kind: CompleteDtorPointer
      mangled_component_name: "_ZN7android4hidl6memory4V1_010BpHwMemoryD0Ev"
      value: 0
    }
    vtable_components {
      kind: UnusedFunctionPointer
      mangled_component_name: "_ZN7android4hidl6memory4V1_010BpHwMemoryD0Ev"
      value: 0
    }
    vtable_components {
      kind: FunctionPointer
      mangled_component_name: "_ZN7android8hardware11BpHwRefBase10onFirstRefEv"
      value: 0
    }
    vtable_components {
      kind: FunctionPointer
      mangled_component_name: "_ZN7android8hardware11BpHwRefBase15onLastStrongRefEPKv"
      value: 0
    }
    vtable_components {
      kind: FunctionPointer
      mangled_component_name: "_ZN7android8hardware11BpHwRefBase20onIncStrongAttemptedEjPKv"
      value: 0
    }
    vtable_components {
      kind: FunctionPointer
      mangled_component_name: "_ZN7android7RefBase13onLastWeakRefEPKv"
      value: 0
    }
  }
}
records {
  basic_abi {
    type_abi {
      name: "android::hidl::memory::V1_0::BnHwMemory"
      size: 152
      alignment: 8
    }
    name: "android::hidl::memory::V1_0::BnHwMemory"
    access: public_access
    linker_set_key: "_ZN7android4hidl6memory4V1_010BnHwMemoryE"
  }
  fields {
    basic_abi {
      type_abi {
        name: "android::sp<android::hidl::memory::V1_0::IMemory>"
        size: 8
        alignment: 8
      }
      name: "_hidl_mImpl"
      access: private_access
    }
  }
  base_specifiers {
    basic_abi {
      type_abi {
        name: "android::hidl::base::V1_0::BnHwBase"
        size: 144
        alignment: 8
      }
      name: ""
      access: public_access
    }
    is_virtual: false
  }
  source_file: "/home/suhwa.kim/CONA_Proj/android/out/soong/.intermediates/system/libhidl/transport/memory/1.0/android.hidl.memory@1.0_genc++_headers/gen/android/hidl/memory/1.0/BnHwMemory.h"
  mangled_record_name: "_ZN7android4hidl6memory4V1_010BnHwMemoryE"
  vtable_layout {
    vtable_components {
      kind: VBaseOffset
      mangled_component_name: ""
      value: 136
    }
    vtable_components {
      kind: OffsetToTop
      mangled_component_name: ""
      value: 0
    }
    vtable_components {
      kind: RTTI
      mangled_component_name: "_ZN7android4hidl6memory4V1_010BnHwMemoryE"
      value: 0
    }
    vtable_components {
      kind: FunctionPointer
      mangled_component_name: "_ZN7android8hardware9BHwBinder8transactEjRKNS0_6ParcelEPS2_jNSt3__18functionIFvRS2_EEE"
      value: 0
    }
    vtable_components {
      kind: FunctionPointer
      mangled_component_name: "_ZN7android8hardware9BHwBinder11linkToDeathERKNS_2spINS0_7IBinder14DeathRecipientEEEPvj"
      value: 0
    }
    vtable_components {
      kind: FunctionPointer
      mangled_component_name: "_ZN7android8hardware9BHwBinder13unlinkToDeathERKNS_2wpINS0_7IBinder14DeathRecipientEEEPvjPS5_"
      value: 0
    }
    vtable_components {
      kind: FunctionPointer
      mangled_component_name: "_ZNK7android8hardware7IBinder13checkSubclassEPKv"
      value: 0
    }
    vtable_components {
      kind: FunctionPointer
      mangled_component_name: "_ZN7android8hardware9BHwBinder12attachObjectEPKvPvS4_PFvS3_S4_S4_E"
      value: 0
    }
    vtable_components {
      kind: FunctionPointer
      mangled_component_name: "_ZNK7android8hardware9BHwBinder10findObjectEPKv"
      value: 0
    }
    vtable_components {
      kind: FunctionPointer
      mangled_component_name: "_ZN7android8hardware9BHwBinder12detachObjectEPKv"
      value: 0
    }
    vtable_components {
      kind: FunctionPointer
      mangled_component_name: "_ZN7android8hardware9BHwBinder11localBinderEv"
      value: 0
    }
    vtable_components {
      kind: FunctionPointer
      mangled_component_name: "_ZN7android8hardware7IBinder12remoteBinderEv"
      value: 0
    }
    vtable_components {
      kind: CompleteDtorPointer
      mangled_component_name: "_ZN7android4hidl6memory4V1_010BnHwMemoryD0Ev"
      value: 0
    }
    vtable_components {
      kind: UnusedFunctionPointer
      mangled_component_name: "_ZN7android4hidl6memory4V1_010BnHwMemoryD0Ev"
      value: 0
    }
    vtable_components {
      kind: FunctionPointer
      mangled_component_name: "_ZN7android4hidl6memory4V1_010BnHwMemory10onTransactEjRKNS_8hardware6ParcelEPS5_jNSt3__18functionIFvRS5_EEE"
      value: 0
    }
    vtable_components {
      kind: OffsetToTop
      mangled_component_name: ""
      value: 18446744073709551584
    }
    vtable_components {
      kind: RTTI
      mangled_component_name: "_ZN7android4hidl6memory4V1_010BnHwMemoryE"
      value: 0
    }
    vtable_components {
      kind: CompleteDtorPointer
      mangled_component_name: "_ZN7android4hidl6memory4V1_010BnHwMemoryD0Ev"
      value: 0
    }
    vtable_components {
      kind: UnusedFunctionPointer
      mangled_component_name: "_ZN7android4hidl6memory4V1_010BnHwMemoryD0Ev"
      value: 0
    }
    vtable_components {
      kind: VCallOffset
      mangled_component_name: ""
      value: 0
    }
    vtable_components {
      kind: VCallOffset
      mangled_component_name: ""
      value: 0
    }
    vtable_components {
      kind: VCallOffset
      mangled_component_name: ""
      value: 0
    }
    vtable_components {
      kind: VCallOffset
      mangled_component_name: ""
      value: 0
    }
    vtable_components {
      kind: VCallOffset
      mangled_component_name: ""
      value: 18446744073709551480
    }
    vtable_components {
      kind: OffsetToTop
      mangled_component_name: ""
      value: 18446744073709551480
    }
    vtable_components {
      kind: RTTI
      mangled_component_name: "_ZN7android4hidl6memory4V1_010BnHwMemoryE"
      value: 0
    }
    vtable_components {
      kind: CompleteDtorPointer
      mangled_component_name: "_ZN7android4hidl6memory4V1_010BnHwMemoryD0Ev"
      value: 0
    }
    vtable_components {
      kind: UnusedFunctionPointer
      mangled_component_name: "_ZN7android4hidl6memory4V1_010BnHwMemoryD0Ev"
      value: 0
    }
    vtable_components {
      kind: FunctionPointer
      mangled_component_name: "_ZN7android7RefBase10onFirstRefEv"
      value: 0
    }
    vtable_components {
      kind: FunctionPointer
      mangled_component_name: "_ZN7android7RefBase15onLastStrongRefEPKv"
      value: 0
    }
    vtable_components {
      kind: FunctionPointer
      mangled_component_name: "_ZN7android7RefBase20onIncStrongAttemptedEjPKv"
      value: 0
    }
    vtable_components {
      kind: FunctionPointer
      mangled_component_name: "_ZN7android7RefBase13onLastWeakRefEPKv"
      value: 0
    }
  }
}
records {
  basic_abi {
    type_abi {
      name: "android::hidl::memory::V1_0::BsMemory"
      size: 136
      alignment: 8
    }
    name: "android::hidl::memory::V1_0::BsMemory"
    access: public_access
    linker_set_key: "_ZN7android4hidl6memory4V1_08BsMemoryE"
  }
  fields {
    basic_abi {
      type_abi {
        name: "const android::sp<android::hidl::memory::V1_0::IMemory>"
        size: 8
        alignment: 8
      }
      name: "mImpl"
      access: private_access
    }
  }
  fields {
    basic_abi {
      type_abi {
        name: "android::hardware::details::TaskRunner"
        size: 16
        alignment: 8
      }
      name: "mOnewayQueue"
      access: private_access
    }
  }
  base_specifiers {
    basic_abi {
      type_abi {
        name: "android::hidl::memory::V1_0::IMemory"
        size: 24
        alignment: 8
      }
      name: ""
      access: public_access
    }
    is_virtual: false
  }
  base_specifiers {
    basic_abi {
      type_abi {
        name: "android::hardware::details::HidlInstrumentor"
        size: 88
        alignment: 8
      }
      name: ""
      access: public_access
    }
    is_virtual: false
  }
  source_file: "/home/suhwa.kim/CONA_Proj/android/out/soong/.intermediates/system/libhidl/transport/memory/1.0/android.hidl.memory@1.0_genc++_headers/gen/android/hidl/memory/1.0/BsMemory.h"
  mangled_record_name: "_ZN7android4hidl6memory4V1_08BsMemoryE"
  vtable_layout {
    vtable_components {
      kind: VBaseOffset
      mangled_component_name: ""
      value: 120
    }
    vtable_components {
      kind: OffsetToTop
      mangled_component_name: ""
      value: 0
    }
    vtable_components {
      kind: RTTI
      mangled_component_name: "_ZN7android4hidl6memory4V1_08BsMemoryE"
      value: 0
    }
    vtable_components {
      kind: FunctionPointer
      mangled_component_name: "_ZNK7android4hidl6memory4V1_07IMemory8isRemoteEv"
      value: 0
    }
    vtable_components {
      kind: FunctionPointer
      mangled_component_name: "_ZN7android4hidl6memory4V1_08BsMemory14interfaceChainENSt3__18functionIFvRKNS_8hardware8hidl_vecINS6_11hidl_stringEEEEEE"
      value: 0
    }
    vtable_components {
      kind: FunctionPointer
      mangled_component_name: "_ZN7android4hidl6memory4V1_08BsMemory5debugERKNS_8hardware11hidl_handleERKNS4_8hidl_vecINS4_11hidl_stringEEE"
      value: 0
    }
    vtable_components {
      kind: FunctionPointer
      mangled_component_name: "_ZN7android4hidl6memory4V1_08BsMemory19interfaceDescriptorENSt3__18functionIFvRKNS_8hardware11hidl_stringEEEE"
      value: 0
    }
    vtable_components {
      kind: FunctionPointer
      mangled_component_name: "_ZN7android4hidl6memory4V1_08BsMemory12getHashChainENSt3__18functionIFvRKNS_8hardware8hidl_vecINS6_10hidl_arrayIhLm32EJEEEEEEEE"
      value: 0
    }
    vtable_components {
      kind: FunctionPointer
      mangled_component_name: "_ZN7android4hidl6memory4V1_08BsMemory21setHALInstrumentationEv"
      value: 0
    }
    vtable_components {
      kind: FunctionPointer
      mangled_component_name: "_ZN7android4hidl6memory4V1_08BsMemory11linkToDeathERKNS_2spINS_8hardware20hidl_death_recipientEEEm"
      value: 0
    }
    vtable_components {
      kind: FunctionPointer
      mangled_component_name: "_ZN7android4hidl6memory4V1_08BsMemory4pingEv"
      value: 0
    }
    vtable_components {
      kind: FunctionPointer
      mangled_component_name: "_ZN7android4hidl6memory4V1_08BsMemory12getDebugInfoENSt3__18functionIFvRKNS0_4base4V1_09DebugInfoEEEE"
      value: 0
    }
    vtable_components {
      kind: FunctionPointer
      mangled_component_name: "_ZN7android4hidl6memory4V1_08BsMemory21notifySyspropsChangedEv"
      value: 0
    }
    vtable_components {
      kind: FunctionPointer
      mangled_component_name: "_ZN7android4hidl6memory4V1_08BsMemory13unlinkToDeathERKNS_2spINS_8hardware20hidl_death_recipientEEE"
      value: 0
    }
    vtable_components {
      kind: CompleteDtorPointer
      mangled_component_name: "_ZN7android4hidl6memory4V1_08BsMemoryD0Ev"
      value: 0
    }
    vtable_components {
      kind: UnusedFunctionPointer
      mangled_component_name: "_ZN7android4hidl6memory4V1_08BsMemoryD0Ev"
      value: 0
    }
    vtable_components {
      kind: FunctionPointer
      mangled_component_name: "_ZN7android4hidl6memory4V1_08BsMemory6updateEv"
      value: 0
    }
    vtable_components {
      kind: FunctionPointer
      mangled_component_name: "_ZN7android4hidl6memory4V1_08BsMemory11updateRangeEmm"
      value: 0
    }
    vtable_components {
      kind: FunctionPointer
      mangled_component_name: "_ZN7android4hidl6memory4V1_08BsMemory4readEv"
      value: 0
    }
    vtable_components {
      kind: FunctionPointer
      mangled_component_name: "_ZN7android4hidl6memory4V1_08BsMemory9readRangeEmm"
      value: 0
    }
    vtable_components {
      kind: FunctionPointer
      mangled_component_name: "_ZN7android4hidl6memory4V1_08BsMemory6commitEv"
      value: 0
    }
    vtable_components {
      kind: FunctionPointer
      mangled_component_name: "_ZN7android4hidl6memory4V1_08BsMemory10getPointerEv"
      value: 0
    }
    vtable_components {
      kind: FunctionPointer
      mangled_component_name: "_ZN7android4hidl6memory4V1_08BsMemory7getSizeEv"
      value: 0
    }
    vtable_components {
      kind: OffsetToTop
      mangled_component_name: ""
      value: 18446744073709551608
    }
    vtable_components {
      kind: RTTI
      mangled_component_name: "_ZN7android4hidl6memory4V1_08BsMemoryE"
      value: 0
    }
    vtable_components {
      kind: CompleteDtorPointer
      mangled_component_name: "_ZN7android4hidl6memory4V1_08BsMemoryD0Ev"
      value: 0
    }
    vtable_components {
      kind: UnusedFunctionPointer
      mangled_component_name: "_ZN7android4hidl6memory4V1_08BsMemoryD0Ev"
      value: 0
    }
    vtable_components {
      kind: VCallOffset
      mangled_component_name: ""
      value: 0
    }
    vtable_components {
      kind: VCallOffset
      mangled_component_name: ""
      value: 0
    }
    vtable_components {
      kind: VCallOffset
      mangled_component_name: ""
      value: 0
    }
    vtable_components {
      kind: VCallOffset
      mangled_component_name: ""
      value: 0
    }
    vtable_components {
      kind: VCallOffset
      mangled_component_name: ""
      value: 18446744073709551496
    }
    vtable_components {
      kind: OffsetToTop
      mangled_component_name: ""
      value: 18446744073709551496
    }
    vtable_components {
      kind: RTTI
      mangled_component_name: "_ZN7android4hidl6memory4V1_08BsMemoryE"
      value: 0
    }
    vtable_components {
      kind: CompleteDtorPointer
      mangled_component_name: "_ZN7android4hidl6memory4V1_08BsMemoryD0Ev"
      value: 0
    }
    vtable_components {
      kind: UnusedFunctionPointer
      mangled_component_name: "_ZN7android4hidl6memory4V1_08BsMemoryD0Ev"
      value: 0
    }
    vtable_components {
      kind: FunctionPointer
      mangled_component_name: "_ZN7android7RefBase10onFirstRefEv"
      value: 0
    }
    vtable_components {
      kind: FunctionPointer
      mangled_component_name: "_ZN7android7RefBase15onLastStrongRefEPKv"
      value: 0
    }
    vtable_components {
      kind: FunctionPointer
      mangled_component_name: "_ZN7android7RefBase20onIncStrongAttemptedEjPKv"
      value: 0
    }
    vtable_components {
      kind: FunctionPointer
      mangled_component_name: "_ZN7android7RefBase13onLastWeakRefEPKv"
      value: 0
    }
  }
}
functions {
  basic_abi {
    type_abi {
      name: "bool"
      size: 1
      alignment: 1
    }
    name: "android::hidl::memory::V1_0::IMemory::isRemote"
    access: public_access
    linker_set_key: "_ZNK7android4hidl6memory4V1_07IMemory8isRemoteEv"
  }
  mangled_function_name: "_ZNK7android4hidl6memory4V1_07IMemory8isRemoteEv"
  source_file: "/home/suhwa.kim/CONA_Proj/android/out/soong/.intermediates/system/libhidl/transport/memory/1.0/android.hidl.memory@1.0_genc++_headers/gen/android/hidl/memory/1.0/IMemory.h"
}
functions {
  basic_abi {
    type_abi {
      name: "android::hardware::Return<void>"
      size: 40
      alignment: 8
    }
    name: "android::hidl::memory::V1_0::IMemory::update"
    access: public_access
    linker_set_key: "_ZN7android4hidl6memory4V1_07IMemory6updateEv"
  }
  mangled_function_name: "_ZN7android4hidl6memory4V1_07IMemory6updateEv"
  source_file: "/home/suhwa.kim/CONA_Proj/android/out/soong/.intermediates/system/libhidl/transport/memory/1.0/android.hidl.memory@1.0_genc++_headers/gen/android/hidl/memory/1.0/IMemory.h"
}
functions {
  basic_abi {
    type_abi {
      name: "android::hardware::Return<void>"
      size: 40
      alignment: 8
    }
    name: "android::hidl::memory::V1_0::IMemory::updateRange"
    access: public_access
    linker_set_key: "_ZN7android4hidl6memory4V1_07IMemory11updateRangeEmm"
  }
  mangled_function_name: "_ZN7android4hidl6memory4V1_07IMemory11updateRangeEmm"
  source_file: "/home/suhwa.kim/CONA_Proj/android/out/soong/.intermediates/system/libhidl/transport/memory/1.0/android.hidl.memory@1.0_genc++_headers/gen/android/hidl/memory/1.0/IMemory.h"
  parameters {
    basic_abi {
      type_abi {
        name: "unsigned long"
        size: 8
        alignment: 8
      }
      name: "start"
      access: public_access
      linker_set_key: "false"
    }
    default_arg: false
  }
  parameters {
    basic_abi {
      type_abi {
        name: "unsigned long"
        size: 8
        alignment: 8
      }
      name: "length"
      access: public_access
      linker_set_key: "false"
    }
    default_arg: false
  }
}
functions {
  basic_abi {
    type_abi {
      name: "android::hardware::Return<void>"
      size: 40
      alignment: 8
    }
    name: "android::hidl::memory::V1_0::IMemory::read"
    access: public_access
    linker_set_key: "_ZN7android4hidl6memory4V1_07IMemory4readEv"
  }
  mangled_function_name: "_ZN7android4hidl6memory4V1_07IMemory4readEv"
  source_file: "/home/suhwa.kim/CONA_Proj/android/out/soong/.intermediates/system/libhidl/transport/memory/1.0/android.hidl.memory@1.0_genc++_headers/gen/android/hidl/memory/1.0/IMemory.h"
}
functions {
  basic_abi {
    type_abi {
      name: "android::hardware::Return<void>"
      size: 40
      alignment: 8
    }
    name: "android::hidl::memory::V1_0::IMemory::readRange"
    access: public_access
    linker_set_key: "_ZN7android4hidl6memory4V1_07IMemory9readRangeEmm"
  }
  mangled_function_name: "_ZN7android4hidl6memory4V1_07IMemory9readRangeEmm"
  source_file: "/home/suhwa.kim/CONA_Proj/android/out/soong/.intermediates/system/libhidl/transport/memory/1.0/android.hidl.memory@1.0_genc++_headers/gen/android/hidl/memory/1.0/IMemory.h"
  parameters {
    basic_abi {
      type_abi {
        name: "unsigned long"
        size: 8
        alignment: 8
      }
      name: "start"
      access: public_access
      linker_set_key: "false"
    }
    default_arg: false
  }
  parameters {
    basic_abi {
      type_abi {
        name: "unsigned long"
        size: 8
        alignment: 8
      }
      name: "length"
      access: public_access
      linker_set_key: "false"
    }
    default_arg: false
  }
}
functions {
  basic_abi {
    type_abi {
      name: "android::hardware::Return<void>"
      size: 40
      alignment: 8
    }
    name: "android::hidl::memory::V1_0::IMemory::commit"
    access: public_access
    linker_set_key: "_ZN7android4hidl6memory4V1_07IMemory6commitEv"
  }
  mangled_function_name: "_ZN7android4hidl6memory4V1_07IMemory6commitEv"
  source_file: "/home/suhwa.kim/CONA_Proj/android/out/soong/.intermediates/system/libhidl/transport/memory/1.0/android.hidl.memory@1.0_genc++_headers/gen/android/hidl/memory/1.0/IMemory.h"
}
functions {
  basic_abi {
    type_abi {
      name: "android::hardware::Return<void *>"
      size: 48
      alignment: 8
    }
    name: "android::hidl::memory::V1_0::IMemory::getPointer"
    access: public_access
    linker_set_key: "_ZN7android4hidl6memory4V1_07IMemory10getPointerEv"
  }
  mangled_function_name: "_ZN7android4hidl6memory4V1_07IMemory10getPointerEv"
  source_file: "/home/suhwa.kim/CONA_Proj/android/out/soong/.intermediates/system/libhidl/transport/memory/1.0/android.hidl.memory@1.0_genc++_headers/gen/android/hidl/memory/1.0/IMemory.h"
}
functions {
  basic_abi {
    type_abi {
      name: "android::hardware::Return<unsigned long>"
      size: 48
      alignment: 8
    }
    name: "android::hidl::memory::V1_0::IMemory::getSize"
    access: public_access
    linker_set_key: "_ZN7android4hidl6memory4V1_07IMemory7getSizeEv"
  }
  mangled_function_name: "_ZN7android4hidl6memory4V1_07IMemory7getSizeEv"
  source_file: "/home/suhwa.kim/CONA_Proj/android/out/soong/.intermediates/system/libhidl/transport/memory/1.0/android.hidl.memory@1.0_genc++_headers/gen/android/hidl/memory/1.0/IMemory.h"
}
functions {
  basic_abi {
    type_abi {
      name: "android::hardware::Return<void>"
      size: 40
      alignment: 8
    }
    name: "android::hidl::memory::V1_0::IMemory::interfaceChain"
    access: public_access
    linker_set_key: "_ZN7android4hidl6memory4V1_07IMemory14interfaceChainENSt3__18functionIFvRKNS_8hardware8hidl_vecINS6_11hidl_stringEEEEEE"
  }
  mangled_function_name: "_ZN7android4hidl6memory4V1_07IMemory14interfaceChainENSt3__18functionIFvRKNS_8hardware8hidl_vecINS6_11hidl_stringEEEEEE"
  source_file: "/home/suhwa.kim/CONA_Proj/android/out/soong/.intermediates/system/libhidl/transport/memory/1.0/android.hidl.memory@1.0_genc++_headers/gen/android/hidl/memory/1.0/IMemory.h"
  parameters {
    basic_abi {
      type_abi {
        name: "std::function<void (const hidl_vec<hidl_string> &)>"
        size: 48
        alignment: 16
      }
      name: "_hidl_cb"
      access: public_access
      linker_set_key: "false"
    }
    default_arg: false
  }
}
functions {
  basic_abi {
    type_abi {
      name: "android::hardware::Return<void>"
      size: 40
      alignment: 8
    }
    name: "android::hidl::memory::V1_0::IMemory::debug"
    access: public_access
    linker_set_key: "_ZN7android4hidl6memory4V1_07IMemory5debugERKNS_8hardware11hidl_handleERKNS4_8hidl_vecINS4_11hidl_stringEEE"
  }
  mangled_function_name: "_ZN7android4hidl6memory4V1_07IMemory5debugERKNS_8hardware11hidl_handleERKNS4_8hidl_vecINS4_11hidl_stringEEE"
  source_file: "/home/suhwa.kim/CONA_Proj/android/out/soong/.intermediates/system/libhidl/transport/memory/1.0/android.hidl.memory@1.0_genc++_headers/gen/android/hidl/memory/1.0/IMemory.h"
  parameters {
    basic_abi {
      type_abi {
        name: "const android::hardware::hidl_handle &"
        size: 8
        alignment: 8
      }
      name: "fd"
      access: public_access
      linker_set_key: "false"
    }
    default_arg: false
  }
  parameters {
    basic_abi {
      type_abi {
        name: "const android::hardware::hidl_vec<android::hardware::hidl_string> &"
        size: 8
        alignment: 8
      }
      name: "options"
      access: public_access
      linker_set_key: "false"
    }
    default_arg: false
  }
}
functions {
  basic_abi {
    type_abi {
      name: "android::hardware::Return<void>"
      size: 40
      alignment: 8
    }
    name: "android::hidl::memory::V1_0::IMemory::interfaceDescriptor"
    access: public_access
    linker_set_key: "_ZN7android4hidl6memory4V1_07IMemory19interfaceDescriptorENSt3__18functionIFvRKNS_8hardware11hidl_stringEEEE"
  }
  mangled_function_name: "_ZN7android4hidl6memory4V1_07IMemory19interfaceDescriptorENSt3__18functionIFvRKNS_8hardware11hidl_stringEEEE"
  source_file: "/home/suhwa.kim/CONA_Proj/android/out/soong/.intermediates/system/libhidl/transport/memory/1.0/android.hidl.memory@1.0_genc++_headers/gen/android/hidl/memory/1.0/IMemory.h"
  parameters {
    basic_abi {
      type_abi {
        name: "std::function<void (const hidl_string &)>"
        size: 48
        alignment: 16
      }
      name: "_hidl_cb"
      access: public_access
      linker_set_key: "false"
    }
    default_arg: false
  }
}
functions {
  basic_abi {
    type_abi {
      name: "android::hardware::Return<void>"
      size: 40
      alignment: 8
    }
    name: "android::hidl::memory::V1_0::IMemory::getHashChain"
    access: public_access
    linker_set_key: "_ZN7android4hidl6memory4V1_07IMemory12getHashChainENSt3__18functionIFvRKNS_8hardware8hidl_vecINS6_10hidl_arrayIhLm32EJEEEEEEEE"
  }
  mangled_function_name: "_ZN7android4hidl6memory4V1_07IMemory12getHashChainENSt3__18functionIFvRKNS_8hardware8hidl_vecINS6_10hidl_arrayIhLm32EJEEEEEEEE"
  source_file: "/home/suhwa.kim/CONA_Proj/android/out/soong/.intermediates/system/libhidl/transport/memory/1.0/android.hidl.memory@1.0_genc++_headers/gen/android/hidl/memory/1.0/IMemory.h"
  parameters {
    basic_abi {
      type_abi {
        name: "std::function<void (const hidl_vec<hidl_array<unsigned char, 32> > &)>"
        size: 48
        alignment: 16
      }
      name: "_hidl_cb"
      access: public_access
      linker_set_key: "false"
    }
    default_arg: false
  }
}
functions {
  basic_abi {
    type_abi {
      name: "android::hardware::Return<void>"
      size: 40
      alignment: 8
    }
    name: "android::hidl::memory::V1_0::IMemory::setHALInstrumentation"
    access: public_access
    linker_set_key: "_ZN7android4hidl6memory4V1_07IMemory21setHALInstrumentationEv"
  }
  mangled_function_name: "_ZN7android4hidl6memory4V1_07IMemory21setHALInstrumentationEv"
  source_file: "/home/suhwa.kim/CONA_Proj/android/out/soong/.intermediates/system/libhidl/transport/memory/1.0/android.hidl.memory@1.0_genc++_headers/gen/android/hidl/memory/1.0/IMemory.h"
}
functions {
  basic_abi {
    type_abi {
      name: "android::hardware::Return<bool>"
      size: 40
      alignment: 8
    }
    name: "android::hidl::memory::V1_0::IMemory::linkToDeath"
    access: public_access
    linker_set_key: "_ZN7android4hidl6memory4V1_07IMemory11linkToDeathERKNS_2spINS_8hardware20hidl_death_recipientEEEm"
  }
  mangled_function_name: "_ZN7android4hidl6memory4V1_07IMemory11linkToDeathERKNS_2spINS_8hardware20hidl_death_recipientEEEm"
  source_file: "/home/suhwa.kim/CONA_Proj/android/out/soong/.intermediates/system/libhidl/transport/memory/1.0/android.hidl.memory@1.0_genc++_headers/gen/android/hidl/memory/1.0/IMemory.h"
  parameters {
    basic_abi {
      type_abi {
        name: "const android::sp<android::hardware::hidl_death_recipient> &"
        size: 8
        alignment: 8
      }
      name: "recipient"
      access: public_access
      linker_set_key: "false"
    }
    default_arg: false
  }
  parameters {
    basic_abi {
      type_abi {
        name: "unsigned long"
        size: 8
        alignment: 8
      }
      name: "cookie"
      access: public_access
      linker_set_key: "false"
    }
    default_arg: false
  }
}
functions {
  basic_abi {
    type_abi {
      name: "android::hardware::Return<void>"
      size: 40
      alignment: 8
    }
    name: "android::hidl::memory::V1_0::IMemory::ping"
    access: public_access
    linker_set_key: "_ZN7android4hidl6memory4V1_07IMemory4pingEv"
  }
  mangled_function_name: "_ZN7android4hidl6memory4V1_07IMemory4pingEv"
  source_file: "/home/suhwa.kim/CONA_Proj/android/out/soong/.intermediates/system/libhidl/transport/memory/1.0/android.hidl.memory@1.0_genc++_headers/gen/android/hidl/memory/1.0/IMemory.h"
}
functions {
  basic_abi {
    type_abi {
      name: "android::hardware::Return<void>"
      size: 40
      alignment: 8
    }
    name: "android::hidl::memory::V1_0::IMemory::getDebugInfo"
    access: public_access
    linker_set_key: "_ZN7android4hidl6memory4V1_07IMemory12getDebugInfoENSt3__18functionIFvRKNS0_4base4V1_09DebugInfoEEEE"
  }
  mangled_function_name: "_ZN7android4hidl6memory4V1_07IMemory12getDebugInfoENSt3__18functionIFvRKNS0_4base4V1_09DebugInfoEEEE"
  source_file: "/home/suhwa.kim/CONA_Proj/android/out/soong/.intermediates/system/libhidl/transport/memory/1.0/android.hidl.memory@1.0_genc++_headers/gen/android/hidl/memory/1.0/IMemory.h"
  parameters {
    basic_abi {
      type_abi {
        name: "std::function<void (const DebugInfo &)>"
        size: 48
        alignment: 16
      }
      name: "_hidl_cb"
      access: public_access
      linker_set_key: "false"
    }
    default_arg: false
  }
}
functions {
  basic_abi {
    type_abi {
      name: "android::hardware::Return<void>"
      size: 40
      alignment: 8
    }
    name: "android::hidl::memory::V1_0::IMemory::notifySyspropsChanged"
    access: public_access
    linker_set_key: "_ZN7android4hidl6memory4V1_07IMemory21notifySyspropsChangedEv"
  }
  mangled_function_name: "_ZN7android4hidl6memory4V1_07IMemory21notifySyspropsChangedEv"
  source_file: "/home/suhwa.kim/CONA_Proj/android/out/soong/.intermediates/system/libhidl/transport/memory/1.0/android.hidl.memory@1.0_genc++_headers/gen/android/hidl/memory/1.0/IMemory.h"
}
functions {
  basic_abi {
    type_abi {
      name: "android::hardware::Return<bool>"
      size: 40
      alignment: 8
    }
    name: "android::hidl::memory::V1_0::IMemory::unlinkToDeath"
    access: public_access
    linker_set_key: "_ZN7android4hidl6memory4V1_07IMemory13unlinkToDeathERKNS_2spINS_8hardware20hidl_death_recipientEEE"
  }
  mangled_function_name: "_ZN7android4hidl6memory4V1_07IMemory13unlinkToDeathERKNS_2spINS_8hardware20hidl_death_recipientEEE"
  source_file: "/home/suhwa.kim/CONA_Proj/android/out/soong/.intermediates/system/libhidl/transport/memory/1.0/android.hidl.memory@1.0_genc++_headers/gen/android/hidl/memory/1.0/IMemory.h"
  parameters {
    basic_abi {
      type_abi {
        name: "const android::sp<android::hardware::hidl_death_recipient> &"
        size: 8
        alignment: 8
      }
      name: "recipient"
      access: public_access
      linker_set_key: "false"
    }
    default_arg: false
  }
}
functions {
  basic_abi {
    type_abi {
      name: "android::hardware::Return<android::sp<android::hidl::memory::V1_0::IMemory> >"
      size: 48
      alignment: 8
    }
    name: "android::hidl::memory::V1_0::IMemory::castFrom"
    access: public_access
    linker_set_key: "_ZN7android4hidl6memory4V1_07IMemory8castFromERKNS_2spIS3_EEb"
  }
  mangled_function_name: "_ZN7android4hidl6memory4V1_07IMemory8castFromERKNS_2spIS3_EEb"
  source_file: "/home/suhwa.kim/CONA_Proj/android/out/soong/.intermediates/system/libhidl/transport/memory/1.0/android.hidl.memory@1.0_genc++_headers/gen/android/hidl/memory/1.0/IMemory.h"
  parameters {
    basic_abi {
      type_abi {
        name: "const android::sp<android::hidl::memory::V1_0::IMemory> &"
        size: 8
        alignment: 8
      }
      name: "parent"
      access: public_access
      linker_set_key: "false"
    }
    default_arg: false
  }
  parameters {
    basic_abi {
      type_abi {
        name: "bool"
        size: 1
        alignment: 1
      }
      name: "emitError"
      access: public_access
      linker_set_key: "true"
    }
    default_arg: true
  }
}
functions {
  basic_abi {
    type_abi {
      name: "android::hardware::Return<android::sp<android::hidl::memory::V1_0::IMemory> >"
      size: 48
      alignment: 8
    }
    name: "android::hidl::memory::V1_0::IMemory::castFrom"
    access: public_access
    linker_set_key: "_ZN7android4hidl6memory4V1_07IMemory8castFromERKNS_2spINS0_4base4V1_05IBaseEEEb"
  }
  mangled_function_name: "_ZN7android4hidl6memory4V1_07IMemory8castFromERKNS_2spINS0_4base4V1_05IBaseEEEb"
  source_file: "/home/suhwa.kim/CONA_Proj/android/out/soong/.intermediates/system/libhidl/transport/memory/1.0/android.hidl.memory@1.0_genc++_headers/gen/android/hidl/memory/1.0/IMemory.h"
  parameters {
    basic_abi {
      type_abi {
        name: "const android::sp<android::hidl::base::V1_0::IBase> &"
        size: 8
        alignment: 8
      }
      name: "parent"
      access: public_access
      linker_set_key: "false"
    }
    default_arg: false
  }
  parameters {
    basic_abi {
      type_abi {
        name: "bool"
        size: 1
        alignment: 1
      }
      name: "emitError"
      access: public_access
      linker_set_key: "true"
    }
    default_arg: true
  }
}
functions {
  basic_abi {
    type_abi {
      name: "android::sp<android::hidl::memory::V1_0::IMemory>"
      size: 8
      alignment: 8
    }
    name: "android::hidl::memory::V1_0::IMemory::tryGetService"
    access: public_access
    linker_set_key: "_ZN7android4hidl6memory4V1_07IMemory13tryGetServiceERKNSt3__112basic_stringIcNS4_11char_traitsIcEENS4_9allocatorIcEEEEb"
  }
  mangled_function_name: "_ZN7android4hidl6memory4V1_07IMemory13tryGetServiceERKNSt3__112basic_stringIcNS4_11char_traitsIcEENS4_9allocatorIcEEEEb"
  source_file: "/home/suhwa.kim/CONA_Proj/android/out/soong/.intermediates/system/libhidl/transport/memory/1.0/android.hidl.memory@1.0_genc++_headers/gen/android/hidl/memory/1.0/IMemory.h"
  parameters {
    basic_abi {
      type_abi {
        name: "const std::basic_string<char, std::char_traits<char>, std::allocator<char> > &"
        size: 8
        alignment: 8
      }
      name: "serviceName"
      access: public_access
      linker_set_key: "true"
    }
    default_arg: true
  }
  parameters {
    basic_abi {
      type_abi {
        name: "bool"
        size: 1
        alignment: 1
      }
      name: "getStub"
      access: public_access
      linker_set_key: "true"
    }
    default_arg: true
  }
}
functions {
  basic_abi {
    type_abi {
      name: "android::sp<android::hidl::memory::V1_0::IMemory>"
      size: 8
      alignment: 8
    }
    name: "android::hidl::memory::V1_0::IMemory::tryGetService"
    access: public_access
    linker_set_key: "_ZN7android4hidl6memory4V1_07IMemory13tryGetServiceEPKcb"
  }
  mangled_function_name: "_ZN7android4hidl6memory4V1_07IMemory13tryGetServiceEPKcb"
  source_file: "/home/suhwa.kim/CONA_Proj/android/out/soong/.intermediates/system/libhidl/transport/memory/1.0/android.hidl.memory@1.0_genc++_headers/gen/android/hidl/memory/1.0/IMemory.h"
  parameters {
    basic_abi {
      type_abi {
        name: "const char *"
        size: 8
        alignment: 8
      }
      name: "serviceName"
      access: public_access
      linker_set_key: "false"
    }
    default_arg: false
  }
  parameters {
    basic_abi {
      type_abi {
        name: "bool"
        size: 1
        alignment: 1
      }
      name: "getStub"
      access: public_access
      linker_set_key: "true"
    }
    default_arg: true
  }
}
functions {
  basic_abi {
    type_abi {
      name: "android::sp<android::hidl::memory::V1_0::IMemory>"
      size: 8
      alignment: 8
    }
    name: "android::hidl::memory::V1_0::IMemory::tryGetService"
    access: public_access
    linker_set_key: "_ZN7android4hidl6memory4V1_07IMemory13tryGetServiceERKNS_8hardware11hidl_stringEb"
  }
  mangled_function_name: "_ZN7android4hidl6memory4V1_07IMemory13tryGetServiceERKNS_8hardware11hidl_stringEb"
  source_file: "/home/suhwa.kim/CONA_Proj/android/out/soong/.intermediates/system/libhidl/transport/memory/1.0/android.hidl.memory@1.0_genc++_headers/gen/android/hidl/memory/1.0/IMemory.h"
  parameters {
    basic_abi {
      type_abi {
        name: "const android::hardware::hidl_string &"
        size: 8
        alignment: 8
      }
      name: "serviceName"
      access: public_access
      linker_set_key: "false"
    }
    default_arg: false
  }
  parameters {
    basic_abi {
      type_abi {
        name: "bool"
        size: 1
        alignment: 1
      }
      name: "getStub"
      access: public_access
      linker_set_key: "true"
    }
    default_arg: true
  }
}
functions {
  basic_abi {
    type_abi {
      name: "android::sp<android::hidl::memory::V1_0::IMemory>"
      size: 8
      alignment: 8
    }
    name: "android::hidl::memory::V1_0::IMemory::tryGetService"
    access: public_access
    linker_set_key: "_ZN7android4hidl6memory4V1_07IMemory13tryGetServiceEb"
  }
  mangled_function_name: "_ZN7android4hidl6memory4V1_07IMemory13tryGetServiceEb"
  source_file: "/home/suhwa.kim/CONA_Proj/android/out/soong/.intermediates/system/libhidl/transport/memory/1.0/android.hidl.memory@1.0_genc++_headers/gen/android/hidl/memory/1.0/IMemory.h"
  parameters {
    basic_abi {
      type_abi {
        name: "bool"
        size: 1
        alignment: 1
      }
      name: "getStub"
      access: public_access
      linker_set_key: "false"
    }
    default_arg: false
  }
}
functions {
  basic_abi {
    type_abi {
      name: "android::sp<android::hidl::memory::V1_0::IMemory>"
      size: 8
      alignment: 8
    }
    name: "android::hidl::memory::V1_0::IMemory::getService"
    access: public_access
    linker_set_key: "_ZN7android4hidl6memory4V1_07IMemory10getServiceERKNSt3__112basic_stringIcNS4_11char_traitsIcEENS4_9allocatorIcEEEEb"
  }
  mangled_function_name: "_ZN7android4hidl6memory4V1_07IMemory10getServiceERKNSt3__112basic_stringIcNS4_11char_traitsIcEENS4_9allocatorIcEEEEb"
  source_file: "/home/suhwa.kim/CONA_Proj/android/out/soong/.intermediates/system/libhidl/transport/memory/1.0/android.hidl.memory@1.0_genc++_headers/gen/android/hidl/memory/1.0/IMemory.h"
  parameters {
    basic_abi {
      type_abi {
        name: "const std::basic_string<char, std::char_traits<char>, std::allocator<char> > &"
        size: 8
        alignment: 8
      }
      name: "serviceName"
      access: public_access
      linker_set_key: "true"
    }
    default_arg: true
  }
  parameters {
    basic_abi {
      type_abi {
        name: "bool"
        size: 1
        alignment: 1
      }
      name: "getStub"
      access: public_access
      linker_set_key: "true"
    }
    default_arg: true
  }
}
functions {
  basic_abi {
    type_abi {
      name: "android::sp<android::hidl::memory::V1_0::IMemory>"
      size: 8
      alignment: 8
    }
    name: "android::hidl::memory::V1_0::IMemory::getService"
    access: public_access
    linker_set_key: "_ZN7android4hidl6memory4V1_07IMemory10getServiceEPKcb"
  }
  mangled_function_name: "_ZN7android4hidl6memory4V1_07IMemory10getServiceEPKcb"
  source_file: "/home/suhwa.kim/CONA_Proj/android/out/soong/.intermediates/system/libhidl/transport/memory/1.0/android.hidl.memory@1.0_genc++_headers/gen/android/hidl/memory/1.0/IMemory.h"
  parameters {
    basic_abi {
      type_abi {
        name: "const char *"
        size: 8
        alignment: 8
      }
      name: "serviceName"
      access: public_access
      linker_set_key: "false"
    }
    default_arg: false
  }
  parameters {
    basic_abi {
      type_abi {
        name: "bool"
        size: 1
        alignment: 1
      }
      name: "getStub"
      access: public_access
      linker_set_key: "true"
    }
    default_arg: true
  }
}
functions {
  basic_abi {
    type_abi {
      name: "android::sp<android::hidl::memory::V1_0::IMemory>"
      size: 8
      alignment: 8
    }
    name: "android::hidl::memory::V1_0::IMemory::getService"
    access: public_access
    linker_set_key: "_ZN7android4hidl6memory4V1_07IMemory10getServiceERKNS_8hardware11hidl_stringEb"
  }
  mangled_function_name: "_ZN7android4hidl6memory4V1_07IMemory10getServiceERKNS_8hardware11hidl_stringEb"
  source_file: "/home/suhwa.kim/CONA_Proj/android/out/soong/.intermediates/system/libhidl/transport/memory/1.0/android.hidl.memory@1.0_genc++_headers/gen/android/hidl/memory/1.0/IMemory.h"
  parameters {
    basic_abi {
      type_abi {
        name: "const android::hardware::hidl_string &"
        size: 8
        alignment: 8
      }
      name: "serviceName"
      access: public_access
      linker_set_key: "false"
    }
    default_arg: false
  }
  parameters {
    basic_abi {
      type_abi {
        name: "bool"
        size: 1
        alignment: 1
      }
      name: "getStub"
      access: public_access
      linker_set_key: "true"
    }
    default_arg: true
  }
}
functions {
  basic_abi {
    type_abi {
      name: "android::sp<android::hidl::memory::V1_0::IMemory>"
      size: 8
      alignment: 8
    }
    name: "android::hidl::memory::V1_0::IMemory::getService"
    access: public_access
    linker_set_key: "_ZN7android4hidl6memory4V1_07IMemory10getServiceEb"
  }
  mangled_function_name: "_ZN7android4hidl6memory4V1_07IMemory10getServiceEb"
  source_file: "/home/suhwa.kim/CONA_Proj/android/out/soong/.intermediates/system/libhidl/transport/memory/1.0/android.hidl.memory@1.0_genc++_headers/gen/android/hidl/memory/1.0/IMemory.h"
  parameters {
    basic_abi {
      type_abi {
        name: "bool"
        size: 1
        alignment: 1
      }
      name: "getStub"
      access: public_access
      linker_set_key: "false"
    }
    default_arg: false
  }
}
functions {
  basic_abi {
    type_abi {
      name: "int"
      size: 4
      alignment: 4
    }
    name: "android::hidl::memory::V1_0::IMemory::registerAsService"
    access: public_access
    linker_set_key: "_ZN7android4hidl6memory4V1_07IMemory17registerAsServiceERKNSt3__112basic_stringIcNS4_11char_traitsIcEENS4_9allocatorIcEEEE"
  }
  mangled_function_name: "_ZN7android4hidl6memory4V1_07IMemory17registerAsServiceERKNSt3__112basic_stringIcNS4_11char_traitsIcEENS4_9allocatorIcEEEE"
  source_file: "/home/suhwa.kim/CONA_Proj/android/out/soong/.intermediates/system/libhidl/transport/memory/1.0/android.hidl.memory@1.0_genc++_headers/gen/android/hidl/memory/1.0/IMemory.h"
  parameters {
    basic_abi {
      type_abi {
        name: "const std::basic_string<char, std::char_traits<char>, std::allocator<char> > &"
        size: 8
        alignment: 8
      }
      name: "serviceName"
      access: public_access
      linker_set_key: "true"
    }
    default_arg: true
  }
}
functions {
  basic_abi {
    type_abi {
      name: "bool"
      size: 1
      alignment: 1
    }
    name: "android::hidl::memory::V1_0::IMemory::registerForNotifications"
    access: public_access
    linker_set_key: "_ZN7android4hidl6memory4V1_07IMemory24registerForNotificationsERKNSt3__112basic_stringIcNS4_11char_traitsIcEENS4_9allocatorIcEEEERKNS_2spINS0_7manager4V1_020IServiceNotificationEEE"
  }
  mangled_function_name: "_ZN7android4hidl6memory4V1_07IMemory24registerForNotificationsERKNSt3__112basic_stringIcNS4_11char_traitsIcEENS4_9allocatorIcEEEERKNS_2spINS0_7manager4V1_020IServiceNotificationEEE"
  source_file: "/home/suhwa.kim/CONA_Proj/android/out/soong/.intermediates/system/libhidl/transport/memory/1.0/android.hidl.memory@1.0_genc++_headers/gen/android/hidl/memory/1.0/IMemory.h"
  parameters {
    basic_abi {
      type_abi {
        name: "const std::basic_string<char, std::char_traits<char>, std::allocator<char> > &"
        size: 8
        alignment: 8
      }
      name: "serviceName"
      access: public_access
      linker_set_key: "false"
    }
    default_arg: false
  }
  parameters {
    basic_abi {
      type_abi {
        name: "const android::sp<android::hidl::manager::V1_0::IServiceNotification> &"
        size: 8
        alignment: 8
      }
      name: "notification"
      access: public_access
      linker_set_key: "false"
    }
    default_arg: false
  }
}
functions {
  basic_abi {
    type_abi {
      name: "std::basic_string<char, std::char_traits<char>, std::allocator<char> >"
      size: 24
      alignment: 8
    }
    name: "android::hidl::memory::V1_0::toString"
    access: public_access
    linker_set_key: "_ZN7android4hidl6memory4V1_08toStringERKNS_2spINS2_7IMemoryEEE"
  }
  mangled_function_name: "_ZN7android4hidl6memory4V1_08toStringERKNS_2spINS2_7IMemoryEEE"
  source_file: "/home/suhwa.kim/CONA_Proj/android/out/soong/.intermediates/system/libhidl/transport/memory/1.0/android.hidl.memory@1.0_genc++_headers/gen/android/hidl/memory/1.0/IMemory.h"
  parameters {
    basic_abi {
      type_abi {
        name: "const android::sp<android::hidl::memory::V1_0::IMemory> &"
        size: 8
        alignment: 8
      }
      name: ""
      access: public_access
      linker_set_key: "false"
    }
    default_arg: false
  }
}
functions {
  basic_abi {
    type_abi {
      name: "void"
    }
    name: "android::hidl::memory::V1_0::BpHwMemory::BpHwMemory"
    access: public_access
    linker_set_key: "_ZN7android4hidl6memory4V1_010BpHwMemoryC1ERKNS_2spINS_8hardware7IBinderEEE"
  }
  mangled_function_name: "_ZN7android4hidl6memory4V1_010BpHwMemoryC1ERKNS_2spINS_8hardware7IBinderEEE"
  source_file: "/home/suhwa.kim/CONA_Proj/android/out/soong/.intermediates/system/libhidl/transport/memory/1.0/android.hidl.memory@1.0_genc++_headers/gen/android/hidl/memory/1.0/BpHwMemory.h"
  parameters {
    basic_abi {
      type_abi {
        name: "const android::sp<android::hardware::IBinder> &"
        size: 8
        alignment: 8
      }
      name: "_hidl_impl"
      access: public_access
      linker_set_key: "false"
    }
    default_arg: false
  }
}
functions {
  basic_abi {
    type_abi {
      name: "bool"
      size: 1
      alignment: 1
    }
    name: "android::hidl::memory::V1_0::BpHwMemory::isRemote"
    access: public_access
    linker_set_key: "_ZNK7android4hidl6memory4V1_010BpHwMemory8isRemoteEv"
  }
  mangled_function_name: "_ZNK7android4hidl6memory4V1_010BpHwMemory8isRemoteEv"
  source_file: "/home/suhwa.kim/CONA_Proj/android/out/soong/.intermediates/system/libhidl/transport/memory/1.0/android.hidl.memory@1.0_genc++_headers/gen/android/hidl/memory/1.0/BpHwMemory.h"
}
functions {
  basic_abi {
    type_abi {
      name: "android::hardware::Return<void>"
      size: 40
      alignment: 8
    }
    name: "android::hidl::memory::V1_0::BpHwMemory::update"
    access: public_access
    linker_set_key: "_ZN7android4hidl6memory4V1_010BpHwMemory6updateEv"
  }
  mangled_function_name: "_ZN7android4hidl6memory4V1_010BpHwMemory6updateEv"
  source_file: "/home/suhwa.kim/CONA_Proj/android/out/soong/.intermediates/system/libhidl/transport/memory/1.0/android.hidl.memory@1.0_genc++_headers/gen/android/hidl/memory/1.0/BpHwMemory.h"
}
functions {
  basic_abi {
    type_abi {
      name: "android::hardware::Return<void>"
      size: 40
      alignment: 8
    }
    name: "android::hidl::memory::V1_0::BpHwMemory::updateRange"
    access: public_access
    linker_set_key: "_ZN7android4hidl6memory4V1_010BpHwMemory11updateRangeEmm"
  }
  mangled_function_name: "_ZN7android4hidl6memory4V1_010BpHwMemory11updateRangeEmm"
  source_file: "/home/suhwa.kim/CONA_Proj/android/out/soong/.intermediates/system/libhidl/transport/memory/1.0/android.hidl.memory@1.0_genc++_headers/gen/android/hidl/memory/1.0/BpHwMemory.h"
  parameters {
    basic_abi {
      type_abi {
        name: "unsigned long"
        size: 8
        alignment: 8
      }
      name: "start"
      access: public_access
      linker_set_key: "false"
    }
    default_arg: false
  }
  parameters {
    basic_abi {
      type_abi {
        name: "unsigned long"
        size: 8
        alignment: 8
      }
      name: "length"
      access: public_access
      linker_set_key: "false"
    }
    default_arg: false
  }
}
functions {
  basic_abi {
    type_abi {
      name: "android::hardware::Return<void>"
      size: 40
      alignment: 8
    }
    name: "android::hidl::memory::V1_0::BpHwMemory::read"
    access: public_access
    linker_set_key: "_ZN7android4hidl6memory4V1_010BpHwMemory4readEv"
  }
  mangled_function_name: "_ZN7android4hidl6memory4V1_010BpHwMemory4readEv"
  source_file: "/home/suhwa.kim/CONA_Proj/android/out/soong/.intermediates/system/libhidl/transport/memory/1.0/android.hidl.memory@1.0_genc++_headers/gen/android/hidl/memory/1.0/BpHwMemory.h"
}
functions {
  basic_abi {
    type_abi {
      name: "android::hardware::Return<void>"
      size: 40
      alignment: 8
    }
    name: "android::hidl::memory::V1_0::BpHwMemory::readRange"
    access: public_access
    linker_set_key: "_ZN7android4hidl6memory4V1_010BpHwMemory9readRangeEmm"
  }
  mangled_function_name: "_ZN7android4hidl6memory4V1_010BpHwMemory9readRangeEmm"
  source_file: "/home/suhwa.kim/CONA_Proj/android/out/soong/.intermediates/system/libhidl/transport/memory/1.0/android.hidl.memory@1.0_genc++_headers/gen/android/hidl/memory/1.0/BpHwMemory.h"
  parameters {
    basic_abi {
      type_abi {
        name: "unsigned long"
        size: 8
        alignment: 8
      }
      name: "start"
      access: public_access
      linker_set_key: "false"
    }
    default_arg: false
  }
  parameters {
    basic_abi {
      type_abi {
        name: "unsigned long"
        size: 8
        alignment: 8
      }
      name: "length"
      access: public_access
      linker_set_key: "false"
    }
    default_arg: false
  }
}
functions {
  basic_abi {
    type_abi {
      name: "android::hardware::Return<void>"
      size: 40
      alignment: 8
    }
    name: "android::hidl::memory::V1_0::BpHwMemory::commit"
    access: public_access
    linker_set_key: "_ZN7android4hidl6memory4V1_010BpHwMemory6commitEv"
  }
  mangled_function_name: "_ZN7android4hidl6memory4V1_010BpHwMemory6commitEv"
  source_file: "/home/suhwa.kim/CONA_Proj/android/out/soong/.intermediates/system/libhidl/transport/memory/1.0/android.hidl.memory@1.0_genc++_headers/gen/android/hidl/memory/1.0/BpHwMemory.h"
}
functions {
  basic_abi {
    type_abi {
      name: "android::hardware::Return<void *>"
      size: 48
      alignment: 8
    }
    name: "android::hidl::memory::V1_0::BpHwMemory::getPointer"
    access: public_access
    linker_set_key: "_ZN7android4hidl6memory4V1_010BpHwMemory10getPointerEv"
  }
  mangled_function_name: "_ZN7android4hidl6memory4V1_010BpHwMemory10getPointerEv"
  source_file: "/home/suhwa.kim/CONA_Proj/android/out/soong/.intermediates/system/libhidl/transport/memory/1.0/android.hidl.memory@1.0_genc++_headers/gen/android/hidl/memory/1.0/BpHwMemory.h"
}
functions {
  basic_abi {
    type_abi {
      name: "android::hardware::Return<unsigned long>"
      size: 48
      alignment: 8
    }
    name: "android::hidl::memory::V1_0::BpHwMemory::getSize"
    access: public_access
    linker_set_key: "_ZN7android4hidl6memory4V1_010BpHwMemory7getSizeEv"
  }
  mangled_function_name: "_ZN7android4hidl6memory4V1_010BpHwMemory7getSizeEv"
  source_file: "/home/suhwa.kim/CONA_Proj/android/out/soong/.intermediates/system/libhidl/transport/memory/1.0/android.hidl.memory@1.0_genc++_headers/gen/android/hidl/memory/1.0/BpHwMemory.h"
}
functions {
  basic_abi {
    type_abi {
      name: "android::hardware::Return<void>"
      size: 40
      alignment: 8
    }
    name: "android::hidl::memory::V1_0::BpHwMemory::interfaceChain"
    access: public_access
    linker_set_key: "_ZN7android4hidl6memory4V1_010BpHwMemory14interfaceChainENSt3__18functionIFvRKNS_8hardware8hidl_vecINS6_11hidl_stringEEEEEE"
  }
  mangled_function_name: "_ZN7android4hidl6memory4V1_010BpHwMemory14interfaceChainENSt3__18functionIFvRKNS_8hardware8hidl_vecINS6_11hidl_stringEEEEEE"
  source_file: "/home/suhwa.kim/CONA_Proj/android/out/soong/.intermediates/system/libhidl/transport/memory/1.0/android.hidl.memory@1.0_genc++_headers/gen/android/hidl/memory/1.0/BpHwMemory.h"
  parameters {
    basic_abi {
      type_abi {
        name: "std::function<void (const hidl_vec<hidl_string> &)>"
        size: 48
        alignment: 16
      }
      name: "_hidl_cb"
      access: public_access
      linker_set_key: "false"
    }
    default_arg: false
  }
}
functions {
  basic_abi {
    type_abi {
      name: "android::hardware::Return<void>"
      size: 40
      alignment: 8
    }
    name: "android::hidl::memory::V1_0::BpHwMemory::debug"
    access: public_access
    linker_set_key: "_ZN7android4hidl6memory4V1_010BpHwMemory5debugERKNS_8hardware11hidl_handleERKNS4_8hidl_vecINS4_11hidl_stringEEE"
  }
  mangled_function_name: "_ZN7android4hidl6memory4V1_010BpHwMemory5debugERKNS_8hardware11hidl_handleERKNS4_8hidl_vecINS4_11hidl_stringEEE"
  source_file: "/home/suhwa.kim/CONA_Proj/android/out/soong/.intermediates/system/libhidl/transport/memory/1.0/android.hidl.memory@1.0_genc++_headers/gen/android/hidl/memory/1.0/BpHwMemory.h"
  parameters {
    basic_abi {
      type_abi {
        name: "const android::hardware::hidl_handle &"
        size: 8
        alignment: 8
      }
      name: "fd"
      access: public_access
      linker_set_key: "false"
    }
    default_arg: false
  }
  parameters {
    basic_abi {
      type_abi {
        name: "const android::hardware::hidl_vec<android::hardware::hidl_string> &"
        size: 8
        alignment: 8
      }
      name: "options"
      access: public_access
      linker_set_key: "false"
    }
    default_arg: false
  }
}
functions {
  basic_abi {
    type_abi {
      name: "android::hardware::Return<void>"
      size: 40
      alignment: 8
    }
    name: "android::hidl::memory::V1_0::BpHwMemory::interfaceDescriptor"
    access: public_access
    linker_set_key: "_ZN7android4hidl6memory4V1_010BpHwMemory19interfaceDescriptorENSt3__18functionIFvRKNS_8hardware11hidl_stringEEEE"
  }
  mangled_function_name: "_ZN7android4hidl6memory4V1_010BpHwMemory19interfaceDescriptorENSt3__18functionIFvRKNS_8hardware11hidl_stringEEEE"
  source_file: "/home/suhwa.kim/CONA_Proj/android/out/soong/.intermediates/system/libhidl/transport/memory/1.0/android.hidl.memory@1.0_genc++_headers/gen/android/hidl/memory/1.0/BpHwMemory.h"
  parameters {
    basic_abi {
      type_abi {
        name: "std::function<void (const hidl_string &)>"
        size: 48
        alignment: 16
      }
      name: "_hidl_cb"
      access: public_access
      linker_set_key: "false"
    }
    default_arg: false
  }
}
functions {
  basic_abi {
    type_abi {
      name: "android::hardware::Return<void>"
      size: 40
      alignment: 8
    }
    name: "android::hidl::memory::V1_0::BpHwMemory::getHashChain"
    access: public_access
    linker_set_key: "_ZN7android4hidl6memory4V1_010BpHwMemory12getHashChainENSt3__18functionIFvRKNS_8hardware8hidl_vecINS6_10hidl_arrayIhLm32EJEEEEEEEE"
  }
  mangled_function_name: "_ZN7android4hidl6memory4V1_010BpHwMemory12getHashChainENSt3__18functionIFvRKNS_8hardware8hidl_vecINS6_10hidl_arrayIhLm32EJEEEEEEEE"
  source_file: "/home/suhwa.kim/CONA_Proj/android/out/soong/.intermediates/system/libhidl/transport/memory/1.0/android.hidl.memory@1.0_genc++_headers/gen/android/hidl/memory/1.0/BpHwMemory.h"
  parameters {
    basic_abi {
      type_abi {
        name: "std::function<void (const hidl_vec<hidl_array<unsigned char, 32> > &)>"
        size: 48
        alignment: 16
      }
      name: "_hidl_cb"
      access: public_access
      linker_set_key: "false"
    }
    default_arg: false
  }
}
functions {
  basic_abi {
    type_abi {
      name: "android::hardware::Return<void>"
      size: 40
      alignment: 8
    }
    name: "android::hidl::memory::V1_0::BpHwMemory::setHALInstrumentation"
    access: public_access
    linker_set_key: "_ZN7android4hidl6memory4V1_010BpHwMemory21setHALInstrumentationEv"
  }
  mangled_function_name: "_ZN7android4hidl6memory4V1_010BpHwMemory21setHALInstrumentationEv"
  source_file: "/home/suhwa.kim/CONA_Proj/android/out/soong/.intermediates/system/libhidl/transport/memory/1.0/android.hidl.memory@1.0_genc++_headers/gen/android/hidl/memory/1.0/BpHwMemory.h"
}
functions {
  basic_abi {
    type_abi {
      name: "android::hardware::Return<bool>"
      size: 40
      alignment: 8
    }
    name: "android::hidl::memory::V1_0::BpHwMemory::linkToDeath"
    access: public_access
    linker_set_key: "_ZN7android4hidl6memory4V1_010BpHwMemory11linkToDeathERKNS_2spINS_8hardware20hidl_death_recipientEEEm"
  }
  mangled_function_name: "_ZN7android4hidl6memory4V1_010BpHwMemory11linkToDeathERKNS_2spINS_8hardware20hidl_death_recipientEEEm"
  source_file: "/home/suhwa.kim/CONA_Proj/android/out/soong/.intermediates/system/libhidl/transport/memory/1.0/android.hidl.memory@1.0_genc++_headers/gen/android/hidl/memory/1.0/BpHwMemory.h"
  parameters {
    basic_abi {
      type_abi {
        name: "const android::sp<android::hardware::hidl_death_recipient> &"
        size: 8
        alignment: 8
      }
      name: "recipient"
      access: public_access
      linker_set_key: "false"
    }
    default_arg: false
  }
  parameters {
    basic_abi {
      type_abi {
        name: "unsigned long"
        size: 8
        alignment: 8
      }
      name: "cookie"
      access: public_access
      linker_set_key: "false"
    }
    default_arg: false
  }
}
functions {
  basic_abi {
    type_abi {
      name: "android::hardware::Return<void>"
      size: 40
      alignment: 8
    }
    name: "android::hidl::memory::V1_0::BpHwMemory::ping"
    access: public_access
    linker_set_key: "_ZN7android4hidl6memory4V1_010BpHwMemory4pingEv"
  }
  mangled_function_name: "_ZN7android4hidl6memory4V1_010BpHwMemory4pingEv"
  source_file: "/home/suhwa.kim/CONA_Proj/android/out/soong/.intermediates/system/libhidl/transport/memory/1.0/android.hidl.memory@1.0_genc++_headers/gen/android/hidl/memory/1.0/BpHwMemory.h"
}
functions {
  basic_abi {
    type_abi {
      name: "android::hardware::Return<void>"
      size: 40
      alignment: 8
    }
    name: "android::hidl::memory::V1_0::BpHwMemory::getDebugInfo"
    access: public_access
    linker_set_key: "_ZN7android4hidl6memory4V1_010BpHwMemory12getDebugInfoENSt3__18functionIFvRKNS0_4base4V1_09DebugInfoEEEE"
  }
  mangled_function_name: "_ZN7android4hidl6memory4V1_010BpHwMemory12getDebugInfoENSt3__18functionIFvRKNS0_4base4V1_09DebugInfoEEEE"
  source_file: "/home/suhwa.kim/CONA_Proj/android/out/soong/.intermediates/system/libhidl/transport/memory/1.0/android.hidl.memory@1.0_genc++_headers/gen/android/hidl/memory/1.0/BpHwMemory.h"
  parameters {
    basic_abi {
      type_abi {
        name: "std::function<void (const DebugInfo &)>"
        size: 48
        alignment: 16
      }
      name: "_hidl_cb"
      access: public_access
      linker_set_key: "false"
    }
    default_arg: false
  }
}
functions {
  basic_abi {
    type_abi {
      name: "android::hardware::Return<void>"
      size: 40
      alignment: 8
    }
    name: "android::hidl::memory::V1_0::BpHwMemory::notifySyspropsChanged"
    access: public_access
    linker_set_key: "_ZN7android4hidl6memory4V1_010BpHwMemory21notifySyspropsChangedEv"
  }
  mangled_function_name: "_ZN7android4hidl6memory4V1_010BpHwMemory21notifySyspropsChangedEv"
  source_file: "/home/suhwa.kim/CONA_Proj/android/out/soong/.intermediates/system/libhidl/transport/memory/1.0/android.hidl.memory@1.0_genc++_headers/gen/android/hidl/memory/1.0/BpHwMemory.h"
}
functions {
  basic_abi {
    type_abi {
      name: "android::hardware::Return<bool>"
      size: 40
      alignment: 8
    }
    name: "android::hidl::memory::V1_0::BpHwMemory::unlinkToDeath"
    access: public_access
    linker_set_key: "_ZN7android4hidl6memory4V1_010BpHwMemory13unlinkToDeathERKNS_2spINS_8hardware20hidl_death_recipientEEE"
  }
  mangled_function_name: "_ZN7android4hidl6memory4V1_010BpHwMemory13unlinkToDeathERKNS_2spINS_8hardware20hidl_death_recipientEEE"
  source_file: "/home/suhwa.kim/CONA_Proj/android/out/soong/.intermediates/system/libhidl/transport/memory/1.0/android.hidl.memory@1.0_genc++_headers/gen/android/hidl/memory/1.0/BpHwMemory.h"
  parameters {
    basic_abi {
      type_abi {
        name: "const android::sp<android::hardware::hidl_death_recipient> &"
        size: 8
        alignment: 8
      }
      name: "recipient"
      access: public_access
      linker_set_key: "false"
    }
    default_arg: false
  }
}
functions {
  basic_abi {
    type_abi {
      name: "void"
    }
    name: "android::hidl::memory::V1_0::BnHwMemory::BnHwMemory"
    access: public_access
    linker_set_key: "_ZN7android4hidl6memory4V1_010BnHwMemoryC1ERKNS_2spINS2_7IMemoryEEE"
  }
  mangled_function_name: "_ZN7android4hidl6memory4V1_010BnHwMemoryC1ERKNS_2spINS2_7IMemoryEEE"
  source_file: "/home/suhwa.kim/CONA_Proj/android/out/soong/.intermediates/system/libhidl/transport/memory/1.0/android.hidl.memory@1.0_genc++_headers/gen/android/hidl/memory/1.0/BnHwMemory.h"
  parameters {
    basic_abi {
      type_abi {
        name: "const android::sp<android::hidl::memory::V1_0::IMemory> &"
        size: 8
        alignment: 8
      }
      name: "_hidl_impl"
      access: public_access
      linker_set_key: "false"
    }
    default_arg: false
  }
}
functions {
  basic_abi {
    type_abi {
      name: "void"
    }
    name: "android::hidl::memory::V1_0::BnHwMemory::BnHwMemory"
    access: public_access
    linker_set_key: "_ZN7android4hidl6memory4V1_010BnHwMemoryC1ERKNS_2spINS2_7IMemoryEEERKNSt3__112basic_stringIcNS9_11char_traitsIcEENS9_9allocatorIcEEEESH_"
  }
  mangled_function_name: "_ZN7android4hidl6memory4V1_010BnHwMemoryC1ERKNS_2spINS2_7IMemoryEEERKNSt3__112basic_stringIcNS9_11char_traitsIcEENS9_9allocatorIcEEEESH_"
  source_file: "/home/suhwa.kim/CONA_Proj/android/out/soong/.intermediates/system/libhidl/transport/memory/1.0/android.hidl.memory@1.0_genc++_headers/gen/android/hidl/memory/1.0/BnHwMemory.h"
  parameters {
    basic_abi {
      type_abi {
        name: "const android::sp<android::hidl::memory::V1_0::IMemory> &"
        size: 8
        alignment: 8
      }
      name: "_hidl_impl"
      access: public_access
      linker_set_key: "false"
    }
    default_arg: false
  }
  parameters {
    basic_abi {
      type_abi {
        name: "const std::basic_string<char, std::char_traits<char>, std::allocator<char> > &"
        size: 8
        alignment: 8
      }
      name: "HidlInstrumentor_package"
      access: public_access
      linker_set_key: "false"
    }
    default_arg: false
  }
  parameters {
    basic_abi {
      type_abi {
        name: "const std::basic_string<char, std::char_traits<char>, std::allocator<char> > &"
        size: 8
        alignment: 8
      }
      name: "HidlInstrumentor_interface"
      access: public_access
      linker_set_key: "false"
    }
    default_arg: false
  }
}
functions {
  basic_abi {
    type_abi {
      name: "int"
      size: 4
      alignment: 4
    }
    name: "android::hidl::memory::V1_0::BnHwMemory::onTransact"
    access: public_access
    linker_set_key: "_ZN7android4hidl6memory4V1_010BnHwMemory10onTransactEjRKNS_8hardware6ParcelEPS5_jNSt3__18functionIFvRS5_EEE"
  }
  mangled_function_name: "_ZN7android4hidl6memory4V1_010BnHwMemory10onTransactEjRKNS_8hardware6ParcelEPS5_jNSt3__18functionIFvRS5_EEE"
  source_file: "/home/suhwa.kim/CONA_Proj/android/out/soong/.intermediates/system/libhidl/transport/memory/1.0/android.hidl.memory@1.0_genc++_headers/gen/android/hidl/memory/1.0/BnHwMemory.h"
  parameters {
    basic_abi {
      type_abi {
        name: "unsigned int"
        size: 4
        alignment: 4
      }
      name: "_hidl_code"
      access: public_access
      linker_set_key: "false"
    }
    default_arg: false
  }
  parameters {
    basic_abi {
      type_abi {
        name: "const android::hardware::Parcel &"
        size: 8
        alignment: 8
      }
      name: "_hidl_data"
      access: public_access
      linker_set_key: "false"
    }
    default_arg: false
  }
  parameters {
    basic_abi {
      type_abi {
        name: "android::hardware::Parcel *"
        size: 8
        alignment: 8
      }
      name: "_hidl_reply"
      access: public_access
      linker_set_key: "false"
    }
    default_arg: false
  }
  parameters {
    basic_abi {
      type_abi {
        name: "unsigned int"
        size: 4
        alignment: 4
      }
      name: "_hidl_flags"
      access: public_access
      linker_set_key: "true"
    }
    default_arg: true
  }
  parameters {
    basic_abi {
      type_abi {
        name: "std::function<void (Parcel &)>"
        size: 48
        alignment: 16
      }
      name: "_hidl_cb"
      access: public_access
      linker_set_key: "true"
    }
    default_arg: true
  }
}
functions {
  basic_abi {
    type_abi {
      name: "android::sp<android::hidl::memory::V1_0::IMemory>"
      size: 8
      alignment: 8
    }
    name: "android::hidl::memory::V1_0::BnHwMemory::getImpl"
    access: public_access
    linker_set_key: "_ZN7android4hidl6memory4V1_010BnHwMemory7getImplEv"
  }
  mangled_function_name: "_ZN7android4hidl6memory4V1_010BnHwMemory7getImplEv"
  source_file: "/home/suhwa.kim/CONA_Proj/android/out/soong/.intermediates/system/libhidl/transport/memory/1.0/android.hidl.memory@1.0_genc++_headers/gen/android/hidl/memory/1.0/BnHwMemory.h"
}
functions {
  basic_abi {
    type_abi {
      name: "android::hardware::Return<void>"
      size: 40
      alignment: 8
    }
    name: "android::hidl::memory::V1_0::BnHwMemory::ping"
    access: private_access
    linker_set_key: "_ZN7android4hidl6memory4V1_010BnHwMemory4pingEv"
  }
  mangled_function_name: "_ZN7android4hidl6memory4V1_010BnHwMemory4pingEv"
  source_file: "/home/suhwa.kim/CONA_Proj/android/out/soong/.intermediates/system/libhidl/transport/memory/1.0/android.hidl.memory@1.0_genc++_headers/gen/android/hidl/memory/1.0/BnHwMemory.h"
}
functions {
  basic_abi {
    type_abi {
      name: "android::hardware::Return<void>"
      size: 40
      alignment: 8
    }
    name: "android::hidl::memory::V1_0::BnHwMemory::getDebugInfo"
    access: private_access
    linker_set_key: "_ZN7android4hidl6memory4V1_010BnHwMemory12getDebugInfoENSt3__18functionIFvRKNS0_4base4V1_09DebugInfoEEEE"
  }
  mangled_function_name: "_ZN7android4hidl6memory4V1_010BnHwMemory12getDebugInfoENSt3__18functionIFvRKNS0_4base4V1_09DebugInfoEEEE"
  source_file: "/home/suhwa.kim/CONA_Proj/android/out/soong/.intermediates/system/libhidl/transport/memory/1.0/android.hidl.memory@1.0_genc++_headers/gen/android/hidl/memory/1.0/BnHwMemory.h"
  parameters {
    basic_abi {
      type_abi {
        name: "std::function<void (const DebugInfo &)>"
        size: 48
        alignment: 16
      }
      name: "_hidl_cb"
      access: public_access
      linker_set_key: "false"
    }
    default_arg: false
  }
}
functions {
  basic_abi {
    type_abi {
      name: "void"
    }
    name: "android::hidl::memory::V1_0::BsMemory::BsMemory"
    access: public_access
    linker_set_key: "_ZN7android4hidl6memory4V1_08BsMemoryC1ENS_2spINS2_7IMemoryEEE"
  }
  mangled_function_name: "_ZN7android4hidl6memory4V1_08BsMemoryC1ENS_2spINS2_7IMemoryEEE"
  source_file: "/home/suhwa.kim/CONA_Proj/android/out/soong/.intermediates/system/libhidl/transport/memory/1.0/android.hidl.memory@1.0_genc++_headers/gen/android/hidl/memory/1.0/BsMemory.h"
  parameters {
    basic_abi {
      type_abi {
        name: "const android::sp<android::hidl::memory::V1_0::IMemory>"
        size: 8
        alignment: 8
      }
      name: "impl"
      access: public_access
      linker_set_key: "false"
    }
    default_arg: false
  }
}
functions {
  basic_abi {
    type_abi {
      name: "android::hardware::Return<void>"
      size: 40
      alignment: 8
    }
    name: "android::hidl::memory::V1_0::BsMemory::update"
    access: public_access
    linker_set_key: "_ZN7android4hidl6memory4V1_08BsMemory6updateEv"
  }
  mangled_function_name: "_ZN7android4hidl6memory4V1_08BsMemory6updateEv"
  source_file: "/home/suhwa.kim/CONA_Proj/android/out/soong/.intermediates/system/libhidl/transport/memory/1.0/android.hidl.memory@1.0_genc++_headers/gen/android/hidl/memory/1.0/BsMemory.h"
}
functions {
  basic_abi {
    type_abi {
      name: "android::hardware::Return<void>"
      size: 40
      alignment: 8
    }
    name: "android::hidl::memory::V1_0::BsMemory::updateRange"
    access: public_access
    linker_set_key: "_ZN7android4hidl6memory4V1_08BsMemory11updateRangeEmm"
  }
  mangled_function_name: "_ZN7android4hidl6memory4V1_08BsMemory11updateRangeEmm"
  source_file: "/home/suhwa.kim/CONA_Proj/android/out/soong/.intermediates/system/libhidl/transport/memory/1.0/android.hidl.memory@1.0_genc++_headers/gen/android/hidl/memory/1.0/BsMemory.h"
  parameters {
    basic_abi {
      type_abi {
        name: "unsigned long"
        size: 8
        alignment: 8
      }
      name: "start"
      access: public_access
      linker_set_key: "false"
    }
    default_arg: false
  }
  parameters {
    basic_abi {
      type_abi {
        name: "unsigned long"
        size: 8
        alignment: 8
      }
      name: "length"
      access: public_access
      linker_set_key: "false"
    }
    default_arg: false
  }
}
functions {
  basic_abi {
    type_abi {
      name: "android::hardware::Return<void>"
      size: 40
      alignment: 8
    }
    name: "android::hidl::memory::V1_0::BsMemory::read"
    access: public_access
    linker_set_key: "_ZN7android4hidl6memory4V1_08BsMemory4readEv"
  }
  mangled_function_name: "_ZN7android4hidl6memory4V1_08BsMemory4readEv"
  source_file: "/home/suhwa.kim/CONA_Proj/android/out/soong/.intermediates/system/libhidl/transport/memory/1.0/android.hidl.memory@1.0_genc++_headers/gen/android/hidl/memory/1.0/BsMemory.h"
}
functions {
  basic_abi {
    type_abi {
      name: "android::hardware::Return<void>"
      size: 40
      alignment: 8
    }
    name: "android::hidl::memory::V1_0::BsMemory::readRange"
    access: public_access
    linker_set_key: "_ZN7android4hidl6memory4V1_08BsMemory9readRangeEmm"
  }
  mangled_function_name: "_ZN7android4hidl6memory4V1_08BsMemory9readRangeEmm"
  source_file: "/home/suhwa.kim/CONA_Proj/android/out/soong/.intermediates/system/libhidl/transport/memory/1.0/android.hidl.memory@1.0_genc++_headers/gen/android/hidl/memory/1.0/BsMemory.h"
  parameters {
    basic_abi {
      type_abi {
        name: "unsigned long"
        size: 8
        alignment: 8
      }
      name: "start"
      access: public_access
      linker_set_key: "false"
    }
    default_arg: false
  }
  parameters {
    basic_abi {
      type_abi {
        name: "unsigned long"
        size: 8
        alignment: 8
      }
      name: "length"
      access: public_access
      linker_set_key: "false"
    }
    default_arg: false
  }
}
functions {
  basic_abi {
    type_abi {
      name: "android::hardware::Return<void>"
      size: 40
      alignment: 8
    }
    name: "android::hidl::memory::V1_0::BsMemory::commit"
    access: public_access
    linker_set_key: "_ZN7android4hidl6memory4V1_08BsMemory6commitEv"
  }
  mangled_function_name: "_ZN7android4hidl6memory4V1_08BsMemory6commitEv"
  source_file: "/home/suhwa.kim/CONA_Proj/android/out/soong/.intermediates/system/libhidl/transport/memory/1.0/android.hidl.memory@1.0_genc++_headers/gen/android/hidl/memory/1.0/BsMemory.h"
}
functions {
  basic_abi {
    type_abi {
      name: "android::hardware::Return<void *>"
      size: 48
      alignment: 8
    }
    name: "android::hidl::memory::V1_0::BsMemory::getPointer"
    access: public_access
    linker_set_key: "_ZN7android4hidl6memory4V1_08BsMemory10getPointerEv"
  }
  mangled_function_name: "_ZN7android4hidl6memory4V1_08BsMemory10getPointerEv"
  source_file: "/home/suhwa.kim/CONA_Proj/android/out/soong/.intermediates/system/libhidl/transport/memory/1.0/android.hidl.memory@1.0_genc++_headers/gen/android/hidl/memory/1.0/BsMemory.h"
}
functions {
  basic_abi {
    type_abi {
      name: "android::hardware::Return<unsigned long>"
      size: 48
      alignment: 8
    }
    name: "android::hidl::memory::V1_0::BsMemory::getSize"
    access: public_access
    linker_set_key: "_ZN7android4hidl6memory4V1_08BsMemory7getSizeEv"
  }
  mangled_function_name: "_ZN7android4hidl6memory4V1_08BsMemory7getSizeEv"
  source_file: "/home/suhwa.kim/CONA_Proj/android/out/soong/.intermediates/system/libhidl/transport/memory/1.0/android.hidl.memory@1.0_genc++_headers/gen/android/hidl/memory/1.0/BsMemory.h"
}
functions {
  basic_abi {
    type_abi {
      name: "android::hardware::Return<void>"
      size: 40
      alignment: 8
    }
    name: "android::hidl::memory::V1_0::BsMemory::interfaceChain"
    access: public_access
    linker_set_key: "_ZN7android4hidl6memory4V1_08BsMemory14interfaceChainENSt3__18functionIFvRKNS_8hardware8hidl_vecINS6_11hidl_stringEEEEEE"
  }
  mangled_function_name: "_ZN7android4hidl6memory4V1_08BsMemory14interfaceChainENSt3__18functionIFvRKNS_8hardware8hidl_vecINS6_11hidl_stringEEEEEE"
  source_file: "/home/suhwa.kim/CONA_Proj/android/out/soong/.intermediates/system/libhidl/transport/memory/1.0/android.hidl.memory@1.0_genc++_headers/gen/android/hidl/memory/1.0/BsMemory.h"
  parameters {
    basic_abi {
      type_abi {
        name: "std::function<void (const hidl_vec<hidl_string> &)>"
        size: 48
        alignment: 16
      }
      name: "_hidl_cb"
      access: public_access
      linker_set_key: "false"
    }
    default_arg: false
  }
}
functions {
  basic_abi {
    type_abi {
      name: "android::hardware::Return<void>"
      size: 40
      alignment: 8
    }
    name: "android::hidl::memory::V1_0::BsMemory::debug"
    access: public_access
    linker_set_key: "_ZN7android4hidl6memory4V1_08BsMemory5debugERKNS_8hardware11hidl_handleERKNS4_8hidl_vecINS4_11hidl_stringEEE"
  }
  mangled_function_name: "_ZN7android4hidl6memory4V1_08BsMemory5debugERKNS_8hardware11hidl_handleERKNS4_8hidl_vecINS4_11hidl_stringEEE"
  source_file: "/home/suhwa.kim/CONA_Proj/android/out/soong/.intermediates/system/libhidl/transport/memory/1.0/android.hidl.memory@1.0_genc++_headers/gen/android/hidl/memory/1.0/BsMemory.h"
  parameters {
    basic_abi {
      type_abi {
        name: "const android::hardware::hidl_handle &"
        size: 8
        alignment: 8
      }
      name: "fd"
      access: public_access
      linker_set_key: "false"
    }
    default_arg: false
  }
  parameters {
    basic_abi {
      type_abi {
        name: "const android::hardware::hidl_vec<android::hardware::hidl_string> &"
        size: 8
        alignment: 8
      }
      name: "options"
      access: public_access
      linker_set_key: "false"
    }
    default_arg: false
  }
}
functions {
  basic_abi {
    type_abi {
      name: "android::hardware::Return<void>"
      size: 40
      alignment: 8
    }
    name: "android::hidl::memory::V1_0::BsMemory::interfaceDescriptor"
    access: public_access
    linker_set_key: "_ZN7android4hidl6memory4V1_08BsMemory19interfaceDescriptorENSt3__18functionIFvRKNS_8hardware11hidl_stringEEEE"
  }
  mangled_function_name: "_ZN7android4hidl6memory4V1_08BsMemory19interfaceDescriptorENSt3__18functionIFvRKNS_8hardware11hidl_stringEEEE"
  source_file: "/home/suhwa.kim/CONA_Proj/android/out/soong/.intermediates/system/libhidl/transport/memory/1.0/android.hidl.memory@1.0_genc++_headers/gen/android/hidl/memory/1.0/BsMemory.h"
  parameters {
    basic_abi {
      type_abi {
        name: "std::function<void (const hidl_string &)>"
        size: 48
        alignment: 16
      }
      name: "_hidl_cb"
      access: public_access
      linker_set_key: "false"
    }
    default_arg: false
  }
}
functions {
  basic_abi {
    type_abi {
      name: "android::hardware::Return<void>"
      size: 40
      alignment: 8
    }
    name: "android::hidl::memory::V1_0::BsMemory::getHashChain"
    access: public_access
    linker_set_key: "_ZN7android4hidl6memory4V1_08BsMemory12getHashChainENSt3__18functionIFvRKNS_8hardware8hidl_vecINS6_10hidl_arrayIhLm32EJEEEEEEEE"
  }
  mangled_function_name: "_ZN7android4hidl6memory4V1_08BsMemory12getHashChainENSt3__18functionIFvRKNS_8hardware8hidl_vecINS6_10hidl_arrayIhLm32EJEEEEEEEE"
  source_file: "/home/suhwa.kim/CONA_Proj/android/out/soong/.intermediates/system/libhidl/transport/memory/1.0/android.hidl.memory@1.0_genc++_headers/gen/android/hidl/memory/1.0/BsMemory.h"
  parameters {
    basic_abi {
      type_abi {
        name: "std::function<void (const hidl_vec<hidl_array<unsigned char, 32> > &)>"
        size: 48
        alignment: 16
      }
      name: "_hidl_cb"
      access: public_access
      linker_set_key: "false"
    }
    default_arg: false
  }
}
functions {
  basic_abi {
    type_abi {
      name: "android::hardware::Return<void>"
      size: 40
      alignment: 8
    }
    name: "android::hidl::memory::V1_0::BsMemory::setHALInstrumentation"
    access: public_access
    linker_set_key: "_ZN7android4hidl6memory4V1_08BsMemory21setHALInstrumentationEv"
  }
  mangled_function_name: "_ZN7android4hidl6memory4V1_08BsMemory21setHALInstrumentationEv"
  source_file: "/home/suhwa.kim/CONA_Proj/android/out/soong/.intermediates/system/libhidl/transport/memory/1.0/android.hidl.memory@1.0_genc++_headers/gen/android/hidl/memory/1.0/BsMemory.h"
}
functions {
  basic_abi {
    type_abi {
      name: "android::hardware::Return<bool>"
      size: 40
      alignment: 8
    }
    name: "android::hidl::memory::V1_0::BsMemory::linkToDeath"
    access: public_access
    linker_set_key: "_ZN7android4hidl6memory4V1_08BsMemory11linkToDeathERKNS_2spINS_8hardware20hidl_death_recipientEEEm"
  }
  mangled_function_name: "_ZN7android4hidl6memory4V1_08BsMemory11linkToDeathERKNS_2spINS_8hardware20hidl_death_recipientEEEm"
  source_file: "/home/suhwa.kim/CONA_Proj/android/out/soong/.intermediates/system/libhidl/transport/memory/1.0/android.hidl.memory@1.0_genc++_headers/gen/android/hidl/memory/1.0/BsMemory.h"
  parameters {
    basic_abi {
      type_abi {
        name: "const android::sp<android::hardware::hidl_death_recipient> &"
        size: 8
        alignment: 8
      }
      name: "recipient"
      access: public_access
      linker_set_key: "false"
    }
    default_arg: false
  }
  parameters {
    basic_abi {
      type_abi {
        name: "unsigned long"
        size: 8
        alignment: 8
      }
      name: "cookie"
      access: public_access
      linker_set_key: "false"
    }
    default_arg: false
  }
}
functions {
  basic_abi {
    type_abi {
      name: "android::hardware::Return<void>"
      size: 40
      alignment: 8
    }
    name: "android::hidl::memory::V1_0::BsMemory::ping"
    access: public_access
    linker_set_key: "_ZN7android4hidl6memory4V1_08BsMemory4pingEv"
  }
  mangled_function_name: "_ZN7android4hidl6memory4V1_08BsMemory4pingEv"
  source_file: "/home/suhwa.kim/CONA_Proj/android/out/soong/.intermediates/system/libhidl/transport/memory/1.0/android.hidl.memory@1.0_genc++_headers/gen/android/hidl/memory/1.0/BsMemory.h"
}
functions {
  basic_abi {
    type_abi {
      name: "android::hardware::Return<void>"
      size: 40
      alignment: 8
    }
    name: "android::hidl::memory::V1_0::BsMemory::getDebugInfo"
    access: public_access
    linker_set_key: "_ZN7android4hidl6memory4V1_08BsMemory12getDebugInfoENSt3__18functionIFvRKNS0_4base4V1_09DebugInfoEEEE"
  }
  mangled_function_name: "_ZN7android4hidl6memory4V1_08BsMemory12getDebugInfoENSt3__18functionIFvRKNS0_4base4V1_09DebugInfoEEEE"
  source_file: "/home/suhwa.kim/CONA_Proj/android/out/soong/.intermediates/system/libhidl/transport/memory/1.0/android.hidl.memory@1.0_genc++_headers/gen/android/hidl/memory/1.0/BsMemory.h"
  parameters {
    basic_abi {
      type_abi {
        name: "std::function<void (const DebugInfo &)>"
        size: 48
        alignment: 16
      }
      name: "_hidl_cb"
      access: public_access
      linker_set_key: "false"
    }
    default_arg: false
  }
}
functions {
  basic_abi {
    type_abi {
      name: "android::hardware::Return<void>"
      size: 40
      alignment: 8
    }
    name: "android::hidl::memory::V1_0::BsMemory::notifySyspropsChanged"
    access: public_access
    linker_set_key: "_ZN7android4hidl6memory4V1_08BsMemory21notifySyspropsChangedEv"
  }
  mangled_function_name: "_ZN7android4hidl6memory4V1_08BsMemory21notifySyspropsChangedEv"
  source_file: "/home/suhwa.kim/CONA_Proj/android/out/soong/.intermediates/system/libhidl/transport/memory/1.0/android.hidl.memory@1.0_genc++_headers/gen/android/hidl/memory/1.0/BsMemory.h"
}
functions {
  basic_abi {
    type_abi {
      name: "android::hardware::Return<bool>"
      size: 40
      alignment: 8
    }
    name: "android::hidl::memory::V1_0::BsMemory::unlinkToDeath"
    access: public_access
    linker_set_key: "_ZN7android4hidl6memory4V1_08BsMemory13unlinkToDeathERKNS_2spINS_8hardware20hidl_death_recipientEEE"
  }
  mangled_function_name: "_ZN7android4hidl6memory4V1_08BsMemory13unlinkToDeathERKNS_2spINS_8hardware20hidl_death_recipientEEE"
  source_file: "/home/suhwa.kim/CONA_Proj/android/out/soong/.intermediates/system/libhidl/transport/memory/1.0/android.hidl.memory@1.0_genc++_headers/gen/android/hidl/memory/1.0/BsMemory.h"
  parameters {
    basic_abi {
      type_abi {
        name: "const android::sp<android::hardware::hidl_death_recipient> &"
        size: 8
        alignment: 8
      }
      name: "recipient"
      access: public_access
      linker_set_key: "false"
    }
    default_arg: false
  }
}
functions {
  basic_abi {
    type_abi {
      name: "android::hardware::Return<void>"
      size: 40
      alignment: 8
    }
    name: "android::hidl::memory::V1_0::BsMemory::addOnewayTask"
    access: private_access
    linker_set_key: "_ZN7android4hidl6memory4V1_08BsMemory13addOnewayTaskENSt3__18functionIFvvEEE"
  }
  mangled_function_name: "_ZN7android4hidl6memory4V1_08BsMemory13addOnewayTaskENSt3__18functionIFvvEEE"
  source_file: "/home/suhwa.kim/CONA_Proj/android/out/soong/.intermediates/system/libhidl/transport/memory/1.0/android.hidl.memory@1.0_genc++_headers/gen/android/hidl/memory/1.0/BsMemory.h"
  parameters {
    basic_abi {
      type_abi {
        name: "std::function<void ()>"
        size: 48
        alignment: 16
      }
      name: ""
      access: public_access
      linker_set_key: "false"
    }
    default_arg: false
  }
}
global_vars {
  basic_abi {
    type_abi {
      name: "const char *"
      size: 8
      alignment: 8
    }
    name: "android::hidl::memory::V1_0::IMemory::descriptor"
    access: public_access
    linker_set_key: "_ZN7android4hidl6memory4V1_07IMemory10descriptorE"
  }
  source_file: "/home/suhwa.kim/CONA_Proj/android/out/soong/.intermediates/system/libhidl/transport/memory/1.0/android.hidl.memory@1.0_genc++_headers/gen/android/hidl/memory/1.0/IMemory.h"
}
