records {
  basic_abi {
    type_abi {
      name: "hidl_pointer<T>"
    }
    name: "android::hardware::details::hidl_pointer"
    access: public_access
    linker_set_key: "_ZN7android8hardware7details12hidl_pointerE"
  }
  fields {
    basic_abi {
      type_abi {
        name: "union android::hardware::details::hidl_pointer::(anonymous at system/libhidl/base/include/hidl/HidlInternal.h:91:5)"
      }
      name: ""
      access: private_access
    }
  }
  source_file: "system/libhidl/base/include/hidl/HidlInternal.h"
  mangled_record_name: "_ZN7android8hardware7details12hidl_pointerE"
}
records {
  basic_abi {
    type_abi {
      name: "union android::hardware::details::hidl_pointer::(anonymous at system/libhidl/base/include/hidl/HidlInternal.h:91:5)"
    }
    name: "android::hardware::details::hidl_pointer::(anonymous)"
    access: private_access
    linker_set_key: "_ZN7android8hardware7details12hidl_pointerUt_E"
  }
  fields {
    basic_abi {
      type_abi {
        name: "type-parameter-0-0 *"
      }
      name: "mPointer"
      access: public_access
    }
  }
  fields {
    basic_abi {
      type_abi {
        name: "unsigned long"
        size: 8
        alignment: 8
      }
      name: "_pad"
      access: public_access
    }
  }
  source_file: "system/libhidl/base/include/hidl/HidlInternal.h"
  mangled_record_name: "_ZN7android8hardware7details12hidl_pointerUt_E"
}
records {
  basic_abi {
    type_abi {
      name: "android::hardware::details::HidlInstrumentor"
      size: 88
      alignment: 8
    }
    name: "android::hardware::details::HidlInstrumentor"
    access: public_access
    linker_set_key: "_ZN7android8hardware7details16HidlInstrumentorE"
  }
  fields {
    basic_abi {
      type_abi {
        name: "std::vector<std::function<void (InstrumentationEvent, const char *, const char *, const char *, const char *, vector<void *, allocator<void *> > *)>, std::allocator<std::function<void (InstrumentationEvent, const char *, const char *, const char *, const char *, vector<void *, allocator<void *> > *)> > >"
        size: 24
        alignment: 8
      }
      name: "mInstrumentationCallbacks"
      access: protected_access
    }
  }
  fields {
    basic_abi {
      type_abi {
        name: "bool"
        size: 1
        alignment: 1
      }
      name: "mEnableInstrumentation"
      access: protected_access
    }
  }
  fields {
    basic_abi {
      type_abi {
        name: "std::basic_string<char, std::char_traits<char>, std::allocator<char> >"
        size: 24
        alignment: 8
      }
      name: "mInstrumentationLibPackage"
      access: protected_access
    }
  }
  fields {
    basic_abi {
      type_abi {
        name: "std::basic_string<char, std::char_traits<char>, std::allocator<char> >"
        size: 24
        alignment: 8
      }
      name: "mInterfaceName"
      access: protected_access
    }
  }
  source_file: "system/libhidl/base/include/hidl/HidlInternal.h"
  mangled_record_name: "_ZN7android8hardware7details16HidlInstrumentorE"
  vtable_layout {
    vtable_components {
      kind: OffsetToTop
      mangled_component_name: ""
      value: 0
    }
    vtable_components {
      kind: RTTI
      mangled_component_name: "_ZN7android8hardware7details16HidlInstrumentorE"
      value: 0
    }
    vtable_components {
      kind: CompleteDtorPointer
      mangled_component_name: "_ZN7android8hardware7details16HidlInstrumentorD0Ev"
      value: 0
    }
    vtable_components {
      kind: UnusedFunctionPointer
      mangled_component_name: "_ZN7android8hardware7details16HidlInstrumentorD0Ev"
      value: 0
    }
  }
}
records {
  basic_abi {
    type_abi {
      name: "android::hardware::details::hidl_pointer<const native_handle>"
      size: 8
      alignment: 8
    }
    name: "android::hardware::details::hidl_pointer"
    access: public_access
    linker_set_key: "_ZN7android8hardware7details12hidl_pointerIK13native_handleEE"
  }
  fields {
    basic_abi {
      type_abi {
        name: "android::hardware::details::hidl_pointer<const native_handle>::(anonymous)"
        size: 8
        alignment: 8
      }
      name: ""
      access: private_access
    }
  }
  source_file: "system/libhidl/base/include/hidl/HidlInternal.h"
  template_info {
    elements {
      basic_abi {
        type_abi {
          name: "const native_handle"
          size: 12
          alignment: 4
        }
        linker_set_key: "const native_handle"
      }
    }
  }
  mangled_record_name: "_ZN7android8hardware7details12hidl_pointerIK13native_handleEE"
}
records {
  basic_abi {
    type_abi {
      name: "android::hardware::details::hidl_pointer<const native_handle>::(anonymous)"
      size: 8
      alignment: 8
    }
    name: "android::hardware::details::hidl_pointer<const native_handle>::(anonymous)"
    access: private_access
    linker_set_key: "_ZN7android8hardware7details12hidl_pointerIK13native_handleEUt_E"
  }
  fields {
    basic_abi {
      type_abi {
        name: "const native_handle *"
        size: 8
        alignment: 8
      }
      name: "mPointer"
      access: public_access
    }
  }
  fields {
    basic_abi {
      type_abi {
        name: "unsigned long"
        size: 8
        alignment: 8
      }
      name: "_pad"
      access: public_access
    }
  }
  source_file: "system/libhidl/base/include/hidl/HidlInternal.h"
  mangled_record_name: "_ZN7android8hardware7details12hidl_pointerIK13native_handleEUt_E"
}
records {
  basic_abi {
    type_abi {
      name: "android::hardware::details::hidl_pointer<const char>"
      size: 8
      alignment: 8
    }
    name: "android::hardware::details::hidl_pointer"
    access: public_access
    linker_set_key: "_ZN7android8hardware7details12hidl_pointerIKcEE"
  }
  fields {
    basic_abi {
      type_abi {
        name: "android::hardware::details::hidl_pointer<const char>::(anonymous)"
        size: 8
        alignment: 8
      }
      name: ""
      access: private_access
    }
  }
  source_file: "system/libhidl/base/include/hidl/HidlInternal.h"
  template_info {
    elements {
      basic_abi {
        type_abi {
          name: "const char"
          size: 1
          alignment: 1
        }
        linker_set_key: "const char"
      }
    }
  }
  mangled_record_name: "_ZN7android8hardware7details12hidl_pointerIKcEE"
}
records {
  basic_abi {
    type_abi {
      name: "android::hardware::details::hidl_pointer<const char>::(anonymous)"
      size: 8
      alignment: 8
    }
    name: "android::hardware::details::hidl_pointer<const char>::(anonymous)"
    access: private_access
    linker_set_key: "_ZN7android8hardware7details12hidl_pointerIKcEUt_E"
  }
  fields {
    basic_abi {
      type_abi {
        name: "const char *"
        size: 8
        alignment: 8
      }
      name: "mPointer"
      access: public_access
    }
  }
  fields {
    basic_abi {
      type_abi {
        name: "unsigned long"
        size: 8
        alignment: 8
      }
      name: "_pad"
      access: public_access
    }
  }
  source_file: "system/libhidl/base/include/hidl/HidlInternal.h"
  mangled_record_name: "_ZN7android8hardware7details12hidl_pointerIKcEUt_E"
}
records {
  basic_abi {
    type_abi {
      name: "android::hardware::Status"
      size: 32
      alignment: 8
    }
    name: "android::hardware::Status"
    access: public_access
    linker_set_key: "_ZN7android8hardware6StatusE"
  }
  fields {
    basic_abi {
      type_abi {
        name: "int"
        size: 4
        alignment: 4
      }
      name: "mException"
      access: private_access
    }
  }
  fields {
    basic_abi {
      type_abi {
        name: "int"
        size: 4
        alignment: 4
      }
      name: "mErrorCode"
      access: private_access
    }
  }
  fields {
    basic_abi {
      type_abi {
        name: "std::basic_string<char, std::char_traits<char>, std::allocator<char> >"
        size: 24
        alignment: 8
      }
      name: "mMessage"
      access: private_access
    }
  }
  source_file: "system/libhidl/base/include/hidl/Status.h"
  mangled_record_name: "_ZN7android8hardware6StatusE"
}
records {
  basic_abi {
    type_abi {
      name: "android::hardware::details::return_status"
      size: 40
      alignment: 8
    }
    name: "android::hardware::details::return_status"
    access: public_access
    linker_set_key: "_ZN7android8hardware7details13return_statusE"
  }
  fields {
    basic_abi {
      type_abi {
        name: "android::hardware::Status"
        size: 32
        alignment: 8
      }
      name: "mStatus"
      access: private_access
    }
  }
  fields {
    basic_abi {
      type_abi {
        name: "bool"
        size: 1
        alignment: 1
      }
      name: "mCheckedStatus"
      access: private_access
    }
  }
  source_file: "system/libhidl/base/include/hidl/Status.h"
  mangled_record_name: "_ZN7android8hardware7details13return_statusE"
}
records {
  basic_abi {
    type_abi {
      name: "Return<T>"
    }
    name: "android::hardware::Return"
    access: public_access
    linker_set_key: "_ZN7android8hardware6ReturnE"
  }
  fields {
    basic_abi {
      type_abi {
        name: "type-parameter-0-0"
      }
      name: "mVal"
      access: private_access
    }
  }
  base_specifiers {
    basic_abi {
      type_abi {
        name: "android::hardware::details::return_status"
        size: 40
        alignment: 8
      }
      name: ""
      access: public_access
    }
    is_virtual: false
  }
  source_file: "system/libhidl/base/include/hidl/Status.h"
  mangled_record_name: "_ZN7android8hardware6ReturnE"
}
records {
  basic_abi {
    type_abi {
      name: "Return<sp<type-parameter-0-0> >"
    }
    name: "android::hardware::Return"
    access: public_access
    linker_set_key: "_ZN7android8hardware6ReturnINS_2spIT_EEEE"
  }
  fields {
    basic_abi {
      type_abi {
        name: "sp<type-parameter-0-0>"
      }
      name: "mVal"
      access: private_access
    }
  }
  base_specifiers {
    basic_abi {
      type_abi {
        name: "android::hardware::details::return_status"
        size: 40
        alignment: 8
      }
      name: ""
      access: public_access
    }
    is_virtual: false
  }
  source_file: "system/libhidl/base/include/hidl/Status.h"
  template_info {
    elements {
      basic_abi {
        type_abi {
          name: "sp<type-parameter-0-0>"
        }
        linker_set_key: "sp<type-parameter-0-0>"
      }
    }
  }
  mangled_record_name: "_ZN7android8hardware6ReturnINS_2spIT_EEEE"
}
records {
  basic_abi {
    type_abi {
      name: "android::hardware::Return<void>"
      size: 40
      alignment: 8
    }
    name: "android::hardware::Return"
    access: public_access
    linker_set_key: "_ZN7android8hardware6ReturnIvEE"
  }
  base_specifiers {
    basic_abi {
      type_abi {
        name: "android::hardware::details::return_status"
        size: 40
        alignment: 8
      }
      name: ""
      access: public_access
    }
    is_virtual: false
  }
  source_file: "system/libhidl/base/include/hidl/Status.h"
  template_info {
    elements {
      basic_abi {
        type_abi {
          name: "void"
        }
        linker_set_key: "void"
      }
    }
  }
  mangled_record_name: "_ZN7android8hardware6ReturnIvEE"
}
records {
  basic_abi {
    type_abi {
      name: "android::hardware::hidl_death_recipient"
      size: 24
      alignment: 8
    }
    name: "android::hardware::hidl_death_recipient"
    access: public_access
    linker_set_key: "_ZN7android8hardware20hidl_death_recipientE"
  }
  base_specifiers {
    basic_abi {
      type_abi {
        name: "android::RefBase"
        size: 16
        alignment: 8
      }
      name: ""
      access: public_access
    }
    is_virtual: true
  }
  source_file: "system/libhidl/base/include/hidl/HidlSupport.h"
  mangled_record_name: "_ZN7android8hardware20hidl_death_recipientE"
  vtable_layout {
    vtable_components {
      kind: VBaseOffset
      mangled_component_name: ""
      value: 8
    }
    vtable_components {
      kind: OffsetToTop
      mangled_component_name: ""
      value: 0
    }
    vtable_components {
      kind: RTTI
      mangled_component_name: "_ZN7android8hardware20hidl_death_recipientE"
      value: 0
    }
    vtable_components {
      kind: FunctionPointer
      mangled_component_name: "_ZN7android8hardware20hidl_death_recipient11serviceDiedEmRKNS_2wpINS_4hidl4base4V1_05IBaseEEE"
      value: 0
    }
    vtable_components {
      kind: CompleteDtorPointer
      mangled_component_name: "_ZN7android8hardware20hidl_death_recipientD0Ev"
      value: 0
    }
    vtable_components {
      kind: UnusedFunctionPointer
      mangled_component_name: "_ZN7android8hardware20hidl_death_recipientD0Ev"
      value: 0
    }
    vtable_components {
      kind: VCallOffset
      mangled_component_name: ""
      value: 0
    }
    vtable_components {
      kind: VCallOffset
      mangled_component_name: ""
      value: 0
    }
    vtable_components {
      kind: VCallOffset
      mangled_component_name: ""
      value: 0
    }
    vtable_components {
      kind: VCallOffset
      mangled_component_name: ""
      value: 0
    }
    vtable_components {
      kind: VCallOffset
      mangled_component_name: ""
      value: 18446744073709551608
    }
    vtable_components {
      kind: OffsetToTop
      mangled_component_name: ""
      value: 18446744073709551608
    }
    vtable_components {
      kind: RTTI
      mangled_component_name: "_ZN7android8hardware20hidl_death_recipientE"
      value: 0
    }
    vtable_components {
      kind: CompleteDtorPointer
      mangled_component_name: "_ZN7android8hardware20hidl_death_recipientD0Ev"
      value: 0
    }
    vtable_components {
      kind: UnusedFunctionPointer
      mangled_component_name: "_ZN7android8hardware20hidl_death_recipientD0Ev"
      value: 0
    }
    vtable_components {
      kind: FunctionPointer
      mangled_component_name: "_ZN7android7RefBase10onFirstRefEv"
      value: 0
    }
    vtable_components {
      kind: FunctionPointer
      mangled_component_name: "_ZN7android7RefBase15onLastStrongRefEPKv"
      value: 0
    }
    vtable_components {
      kind: FunctionPointer
      mangled_component_name: "_ZN7android7RefBase20onIncStrongAttemptedEjPKv"
      value: 0
    }
    vtable_components {
      kind: FunctionPointer
      mangled_component_name: "_ZN7android7RefBase13onLastWeakRefEPKv"
      value: 0
    }
  }
}
records {
  basic_abi {
    type_abi {
      name: "android::hardware::hidl_handle"
      size: 16
      alignment: 8
    }
    name: "android::hardware::hidl_handle"
    access: public_access
    linker_set_key: "_ZN7android8hardware11hidl_handleE"
  }
  fields {
    basic_abi {
      type_abi {
        name: "android::hardware::details::hidl_pointer<const native_handle>"
        size: 8
        alignment: 8
      }
      name: "mHandle"
      access: private_access
    }
  }
  fields {
    basic_abi {
      type_abi {
        name: "bool"
        size: 1
        alignment: 1
      }
      name: "mOwnsHandle"
      access: private_access
    }
  }
  source_file: "system/libhidl/base/include/hidl/HidlSupport.h"
  mangled_record_name: "_ZN7android8hardware11hidl_handleE"
}
records {
  basic_abi {
    type_abi {
      name: "android::hardware::hidl_string"
      size: 16
      alignment: 8
    }
    name: "android::hardware::hidl_string"
    access: public_access
    linker_set_key: "_ZN7android8hardware11hidl_stringE"
  }
  fields {
    basic_abi {
      type_abi {
        name: "android::hardware::details::hidl_pointer<const char>"
        size: 8
        alignment: 8
      }
      name: "mBuffer"
      access: private_access
    }
  }
  fields {
    basic_abi {
      type_abi {
        name: "unsigned int"
        size: 4
        alignment: 4
      }
      name: "mSize"
      access: private_access
    }
  }
  fields {
    basic_abi {
      type_abi {
        name: "bool"
        size: 1
        alignment: 1
      }
      name: "mOwnsBuffer"
      access: private_access
    }
  }
  source_file: "system/libhidl/base/include/hidl/HidlSupport.h"
  mangled_record_name: "_ZN7android8hardware11hidl_stringE"
}
records {
  basic_abi {
    type_abi {
      name: "android::hardware::hidl_memory"
      size: 40
      alignment: 8
    }
    name: "android::hardware::hidl_memory"
    access: public_access
    linker_set_key: "_ZN7android8hardware11hidl_memoryE"
  }
  fields {
    basic_abi {
      type_abi {
        name: "android::hardware::hidl_handle"
        size: 16
        alignment: 8
      }
      name: "mHandle"
      access: private_access
    }
  }
  fields {
    basic_abi {
      type_abi {
        name: "unsigned long"
        size: 8
        alignment: 8
      }
      name: "mSize"
      access: private_access
    }
  }
  fields {
    basic_abi {
      type_abi {
        name: "android::hardware::hidl_string"
        size: 16
        alignment: 8
      }
      name: "mName"
      access: private_access
    }
  }
  source_file: "system/libhidl/base/include/hidl/HidlSupport.h"
  mangled_record_name: "_ZN7android8hardware11hidl_memoryE"
}
records {
  basic_abi {
    type_abi {
      name: "hidl_vec<T>"
    }
    name: "android::hardware::hidl_vec"
    access: public_access
    linker_set_key: "_ZN7android8hardware8hidl_vecE"
  }
  fields {
    basic_abi {
      type_abi {
        name: "hidl_pointer<type-parameter-0-0>"
      }
      name: "mBuffer"
      access: private_access
    }
  }
  fields {
    basic_abi {
      type_abi {
        name: "unsigned int"
        size: 4
        alignment: 4
      }
      name: "mSize"
      access: private_access
    }
  }
  fields {
    basic_abi {
      type_abi {
        name: "bool"
        size: 1
        alignment: 1
      }
      name: "mOwnsBuffer"
      access: private_access
    }
  }
  source_file: "system/libhidl/base/include/hidl/HidlSupport.h"
  mangled_record_name: "_ZN7android8hardware8hidl_vecE"
}
records {
  basic_abi {
    type_abi {
      name: "iter<is_const>"
    }
    name: "android::hardware::hidl_vec::iter"
    access: public_access
    linker_set_key: "_ZN7android8hardware8hidl_vec4iterE"
  }
  fields {
    basic_abi {
      type_abi {
        name: "typename iterator_traits<iter<is_const> >::pointer"
      }
      name: "mPtr"
      access: private_access
    }
  }
  base_specifiers {
    basic_abi {
      type_abi {
        name: "iterator<struct std::__1::random_access_iterator_tag, type-parameter-0-0, long, typename conditional<is_const, const type-parameter-0-0 *, type-parameter-0-0 *>::type, typename conditional<is_const, const type-parameter-0-0 &, type-parameter-0-0 &>::type>"
      }
      name: ""
      access: public_access
    }
    is_virtual: false
  }
  source_file: "system/libhidl/base/include/hidl/HidlSupport.h"
  mangled_record_name: "_ZN7android8hardware8hidl_vec4iterE"
}
records {
  basic_abi {
    type_abi {
      name: "product<SIZE1, SIZES...>"
    }
    name: "android::hardware::details::product"
    access: public_access
    linker_set_key: "_ZN7android8hardware7details7productE"
  }
  source_file: "system/libhidl/base/include/hidl/HidlSupport.h"
  mangled_record_name: "_ZN7android8hardware7details7productE"
}
records {
  basic_abi {
    type_abi {
      name: "product<SIZE1>"
    }
    name: "android::hardware::details::product"
    access: public_access
    linker_set_key: "_ZN7android8hardware7details7productIXT_EJEEE"
  }
  source_file: "system/libhidl/base/include/hidl/HidlSupport.h"
  template_info {
  }
  mangled_record_name: "_ZN7android8hardware7details7productIXT_EJEEE"
}
records {
  basic_abi {
    type_abi {
      name: "std_array<T, SIZE1, SIZES...>"
    }
    name: "android::hardware::details::std_array"
    access: public_access
    linker_set_key: "_ZN7android8hardware7details9std_arrayE"
  }
  source_file: "system/libhidl/base/include/hidl/HidlSupport.h"
  mangled_record_name: "_ZN7android8hardware7details9std_arrayE"
}
records {
  basic_abi {
    type_abi {
      name: "std_array<type-parameter-0-0, SIZE1>"
    }
    name: "android::hardware::details::std_array"
    access: public_access
    linker_set_key: "_ZN7android8hardware7details9std_arrayIT_XT0_EJEEE"
  }
  source_file: "system/libhidl/base/include/hidl/HidlSupport.h"
  template_info {
    elements {
      basic_abi {
        type_abi {
          name: "type-parameter-0-0"
        }
        linker_set_key: "type-parameter-0-0"
      }
    }
  }
  mangled_record_name: "_ZN7android8hardware7details9std_arrayIT_XT0_EJEEE"
}
records {
  basic_abi {
    type_abi {
      name: "accessor<T, SIZE1, SIZES...>"
    }
    name: "android::hardware::details::accessor"
    access: public_access
    linker_set_key: "_ZN7android8hardware7details8accessorE"
  }
  fields {
    basic_abi {
      type_abi {
        name: "type-parameter-0-0 *"
      }
      name: "mBase"
      access: private_access
    }
  }
  source_file: "system/libhidl/base/include/hidl/HidlSupport.h"
  mangled_record_name: "_ZN7android8hardware7details8accessorE"
}
records {
  basic_abi {
    type_abi {
      name: "accessor<type-parameter-0-0, SIZE1>"
    }
    name: "android::hardware::details::accessor"
    access: public_access
    linker_set_key: "_ZN7android8hardware7details8accessorIT_XT0_EJEEE"
  }
  fields {
    basic_abi {
      type_abi {
        name: "type-parameter-0-0 *"
      }
      name: "mBase"
      access: private_access
    }
  }
  source_file: "system/libhidl/base/include/hidl/HidlSupport.h"
  template_info {
    elements {
      basic_abi {
        type_abi {
          name: "type-parameter-0-0"
        }
        linker_set_key: "type-parameter-0-0"
      }
    }
  }
  mangled_record_name: "_ZN7android8hardware7details8accessorIT_XT0_EJEEE"
}
records {
  basic_abi {
    type_abi {
      name: "const_accessor<T, SIZE1, SIZES...>"
    }
    name: "android::hardware::details::const_accessor"
    access: public_access
    linker_set_key: "_ZN7android8hardware7details14const_accessorE"
  }
  fields {
    basic_abi {
      type_abi {
        name: "const type-parameter-0-0 *"
      }
      name: "mBase"
      access: private_access
    }
  }
  source_file: "system/libhidl/base/include/hidl/HidlSupport.h"
  mangled_record_name: "_ZN7android8hardware7details14const_accessorE"
}
records {
  basic_abi {
    type_abi {
      name: "const_accessor<type-parameter-0-0, SIZE1>"
    }
    name: "android::hardware::details::const_accessor"
    access: public_access
    linker_set_key: "_ZN7android8hardware7details14const_accessorIT_XT0_EJEEE"
  }
  fields {
    basic_abi {
      type_abi {
        name: "const type-parameter-0-0 *"
      }
      name: "mBase"
      access: private_access
    }
  }
  source_file: "system/libhidl/base/include/hidl/HidlSupport.h"
  template_info {
    elements {
      basic_abi {
        type_abi {
          name: "type-parameter-0-0"
        }
        linker_set_key: "type-parameter-0-0"
      }
    }
  }
  mangled_record_name: "_ZN7android8hardware7details14const_accessorIT_XT0_EJEEE"
}
records {
  basic_abi {
    type_abi {
      name: "hidl_array<T, SIZE1, SIZES...>"
    }
    name: "android::hardware::hidl_array"
    access: public_access
    linker_set_key: "_ZN7android8hardware10hidl_arrayE"
  }
  fields {
    basic_abi {
      type_abi {
        name: "type-parameter-0-0 [elementCount()]"
      }
      name: "mBuffer"
      access: private_access
    }
  }
  source_file: "system/libhidl/base/include/hidl/HidlSupport.h"
  mangled_record_name: "_ZN7android8hardware10hidl_arrayE"
}
records {
  basic_abi {
    type_abi {
      name: "hidl_array<type-parameter-0-0, SIZE1>"
    }
    name: "android::hardware::hidl_array"
    access: public_access
    linker_set_key: "_ZN7android8hardware10hidl_arrayIT_XT0_EJEEE"
  }
  fields {
    basic_abi {
      type_abi {
        name: "type-parameter-0-0 [_Np]"
      }
      name: "mBuffer"
      access: private_access
    }
  }
  source_file: "system/libhidl/base/include/hidl/HidlSupport.h"
  template_info {
    elements {
      basic_abi {
        type_abi {
          name: "type-parameter-0-0"
        }
        linker_set_key: "type-parameter-0-0"
      }
    }
  }
  mangled_record_name: "_ZN7android8hardware10hidl_arrayIT_XT0_EJEEE"
}
records {
  basic_abi {
    type_abi {
      name: "android::hardware::hidl_version"
      size: 4
      alignment: 2
    }
    name: "android::hardware::hidl_version"
    access: public_access
    linker_set_key: "_ZN7android8hardware12hidl_versionE"
  }
  fields {
    basic_abi {
      type_abi {
        name: "unsigned short"
        size: 2
        alignment: 2
      }
      name: "mMajor"
      access: private_access
    }
  }
  fields {
    basic_abi {
      type_abi {
        name: "unsigned short"
        size: 2
        alignment: 2
      }
      name: "mMinor"
      access: private_access
    }
  }
  source_file: "system/libhidl/base/include/hidl/HidlSupport.h"
  mangled_record_name: "_ZN7android8hardware12hidl_versionE"
}
records {
  basic_abi {
    type_abi {
      name: "SynchronizedQueue<T>"
    }
    name: "android::hardware::details::SynchronizedQueue"
    access: public_access
    linker_set_key: "_ZN7android8hardware7details17SynchronizedQueueE"
  }
  fields {
    basic_abi {
      type_abi {
        name: "std::condition_variable"
        size: 48
        alignment: 4
      }
      name: "mCondition"
      access: private_access
    }
  }
  fields {
    basic_abi {
      type_abi {
        name: "std::mutex"
        size: 40
        alignment: 4
      }
      name: "mMutex"
      access: private_access
    }
  }
  fields {
    basic_abi {
      type_abi {
        name: "queue<type-parameter-0-0, deque<type-parameter-0-0, allocator<type-parameter-0-0> > >"
      }
      name: "mQueue"
      access: private_access
    }
  }
  fields {
    basic_abi {
      type_abi {
        name: "const unsigned long"
        size: 8
        alignment: 8
      }
      name: "mQueueLimit"
      access: private_access
    }
  }
  source_file: "system/libhidl/base/include/hidl/SynchronizedQueue.h"
  mangled_record_name: "_ZN7android8hardware7details17SynchronizedQueueE"
}
records {
  basic_abi {
    type_abi {
      name: "android::hardware::details::SynchronizedQueue<std::function<void ()> >"
      size: 144
      alignment: 8
    }
    name: "android::hardware::details::SynchronizedQueue"
    access: public_access
    linker_set_key: "_ZN7android8hardware7details17SynchronizedQueueINSt3__18functionIFvvEEEEE"
  }
  fields {
    basic_abi {
      type_abi {
        name: "std::condition_variable"
        size: 48
        alignment: 4
      }
      name: "mCondition"
      access: private_access
    }
  }
  fields {
    basic_abi {
      type_abi {
        name: "std::mutex"
        size: 40
        alignment: 4
      }
      name: "mMutex"
      access: private_access
    }
  }
  fields {
    basic_abi {
      type_abi {
        name: "std::queue<std::function<void ()>, std::deque<std::function<void ()>, std::allocator<std::function<void ()> > > >"
        size: 48
        alignment: 8
      }
      name: "mQueue"
      access: private_access
    }
  }
  fields {
    basic_abi {
      type_abi {
        name: "const unsigned long"
        size: 8
        alignment: 8
      }
      name: "mQueueLimit"
      access: private_access
    }
  }
  source_file: "system/libhidl/base/include/hidl/SynchronizedQueue.h"
  template_info {
    elements {
      basic_abi {
        type_abi {
          name: "std::function<void ()>"
          size: 48
          alignment: 16
        }
        linker_set_key: "std::function<void ()>"
      }
    }
  }
  mangled_record_name: "_ZN7android8hardware7details17SynchronizedQueueINSt3__18functionIFvvEEEEE"
}
records {
  basic_abi {
    type_abi {
      name: "android::hardware::details::TaskRunner"
      size: 16
      alignment: 8
    }
    name: "android::hardware::details::TaskRunner"
    access: public_access
    linker_set_key: "_ZN7android8hardware7details10TaskRunnerE"
  }
  fields {
    basic_abi {
      type_abi {
        name: "std::shared_ptr<android::hardware::details::SynchronizedQueue<std::function<void ()> > >"
        size: 16
        alignment: 8
      }
      name: "mQueue"
      access: private_access
    }
  }
  source_file: "system/libhidl/base/include/hidl/TaskRunner.h"
  mangled_record_name: "_ZN7android8hardware7details10TaskRunnerE"
}
functions {
  basic_abi {
    type_abi {
      name: "void"
    }
    name: "android::hardware::details::logAlwaysFatal"
    access: public_access
    linker_set_key: "_ZN7android8hardware7details14logAlwaysFatalEPKc"
  }
  mangled_function_name: "_ZN7android8hardware7details14logAlwaysFatalEPKc"
  source_file: "system/libhidl/base/include/hidl/HidlInternal.h"
  parameters {
    basic_abi {
      type_abi {
        name: "const char *"
        size: 8
        alignment: 8
      }
      name: "message"
      access: public_access
      linker_set_key: "false"
    }
    default_arg: false
  }
}
functions {
  basic_abi {
    type_abi {
      name: "void"
    }
    name: "android::hardware::details::hidl_pointer::hidl_pointer<T>"
    access: public_access
    linker_set_key: "_ZN7android8hardware7details12hidl_pointerC1Ev"
  }
  mangled_function_name: "_ZN7android8hardware7details12hidl_pointerC1Ev"
  source_file: "system/libhidl/base/include/hidl/HidlInternal.h"
}
functions {
  basic_abi {
    type_abi {
      name: "void"
    }
    name: "android::hardware::details::hidl_pointer::hidl_pointer<T>"
    access: public_access
    linker_set_key: "_ZN7android8hardware7details12hidl_pointerC1EPT_"
  }
  mangled_function_name: "_ZN7android8hardware7details12hidl_pointerC1EPT_"
  source_file: "system/libhidl/base/include/hidl/HidlInternal.h"
  parameters {
    basic_abi {
      type_abi {
        name: "type-parameter-0-0 *"
      }
      name: "ptr"
      access: public_access
      linker_set_key: "false"
    }
    default_arg: false
  }
}
functions {
  basic_abi {
    type_abi {
      name: "void"
    }
    name: "android::hardware::details::hidl_pointer::hidl_pointer<T>"
    access: public_access
    linker_set_key: "_ZN7android8hardware7details12hidl_pointerC1ERKNS1_12hidl_pointerIT_EE"
  }
  mangled_function_name: "_ZN7android8hardware7details12hidl_pointerC1ERKNS1_12hidl_pointerIT_EE"
  source_file: "system/libhidl/base/include/hidl/HidlInternal.h"
  parameters {
    basic_abi {
      type_abi {
        name: "const hidl_pointer<T> &"
      }
      name: "other"
      access: public_access
      linker_set_key: "false"
    }
    default_arg: false
  }
}
functions {
  basic_abi {
    type_abi {
      name: "void"
    }
    name: "android::hardware::details::hidl_pointer::hidl_pointer<T>"
    access: public_access
    linker_set_key: "_ZN7android8hardware7details12hidl_pointerC1EONS1_12hidl_pointerIT_EE"
  }
  mangled_function_name: "_ZN7android8hardware7details12hidl_pointerC1EONS1_12hidl_pointerIT_EE"
  source_file: "system/libhidl/base/include/hidl/HidlInternal.h"
  parameters {
    basic_abi {
      type_abi {
        name: "hidl_pointer<T> &&"
      }
      name: "other"
      access: public_access
      linker_set_key: "false"
    }
    default_arg: false
  }
}
functions {
  basic_abi {
    type_abi {
      name: "hidl_pointer<T> &"
    }
    name: "android::hardware::details::hidl_pointer::operator="
    access: public_access
    linker_set_key: "_ZN7android8hardware7details12hidl_pointeraSERKNS1_12hidl_pointerIT_EE"
  }
  mangled_function_name: "_ZN7android8hardware7details12hidl_pointeraSERKNS1_12hidl_pointerIT_EE"
  source_file: "system/libhidl/base/include/hidl/HidlInternal.h"
  parameters {
    basic_abi {
      type_abi {
        name: "const hidl_pointer<T> &"
      }
      name: "other"
      access: public_access
      linker_set_key: "false"
    }
    default_arg: false
  }
}
functions {
  basic_abi {
    type_abi {
      name: "hidl_pointer<T> &"
    }
    name: "android::hardware::details::hidl_pointer::operator="
    access: public_access
    linker_set_key: "_ZN7android8hardware7details12hidl_pointeraSEONS1_12hidl_pointerIT_EE"
  }
  mangled_function_name: "_ZN7android8hardware7details12hidl_pointeraSEONS1_12hidl_pointerIT_EE"
  source_file: "system/libhidl/base/include/hidl/HidlInternal.h"
  parameters {
    basic_abi {
      type_abi {
        name: "hidl_pointer<T> &&"
      }
      name: "other"
      access: public_access
      linker_set_key: "false"
    }
    default_arg: false
  }
}
functions {
  basic_abi {
    type_abi {
      name: "hidl_pointer<T> &"
    }
    name: "android::hardware::details::hidl_pointer::operator="
    access: public_access
    linker_set_key: "_ZN7android8hardware7details12hidl_pointeraSEPT_"
  }
  mangled_function_name: "_ZN7android8hardware7details12hidl_pointeraSEPT_"
  source_file: "system/libhidl/base/include/hidl/HidlInternal.h"
  parameters {
    basic_abi {
      type_abi {
        name: "type-parameter-0-0 *"
      }
      name: "ptr"
      access: public_access
      linker_set_key: "false"
    }
    default_arg: false
  }
}
functions {
  basic_abi {
    type_abi {
      name: "type-parameter-0-0 *"
    }
    name: "android::hardware::details::hidl_pointer::operator type-parameter-0-0 *"
    access: public_access
    linker_set_key: "_ZNK7android8hardware7details12hidl_pointercvPT_Ev"
  }
  mangled_function_name: "_ZNK7android8hardware7details12hidl_pointercvPT_Ev"
  source_file: "system/libhidl/base/include/hidl/HidlInternal.h"
}
functions {
  basic_abi {
    type_abi {
      name: "void *"
      size: 8
      alignment: 8
    }
    name: "android::hardware::details::hidl_pointer::operator void *"
    access: public_access
    linker_set_key: "_ZNK7android8hardware7details12hidl_pointercvPvEv"
  }
  mangled_function_name: "_ZNK7android8hardware7details12hidl_pointercvPvEv"
  source_file: "system/libhidl/base/include/hidl/HidlInternal.h"
}
functions {
  basic_abi {
    type_abi {
      name: "type-parameter-0-0 &"
    }
    name: "android::hardware::details::hidl_pointer::operator*"
    access: public_access
    linker_set_key: "_ZNK7android8hardware7details12hidl_pointerdeEv"
  }
  mangled_function_name: "_ZNK7android8hardware7details12hidl_pointerdeEv"
  source_file: "system/libhidl/base/include/hidl/HidlInternal.h"
}
functions {
  basic_abi {
    type_abi {
      name: "type-parameter-0-0 *"
    }
    name: "android::hardware::details::hidl_pointer::operator->"
    access: public_access
    linker_set_key: "_ZNK7android8hardware7details12hidl_pointerptEv"
  }
  mangled_function_name: "_ZNK7android8hardware7details12hidl_pointerptEv"
  source_file: "system/libhidl/base/include/hidl/HidlInternal.h"
}
functions {
  basic_abi {
    type_abi {
      name: "type-parameter-0-0 &"
    }
    name: "android::hardware::details::hidl_pointer::operator[]"
    access: public_access
    linker_set_key: "_ZN7android8hardware7details12hidl_pointerixEm"
  }
  mangled_function_name: "_ZN7android8hardware7details12hidl_pointerixEm"
  source_file: "system/libhidl/base/include/hidl/HidlInternal.h"
  parameters {
    basic_abi {
      type_abi {
        name: "unsigned long"
        size: 8
        alignment: 8
      }
      name: "index"
      access: public_access
      linker_set_key: "false"
    }
    default_arg: false
  }
}
functions {
  basic_abi {
    type_abi {
      name: "const type-parameter-0-0 &"
    }
    name: "android::hardware::details::hidl_pointer::operator[]"
    access: public_access
    linker_set_key: "_ZNK7android8hardware7details12hidl_pointerixEm"
  }
  mangled_function_name: "_ZNK7android8hardware7details12hidl_pointerixEm"
  source_file: "system/libhidl/base/include/hidl/HidlInternal.h"
  parameters {
    basic_abi {
      type_abi {
        name: "unsigned long"
        size: 8
        alignment: 8
      }
      name: "index"
      access: public_access
      linker_set_key: "false"
    }
    default_arg: false
  }
}
functions {
  basic_abi {
    type_abi {
      name: "void"
    }
    name: "android::hardware::details::HidlInstrumentor::HidlInstrumentor"
    access: public_access
    linker_set_key: "_ZN7android8hardware7details16HidlInstrumentorC1ERKNSt3__112basic_stringIcNS3_11char_traitsIcEENS3_9allocatorIcEEEESB_"
  }
  mangled_function_name: "_ZN7android8hardware7details16HidlInstrumentorC1ERKNSt3__112basic_stringIcNS3_11char_traitsIcEENS3_9allocatorIcEEEESB_"
  source_file: "system/libhidl/base/include/hidl/HidlInternal.h"
  parameters {
    basic_abi {
      type_abi {
        name: "const std::basic_string<char, std::char_traits<char>, std::allocator<char> > &"
        size: 8
        alignment: 8
      }
      name: "package"
      access: public_access
      linker_set_key: "false"
    }
    default_arg: false
  }
  parameters {
    basic_abi {
      type_abi {
        name: "const std::basic_string<char, std::char_traits<char>, std::allocator<char> > &"
        size: 8
        alignment: 8
      }
      name: "insterface"
      access: public_access
      linker_set_key: "false"
    }
    default_arg: false
  }
}
functions {
  basic_abi {
    type_abi {
      name: "void"
    }
    name: "android::hardware::details::HidlInstrumentor::~HidlInstrumentor"
    access: public_access
    linker_set_key: "_ZN7android8hardware7details16HidlInstrumentorD0Ev"
  }
  mangled_function_name: "_ZN7android8hardware7details16HidlInstrumentorD0Ev"
  source_file: "system/libhidl/base/include/hidl/HidlInternal.h"
}
functions {
  basic_abi {
    type_abi {
      name: "void"
    }
    name: "android::hardware::details::HidlInstrumentor::configureInstrumentation"
    access: protected_access
    linker_set_key: "_ZN7android8hardware7details16HidlInstrumentor24configureInstrumentationEb"
  }
  mangled_function_name: "_ZN7android8hardware7details16HidlInstrumentor24configureInstrumentationEb"
  source_file: "system/libhidl/base/include/hidl/HidlInternal.h"
  parameters {
    basic_abi {
      type_abi {
        name: "bool"
        size: 1
        alignment: 1
      }
      name: "log"
      access: public_access
      linker_set_key: "true"
    }
    default_arg: true
  }
}
functions {
  basic_abi {
    type_abi {
      name: "void"
    }
    name: "android::hardware::details::HidlInstrumentor::registerInstrumentationCallbacks"
    access: protected_access
    linker_set_key: "_ZN7android8hardware7details16HidlInstrumentor32registerInstrumentationCallbacksEPNSt3__16vectorINS3_8functionIFvNS2_20InstrumentationEventEPKcS8_S8_S8_PNS4_IPvNS3_9allocatorIS9_EEEEEEENSA_ISF_EEEE"
  }
  mangled_function_name: "_ZN7android8hardware7details16HidlInstrumentor32registerInstrumentationCallbacksEPNSt3__16vectorINS3_8functionIFvNS2_20InstrumentationEventEPKcS8_S8_S8_PNS4_IPvNS3_9allocatorIS9_EEEEEEENSA_ISF_EEEE"
  source_file: "system/libhidl/base/include/hidl/HidlInternal.h"
  parameters {
    basic_abi {
      type_abi {
        name: "std::vector<std::function<void (InstrumentationEvent, const char *, const char *, const char *, const char *, vector<void *, allocator<void *> > *)>, std::allocator<std::function<void (InstrumentationEvent, const char *, const char *, const char *, const char *, vector<void *, allocator<void *> > *)> > > *"
        size: 8
        alignment: 8
      }
      name: "instrumentationCallbacks"
      access: public_access
      linker_set_key: "false"
    }
    default_arg: false
  }
}
functions {
  basic_abi {
    type_abi {
      name: "bool"
      size: 1
      alignment: 1
    }
    name: "android::hardware::details::HidlInstrumentor::isInstrumentationLib"
    access: protected_access
    linker_set_key: "_ZN7android8hardware7details16HidlInstrumentor20isInstrumentationLibEPK6dirent"
  }
  mangled_function_name: "_ZN7android8hardware7details16HidlInstrumentor20isInstrumentationLibEPK6dirent"
  source_file: "system/libhidl/base/include/hidl/HidlInternal.h"
  parameters {
    basic_abi {
      type_abi {
        name: "const dirent *"
        size: 8
        alignment: 8
      }
      name: "file"
      access: public_access
      linker_set_key: "false"
    }
    default_arg: false
  }
}
functions {
  basic_abi {
    type_abi {
      name: "void"
    }
    name: "android::hardware::details::hidl_pointer<const native_handle>::hidl_pointer"
    access: public_access
    linker_set_key: "_ZN7android8hardware7details12hidl_pointerIK13native_handleEC1Ev"
  }
  mangled_function_name: "_ZN7android8hardware7details12hidl_pointerIK13native_handleEC1Ev"
  source_file: "system/libhidl/base/include/hidl/HidlInternal.h"
}
functions {
  basic_abi {
    type_abi {
      name: "void"
    }
    name: "android::hardware::details::hidl_pointer<const native_handle>::hidl_pointer"
    access: public_access
    linker_set_key: "_ZN7android8hardware7details12hidl_pointerIK13native_handleEC1EPS4_"
  }
  mangled_function_name: "_ZN7android8hardware7details12hidl_pointerIK13native_handleEC1EPS4_"
  source_file: "system/libhidl/base/include/hidl/HidlInternal.h"
  parameters {
    basic_abi {
      type_abi {
        name: "const native_handle *"
        size: 8
        alignment: 8
      }
      name: "ptr"
      access: public_access
      linker_set_key: "false"
    }
    default_arg: false
  }
}
functions {
  basic_abi {
    type_abi {
      name: "void"
    }
    name: "android::hardware::details::hidl_pointer<const native_handle>::hidl_pointer"
    access: public_access
    linker_set_key: "_ZN7android8hardware7details12hidl_pointerIK13native_handleEC1ERKS5_"
  }
  mangled_function_name: "_ZN7android8hardware7details12hidl_pointerIK13native_handleEC1ERKS5_"
  source_file: "system/libhidl/base/include/hidl/HidlInternal.h"
  parameters {
    basic_abi {
      type_abi {
        name: "const android::hardware::details::hidl_pointer<const native_handle> &"
        size: 8
        alignment: 8
      }
      name: "other"
      access: public_access
      linker_set_key: "false"
    }
    default_arg: false
  }
}
functions {
  basic_abi {
    type_abi {
      name: "void"
    }
    name: "android::hardware::details::hidl_pointer<const native_handle>::hidl_pointer"
    access: public_access
    linker_set_key: "_ZN7android8hardware7details12hidl_pointerIK13native_handleEC1EOS5_"
  }
  mangled_function_name: "_ZN7android8hardware7details12hidl_pointerIK13native_handleEC1EOS5_"
  source_file: "system/libhidl/base/include/hidl/HidlInternal.h"
  parameters {
    basic_abi {
      type_abi {
        name: "android::hardware::details::hidl_pointer<const native_handle> &&"
        size: 8
        alignment: 8
      }
      name: "other"
      access: public_access
      linker_set_key: "false"
    }
    default_arg: false
  }
}
functions {
  basic_abi {
    type_abi {
      name: "android::hardware::details::hidl_pointer<const native_handle> &"
      size: 8
      alignment: 8
    }
    name: "android::hardware::details::hidl_pointer<const native_handle>::operator="
    access: public_access
    linker_set_key: "_ZN7android8hardware7details12hidl_pointerIK13native_handleEaSERKS5_"
  }
  mangled_function_name: "_ZN7android8hardware7details12hidl_pointerIK13native_handleEaSERKS5_"
  source_file: "system/libhidl/base/include/hidl/HidlInternal.h"
  parameters {
    basic_abi {
      type_abi {
        name: "const android::hardware::details::hidl_pointer<const native_handle> &"
        size: 8
        alignment: 8
      }
      name: "other"
      access: public_access
      linker_set_key: "false"
    }
    default_arg: false
  }
}
functions {
  basic_abi {
    type_abi {
      name: "android::hardware::details::hidl_pointer<const native_handle> &"
      size: 8
      alignment: 8
    }
    name: "android::hardware::details::hidl_pointer<const native_handle>::operator="
    access: public_access
    linker_set_key: "_ZN7android8hardware7details12hidl_pointerIK13native_handleEaSEOS5_"
  }
  mangled_function_name: "_ZN7android8hardware7details12hidl_pointerIK13native_handleEaSEOS5_"
  source_file: "system/libhidl/base/include/hidl/HidlInternal.h"
  parameters {
    basic_abi {
      type_abi {
        name: "android::hardware::details::hidl_pointer<const native_handle> &&"
        size: 8
        alignment: 8
      }
      name: "other"
      access: public_access
      linker_set_key: "false"
    }
    default_arg: false
  }
}
functions {
  basic_abi {
    type_abi {
      name: "android::hardware::details::hidl_pointer<const native_handle> &"
      size: 8
      alignment: 8
    }
    name: "android::hardware::details::hidl_pointer<const native_handle>::operator="
    access: public_access
    linker_set_key: "_ZN7android8hardware7details12hidl_pointerIK13native_handleEaSEPS4_"
  }
  mangled_function_name: "_ZN7android8hardware7details12hidl_pointerIK13native_handleEaSEPS4_"
  source_file: "system/libhidl/base/include/hidl/HidlInternal.h"
  parameters {
    basic_abi {
      type_abi {
        name: "const native_handle *"
        size: 8
        alignment: 8
      }
      name: "ptr"
      access: public_access
      linker_set_key: "false"
    }
    default_arg: false
  }
}
functions {
  basic_abi {
    type_abi {
      name: "const native_handle *"
      size: 8
      alignment: 8
    }
    name: "android::hardware::details::hidl_pointer<const native_handle>::operator const native_handle *"
    access: public_access
    linker_set_key: "_ZNK7android8hardware7details12hidl_pointerIK13native_handleEcvPS4_Ev"
  }
  mangled_function_name: "_ZNK7android8hardware7details12hidl_pointerIK13native_handleEcvPS4_Ev"
  source_file: "system/libhidl/base/include/hidl/HidlInternal.h"
}
functions {
  basic_abi {
    type_abi {
      name: "void *"
      size: 8
      alignment: 8
    }
    name: "android::hardware::details::hidl_pointer<const native_handle>::operator void *"
    access: public_access
    linker_set_key: "_ZNK7android8hardware7details12hidl_pointerIK13native_handleEcvPvEv"
  }
  mangled_function_name: "_ZNK7android8hardware7details12hidl_pointerIK13native_handleEcvPvEv"
  source_file: "system/libhidl/base/include/hidl/HidlInternal.h"
}
functions {
  basic_abi {
    type_abi {
      name: "const native_handle &"
      size: 8
      alignment: 8
    }
    name: "android::hardware::details::hidl_pointer<const native_handle>::operator*"
    access: public_access
    linker_set_key: "_ZNK7android8hardware7details12hidl_pointerIK13native_handleEdeEv"
  }
  mangled_function_name: "_ZNK7android8hardware7details12hidl_pointerIK13native_handleEdeEv"
  source_file: "system/libhidl/base/include/hidl/HidlInternal.h"
}
functions {
  basic_abi {
    type_abi {
      name: "const native_handle *"
      size: 8
      alignment: 8
    }
    name: "android::hardware::details::hidl_pointer<const native_handle>::operator->"
    access: public_access
    linker_set_key: "_ZNK7android8hardware7details12hidl_pointerIK13native_handleEptEv"
  }
  mangled_function_name: "_ZNK7android8hardware7details12hidl_pointerIK13native_handleEptEv"
  source_file: "system/libhidl/base/include/hidl/HidlInternal.h"
}
functions {
  basic_abi {
    type_abi {
      name: "const native_handle &"
      size: 8
      alignment: 8
    }
    name: "android::hardware::details::hidl_pointer<const native_handle>::operator[]"
    access: public_access
    linker_set_key: "_ZN7android8hardware7details12hidl_pointerIK13native_handleEixEm"
  }
  mangled_function_name: "_ZN7android8hardware7details12hidl_pointerIK13native_handleEixEm"
  source_file: "system/libhidl/base/include/hidl/HidlInternal.h"
  parameters {
    basic_abi {
      type_abi {
        name: "unsigned long"
        size: 8
        alignment: 8
      }
      name: "index"
      access: public_access
      linker_set_key: "false"
    }
    default_arg: false
  }
}
functions {
  basic_abi {
    type_abi {
      name: "const native_handle &"
      size: 8
      alignment: 8
    }
    name: "android::hardware::details::hidl_pointer<const native_handle>::operator[]"
    access: public_access
    linker_set_key: "_ZNK7android8hardware7details12hidl_pointerIK13native_handleEixEm"
  }
  mangled_function_name: "_ZNK7android8hardware7details12hidl_pointerIK13native_handleEixEm"
  source_file: "system/libhidl/base/include/hidl/HidlInternal.h"
  parameters {
    basic_abi {
      type_abi {
        name: "unsigned long"
        size: 8
        alignment: 8
      }
      name: "index"
      access: public_access
      linker_set_key: "false"
    }
    default_arg: false
  }
}
functions {
  basic_abi {
    type_abi {
      name: "void"
    }
    name: "android::hardware::details::hidl_pointer<const char>::hidl_pointer"
    access: public_access
    linker_set_key: "_ZN7android8hardware7details12hidl_pointerIKcEC1Ev"
  }
  mangled_function_name: "_ZN7android8hardware7details12hidl_pointerIKcEC1Ev"
  source_file: "system/libhidl/base/include/hidl/HidlInternal.h"
}
functions {
  basic_abi {
    type_abi {
      name: "void"
    }
    name: "android::hardware::details::hidl_pointer<const char>::hidl_pointer"
    access: public_access
    linker_set_key: "_ZN7android8hardware7details12hidl_pointerIKcEC1EPS3_"
  }
  mangled_function_name: "_ZN7android8hardware7details12hidl_pointerIKcEC1EPS3_"
  source_file: "system/libhidl/base/include/hidl/HidlInternal.h"
  parameters {
    basic_abi {
      type_abi {
        name: "const char *"
        size: 8
        alignment: 8
      }
      name: "ptr"
      access: public_access
      linker_set_key: "false"
    }
    default_arg: false
  }
}
functions {
  basic_abi {
    type_abi {
      name: "void"
    }
    name: "android::hardware::details::hidl_pointer<const char>::hidl_pointer"
    access: public_access
    linker_set_key: "_ZN7android8hardware7details12hidl_pointerIKcEC1ERKS4_"
  }
  mangled_function_name: "_ZN7android8hardware7details12hidl_pointerIKcEC1ERKS4_"
  source_file: "system/libhidl/base/include/hidl/HidlInternal.h"
  parameters {
    basic_abi {
      type_abi {
        name: "const android::hardware::details::hidl_pointer<const char> &"
        size: 8
        alignment: 8
      }
      name: "other"
      access: public_access
      linker_set_key: "false"
    }
    default_arg: false
  }
}
functions {
  basic_abi {
    type_abi {
      name: "void"
    }
    name: "android::hardware::details::hidl_pointer<const char>::hidl_pointer"
    access: public_access
    linker_set_key: "_ZN7android8hardware7details12hidl_pointerIKcEC1EOS4_"
  }
  mangled_function_name: "_ZN7android8hardware7details12hidl_pointerIKcEC1EOS4_"
  source_file: "system/libhidl/base/include/hidl/HidlInternal.h"
  parameters {
    basic_abi {
      type_abi {
        name: "android::hardware::details::hidl_pointer<const char> &&"
        size: 8
        alignment: 8
      }
      name: "other"
      access: public_access
      linker_set_key: "false"
    }
    default_arg: false
  }
}
functions {
  basic_abi {
    type_abi {
      name: "android::hardware::details::hidl_pointer<const char> &"
      size: 8
      alignment: 8
    }
    name: "android::hardware::details::hidl_pointer<const char>::operator="
    access: public_access
    linker_set_key: "_ZN7android8hardware7details12hidl_pointerIKcEaSERKS4_"
  }
  mangled_function_name: "_ZN7android8hardware7details12hidl_pointerIKcEaSERKS4_"
  source_file: "system/libhidl/base/include/hidl/HidlInternal.h"
  parameters {
    basic_abi {
      type_abi {
        name: "const android::hardware::details::hidl_pointer<const char> &"
        size: 8
        alignment: 8
      }
      name: "other"
      access: public_access
      linker_set_key: "false"
    }
    default_arg: false
  }
}
functions {
  basic_abi {
    type_abi {
      name: "android::hardware::details::hidl_pointer<const char> &"
      size: 8
      alignment: 8
    }
    name: "android::hardware::details::hidl_pointer<const char>::operator="
    access: public_access
    linker_set_key: "_ZN7android8hardware7details12hidl_pointerIKcEaSEOS4_"
  }
  mangled_function_name: "_ZN7android8hardware7details12hidl_pointerIKcEaSEOS4_"
  source_file: "system/libhidl/base/include/hidl/HidlInternal.h"
  parameters {
    basic_abi {
      type_abi {
        name: "android::hardware::details::hidl_pointer<const char> &&"
        size: 8
        alignment: 8
      }
      name: "other"
      access: public_access
      linker_set_key: "false"
    }
    default_arg: false
  }
}
functions {
  basic_abi {
    type_abi {
      name: "android::hardware::details::hidl_pointer<const char> &"
      size: 8
      alignment: 8
    }
    name: "android::hardware::details::hidl_pointer<const char>::operator="
    access: public_access
    linker_set_key: "_ZN7android8hardware7details12hidl_pointerIKcEaSEPS3_"
  }
  mangled_function_name: "_ZN7android8hardware7details12hidl_pointerIKcEaSEPS3_"
  source_file: "system/libhidl/base/include/hidl/HidlInternal.h"
  parameters {
    basic_abi {
      type_abi {
        name: "const char *"
        size: 8
        alignment: 8
      }
      name: "ptr"
      access: public_access
      linker_set_key: "false"
    }
    default_arg: false
  }
}
functions {
  basic_abi {
    type_abi {
      name: "const char *"
      size: 8
      alignment: 8
    }
    name: "android::hardware::details::hidl_pointer<const char>::operator const char *"
    access: public_access
    linker_set_key: "_ZNK7android8hardware7details12hidl_pointerIKcEcvPS3_Ev"
  }
  mangled_function_name: "_ZNK7android8hardware7details12hidl_pointerIKcEcvPS3_Ev"
  source_file: "system/libhidl/base/include/hidl/HidlInternal.h"
}
functions {
  basic_abi {
    type_abi {
      name: "void *"
      size: 8
      alignment: 8
    }
    name: "android::hardware::details::hidl_pointer<const char>::operator void *"
    access: public_access
    linker_set_key: "_ZNK7android8hardware7details12hidl_pointerIKcEcvPvEv"
  }
  mangled_function_name: "_ZNK7android8hardware7details12hidl_pointerIKcEcvPvEv"
  source_file: "system/libhidl/base/include/hidl/HidlInternal.h"
}
functions {
  basic_abi {
    type_abi {
      name: "const char &"
      size: 8
      alignment: 8
    }
    name: "android::hardware::details::hidl_pointer<const char>::operator*"
    access: public_access
    linker_set_key: "_ZNK7android8hardware7details12hidl_pointerIKcEdeEv"
  }
  mangled_function_name: "_ZNK7android8hardware7details12hidl_pointerIKcEdeEv"
  source_file: "system/libhidl/base/include/hidl/HidlInternal.h"
}
functions {
  basic_abi {
    type_abi {
      name: "const char *"
      size: 8
      alignment: 8
    }
    name: "android::hardware::details::hidl_pointer<const char>::operator->"
    access: public_access
    linker_set_key: "_ZNK7android8hardware7details12hidl_pointerIKcEptEv"
  }
  mangled_function_name: "_ZNK7android8hardware7details12hidl_pointerIKcEptEv"
  source_file: "system/libhidl/base/include/hidl/HidlInternal.h"
}
functions {
  basic_abi {
    type_abi {
      name: "const char &"
      size: 8
      alignment: 8
    }
    name: "android::hardware::details::hidl_pointer<const char>::operator[]"
    access: public_access
    linker_set_key: "_ZN7android8hardware7details12hidl_pointerIKcEixEm"
  }
  mangled_function_name: "_ZN7android8hardware7details12hidl_pointerIKcEixEm"
  source_file: "system/libhidl/base/include/hidl/HidlInternal.h"
  parameters {
    basic_abi {
      type_abi {
        name: "unsigned long"
        size: 8
        alignment: 8
      }
      name: "index"
      access: public_access
      linker_set_key: "false"
    }
    default_arg: false
  }
}
functions {
  basic_abi {
    type_abi {
      name: "const char &"
      size: 8
      alignment: 8
    }
    name: "android::hardware::details::hidl_pointer<const char>::operator[]"
    access: public_access
    linker_set_key: "_ZNK7android8hardware7details12hidl_pointerIKcEixEm"
  }
  mangled_function_name: "_ZNK7android8hardware7details12hidl_pointerIKcEixEm"
  source_file: "system/libhidl/base/include/hidl/HidlInternal.h"
  parameters {
    basic_abi {
      type_abi {
        name: "unsigned long"
        size: 8
        alignment: 8
      }
      name: "index"
      access: public_access
      linker_set_key: "false"
    }
    default_arg: false
  }
}
functions {
  basic_abi {
    type_abi {
      name: "android::hardware::Status"
      size: 32
      alignment: 8
    }
    name: "android::hardware::Status::ok"
    access: public_access
    linker_set_key: "_ZN7android8hardware6Status2okEv"
  }
  mangled_function_name: "_ZN7android8hardware6Status2okEv"
  source_file: "system/libhidl/base/include/hidl/Status.h"
}
functions {
  basic_abi {
    type_abi {
      name: "android::hardware::Status"
      size: 32
      alignment: 8
    }
    name: "android::hardware::Status::fromExceptionCode"
    access: public_access
    linker_set_key: "_ZN7android8hardware6Status17fromExceptionCodeEi"
  }
  mangled_function_name: "_ZN7android8hardware6Status17fromExceptionCodeEi"
  source_file: "system/libhidl/base/include/hidl/Status.h"
  parameters {
    basic_abi {
      type_abi {
        name: "int"
        size: 4
        alignment: 4
      }
      name: "exceptionCode"
      access: public_access
      linker_set_key: "false"
    }
    default_arg: false
  }
}
functions {
  basic_abi {
    type_abi {
      name: "android::hardware::Status"
      size: 32
      alignment: 8
    }
    name: "android::hardware::Status::fromExceptionCode"
    access: public_access
    linker_set_key: "_ZN7android8hardware6Status17fromExceptionCodeEiPKc"
  }
  mangled_function_name: "_ZN7android8hardware6Status17fromExceptionCodeEiPKc"
  source_file: "system/libhidl/base/include/hidl/Status.h"
  parameters {
    basic_abi {
      type_abi {
        name: "int"
        size: 4
        alignment: 4
      }
      name: "exceptionCode"
      access: public_access
      linker_set_key: "false"
    }
    default_arg: false
  }
  parameters {
    basic_abi {
      type_abi {
        name: "const char *"
        size: 8
        alignment: 8
      }
      name: "message"
      access: public_access
      linker_set_key: "false"
    }
    default_arg: false
  }
}
functions {
  basic_abi {
    type_abi {
      name: "android::hardware::Status"
      size: 32
      alignment: 8
    }
    name: "android::hardware::Status::fromStatusT"
    access: public_access
    linker_set_key: "_ZN7android8hardware6Status11fromStatusTEi"
  }
  mangled_function_name: "_ZN7android8hardware6Status11fromStatusTEi"
  source_file: "system/libhidl/base/include/hidl/Status.h"
  parameters {
    basic_abi {
      type_abi {
        name: "int"
        size: 4
        alignment: 4
      }
      name: "status"
      access: public_access
      linker_set_key: "false"
    }
    default_arg: false
  }
}
functions {
  basic_abi {
    type_abi {
      name: "void"
    }
    name: "android::hardware::Status::Status"
    access: public_access
    linker_set_key: "_ZN7android8hardware6StatusC1Ev"
  }
  mangled_function_name: "_ZN7android8hardware6StatusC1Ev"
  source_file: "system/libhidl/base/include/hidl/Status.h"
}
functions {
  basic_abi {
    type_abi {
      name: "void"
    }
    name: "android::hardware::Status::~Status"
    access: public_access
    linker_set_key: "_ZN7android8hardware6StatusD0Ev"
  }
  mangled_function_name: "_ZN7android8hardware6StatusD0Ev"
  source_file: "system/libhidl/base/include/hidl/Status.h"
}
functions {
  basic_abi {
    type_abi {
      name: "void"
    }
    name: "android::hardware::Status::Status"
    access: public_access
    linker_set_key: "_ZN7android8hardware6StatusC1ERKS1_"
  }
  mangled_function_name: "_ZN7android8hardware6StatusC1ERKS1_"
  source_file: "system/libhidl/base/include/hidl/Status.h"
  parameters {
    basic_abi {
      type_abi {
        name: "const android::hardware::Status &"
        size: 8
        alignment: 8
      }
      name: "status"
      access: public_access
      linker_set_key: "false"
    }
    default_arg: false
  }
}
functions {
  basic_abi {
    type_abi {
      name: "void"
    }
    name: "android::hardware::Status::Status"
    access: public_access
    linker_set_key: "_ZN7android8hardware6StatusC1EOS1_"
  }
  mangled_function_name: "_ZN7android8hardware6StatusC1EOS1_"
  source_file: "system/libhidl/base/include/hidl/Status.h"
  parameters {
    basic_abi {
      type_abi {
        name: "android::hardware::Status &&"
        size: 8
        alignment: 8
      }
      name: "status"
      access: public_access
      linker_set_key: "false"
    }
    default_arg: false
  }
}
functions {
  basic_abi {
    type_abi {
      name: "android::hardware::Status &"
      size: 8
      alignment: 8
    }
    name: "android::hardware::Status::operator="
    access: public_access
    linker_set_key: "_ZN7android8hardware6StatusaSERKS1_"
  }
  mangled_function_name: "_ZN7android8hardware6StatusaSERKS1_"
  source_file: "system/libhidl/base/include/hidl/Status.h"
  parameters {
    basic_abi {
      type_abi {
        name: "const android::hardware::Status &"
        size: 8
        alignment: 8
      }
      name: "status"
      access: public_access
      linker_set_key: "false"
    }
    default_arg: false
  }
}
functions {
  basic_abi {
    type_abi {
      name: "void"
    }
    name: "android::hardware::Status::setException"
    access: public_access
    linker_set_key: "_ZN7android8hardware6Status12setExceptionEiPKc"
  }
  mangled_function_name: "_ZN7android8hardware6Status12setExceptionEiPKc"
  source_file: "system/libhidl/base/include/hidl/Status.h"
  parameters {
    basic_abi {
      type_abi {
        name: "int"
        size: 4
        alignment: 4
      }
      name: "ex"
      access: public_access
      linker_set_key: "false"
    }
    default_arg: false
  }
  parameters {
    basic_abi {
      type_abi {
        name: "const char *"
        size: 8
        alignment: 8
      }
      name: "message"
      access: public_access
      linker_set_key: "false"
    }
    default_arg: false
  }
}
functions {
  basic_abi {
    type_abi {
      name: "void"
    }
    name: "android::hardware::Status::setFromStatusT"
    access: public_access
    linker_set_key: "_ZN7android8hardware6Status14setFromStatusTEi"
  }
  mangled_function_name: "_ZN7android8hardware6Status14setFromStatusTEi"
  source_file: "system/libhidl/base/include/hidl/Status.h"
  parameters {
    basic_abi {
      type_abi {
        name: "int"
        size: 4
        alignment: 4
      }
      name: "status"
      access: public_access
      linker_set_key: "false"
    }
    default_arg: false
  }
}
functions {
  basic_abi {
    type_abi {
      name: "int"
      size: 4
      alignment: 4
    }
    name: "android::hardware::Status::exceptionCode"
    access: public_access
    linker_set_key: "_ZNK7android8hardware6Status13exceptionCodeEv"
  }
  mangled_function_name: "_ZNK7android8hardware6Status13exceptionCodeEv"
  source_file: "system/libhidl/base/include/hidl/Status.h"
}
functions {
  basic_abi {
    type_abi {
      name: "const char *"
      size: 8
      alignment: 8
    }
    name: "android::hardware::Status::exceptionMessage"
    access: public_access
    linker_set_key: "_ZNK7android8hardware6Status16exceptionMessageEv"
  }
  mangled_function_name: "_ZNK7android8hardware6Status16exceptionMessageEv"
  source_file: "system/libhidl/base/include/hidl/Status.h"
}
functions {
  basic_abi {
    type_abi {
      name: "int"
      size: 4
      alignment: 4
    }
    name: "android::hardware::Status::transactionError"
    access: public_access
    linker_set_key: "_ZNK7android8hardware6Status16transactionErrorEv"
  }
  mangled_function_name: "_ZNK7android8hardware6Status16transactionErrorEv"
  source_file: "system/libhidl/base/include/hidl/Status.h"
}
functions {
  basic_abi {
    type_abi {
      name: "bool"
      size: 1
      alignment: 1
    }
    name: "android::hardware::Status::isOk"
    access: public_access
    linker_set_key: "_ZNK7android8hardware6Status4isOkEv"
  }
  mangled_function_name: "_ZNK7android8hardware6Status4isOkEv"
  source_file: "system/libhidl/base/include/hidl/Status.h"
}
functions {
  basic_abi {
    type_abi {
      name: "std::basic_string<char, std::char_traits<char>, std::allocator<char> >"
      size: 24
      alignment: 8
    }
    name: "android::hardware::Status::description"
    access: public_access
    linker_set_key: "_ZNK7android8hardware6Status11descriptionEv"
  }
  mangled_function_name: "_ZNK7android8hardware6Status11descriptionEv"
  source_file: "system/libhidl/base/include/hidl/Status.h"
}
functions {
  basic_abi {
    type_abi {
      name: "void"
    }
    name: "android::hardware::Status::Status"
    access: private_access
    linker_set_key: "_ZN7android8hardware6StatusC1Eii"
  }
  mangled_function_name: "_ZN7android8hardware6StatusC1Eii"
  source_file: "system/libhidl/base/include/hidl/Status.h"
  parameters {
    basic_abi {
      type_abi {
        name: "int"
        size: 4
        alignment: 4
      }
      name: "exceptionCode"
      access: public_access
      linker_set_key: "false"
    }
    default_arg: false
  }
  parameters {
    basic_abi {
      type_abi {
        name: "int"
        size: 4
        alignment: 4
      }
      name: "errorCode"
      access: public_access
      linker_set_key: "false"
    }
    default_arg: false
  }
}
functions {
  basic_abi {
    type_abi {
      name: "void"
    }
    name: "android::hardware::Status::Status"
    access: private_access
    linker_set_key: "_ZN7android8hardware6StatusC1EiiPKc"
  }
  mangled_function_name: "_ZN7android8hardware6StatusC1EiiPKc"
  source_file: "system/libhidl/base/include/hidl/Status.h"
  parameters {
    basic_abi {
      type_abi {
        name: "int"
        size: 4
        alignment: 4
      }
      name: "exceptionCode"
      access: public_access
      linker_set_key: "false"
    }
    default_arg: false
  }
  parameters {
    basic_abi {
      type_abi {
        name: "int"
        size: 4
        alignment: 4
      }
      name: "errorCode"
      access: public_access
      linker_set_key: "false"
    }
    default_arg: false
  }
  parameters {
    basic_abi {
      type_abi {
        name: "const char *"
        size: 8
        alignment: 8
      }
      name: "message"
      access: public_access
      linker_set_key: "false"
    }
    default_arg: false
  }
}
functions {
  basic_abi {
    type_abi {
      name: "std::basic_ostream<char, std::char_traits<char> > &"
      size: 8
      alignment: 8
    }
    name: "android::hardware::operator<<"
    access: public_access
    linker_set_key: "_ZN7android8hardwarelsERNSt3__113basic_ostreamIcNS1_11char_traitsIcEEEERKNS0_6StatusE"
  }
  mangled_function_name: "_ZN7android8hardwarelsERNSt3__113basic_ostreamIcNS1_11char_traitsIcEEEERKNS0_6StatusE"
  source_file: "system/libhidl/base/include/hidl/Status.h"
  parameters {
    basic_abi {
      type_abi {
        name: "std::basic_ostream<char, std::char_traits<char> > &"
        size: 8
        alignment: 8
      }
      name: "stream"
      access: public_access
      linker_set_key: "false"
    }
    default_arg: false
  }
  parameters {
    basic_abi {
      type_abi {
        name: "const android::hardware::Status &"
        size: 8
        alignment: 8
      }
      name: "s"
      access: public_access
      linker_set_key: "false"
    }
    default_arg: false
  }
}
functions {
  basic_abi {
    type_abi {
      name: "Return<type-parameter-0-1>"
    }
    name: "android::hardware::details::StatusOf"
    access: public_access
    linker_set_key: "_ZN7android8hardware7details8StatusOfERKNS0_6ReturnIT_EE"
  }
  mangled_function_name: "_ZN7android8hardware7details8StatusOfERKNS0_6ReturnIT_EE"
  source_file: "system/libhidl/base/include/hidl/Status.h"
  parameters {
    basic_abi {
      type_abi {
        name: "const Return<type-parameter-0-0> &"
      }
      name: "other"
      access: public_access
      linker_set_key: "false"
    }
    default_arg: false
  }
  template_info {
    elements {
      basic_abi {
        name: "T"
        linker_set_key: "T"
      }
    }
    elements {
      basic_abi {
        name: "U"
        linker_set_key: "U"
      }
    }
  }
}
functions {
  basic_abi {
    type_abi {
      name: "void"
    }
    name: "android::hardware::details::return_status::assertOk"
    access: protected_access
    linker_set_key: "_ZNK7android8hardware7details13return_status8assertOkEv"
  }
  mangled_function_name: "_ZNK7android8hardware7details13return_status8assertOkEv"
  source_file: "system/libhidl/base/include/hidl/Status.h"
}
functions {
  basic_abi {
    type_abi {
      name: "void"
    }
    name: "android::hardware::details::return_status::return_status"
    access: public_access
    linker_set_key: "_ZN7android8hardware7details13return_statusC1Ev"
  }
  mangled_function_name: "_ZN7android8hardware7details13return_statusC1Ev"
  source_file: "system/libhidl/base/include/hidl/Status.h"
}
functions {
  basic_abi {
    type_abi {
      name: "void"
    }
    name: "android::hardware::details::return_status::return_status"
    access: public_access
    linker_set_key: "_ZN7android8hardware7details13return_statusC1ENS0_6StatusE"
  }
  mangled_function_name: "_ZN7android8hardware7details13return_statusC1ENS0_6StatusE"
  source_file: "system/libhidl/base/include/hidl/Status.h"
  parameters {
    basic_abi {
      type_abi {
        name: "android::hardware::Status"
        size: 32
        alignment: 8
      }
      name: "s"
      access: public_access
      linker_set_key: "false"
    }
    default_arg: false
  }
}
functions {
  basic_abi {
    type_abi {
      name: "void"
    }
    name: "android::hardware::details::return_status::return_status"
    access: public_access
    linker_set_key: "_ZN7android8hardware7details13return_statusC1ERKS2_"
  }
  mangled_function_name: "_ZN7android8hardware7details13return_statusC1ERKS2_"
  source_file: "system/libhidl/base/include/hidl/Status.h"
  parameters {
    basic_abi {
      type_abi {
        name: "const android::hardware::details::return_status &"
        size: 8
        alignment: 8
      }
      name: ""
      access: public_access
      linker_set_key: "false"
    }
    default_arg: false
  }
}
functions {
  basic_abi {
    type_abi {
      name: "android::hardware::details::return_status &"
      size: 8
      alignment: 8
    }
    name: "android::hardware::details::return_status::operator="
    access: public_access
    linker_set_key: "_ZN7android8hardware7details13return_statusaSERKS2_"
  }
  mangled_function_name: "_ZN7android8hardware7details13return_statusaSERKS2_"
  source_file: "system/libhidl/base/include/hidl/Status.h"
  parameters {
    basic_abi {
      type_abi {
        name: "const android::hardware::details::return_status &"
        size: 8
        alignment: 8
      }
      name: ""
      access: public_access
      linker_set_key: "false"
    }
    default_arg: false
  }
}
functions {
  basic_abi {
    type_abi {
      name: "void"
    }
    name: "android::hardware::details::return_status::return_status"
    access: public_access
    linker_set_key: "_ZN7android8hardware7details13return_statusC1EOS2_"
  }
  mangled_function_name: "_ZN7android8hardware7details13return_statusC1EOS2_"
  source_file: "system/libhidl/base/include/hidl/Status.h"
  parameters {
    basic_abi {
      type_abi {
        name: "android::hardware::details::return_status &&"
        size: 8
        alignment: 8
      }
      name: "other"
      access: public_access
      linker_set_key: "false"
    }
    default_arg: false
  }
}
functions {
  basic_abi {
    type_abi {
      name: "android::hardware::details::return_status &"
      size: 8
      alignment: 8
    }
    name: "android::hardware::details::return_status::operator="
    access: public_access
    linker_set_key: "_ZN7android8hardware7details13return_statusaSEOS2_"
  }
  mangled_function_name: "_ZN7android8hardware7details13return_statusaSEOS2_"
  source_file: "system/libhidl/base/include/hidl/Status.h"
  parameters {
    basic_abi {
      type_abi {
        name: "android::hardware::details::return_status &&"
        size: 8
        alignment: 8
      }
      name: "other"
      access: public_access
      linker_set_key: "false"
    }
    default_arg: false
  }
}
functions {
  basic_abi {
    type_abi {
      name: "void"
    }
    name: "android::hardware::details::return_status::~return_status"
    access: public_access
    linker_set_key: "_ZN7android8hardware7details13return_statusD0Ev"
  }
  mangled_function_name: "_ZN7android8hardware7details13return_statusD0Ev"
  source_file: "system/libhidl/base/include/hidl/Status.h"
}
functions {
  basic_abi {
    type_abi {
      name: "bool"
      size: 1
      alignment: 1
    }
    name: "android::hardware::details::return_status::isOk"
    access: public_access
    linker_set_key: "_ZNK7android8hardware7details13return_status4isOkEv"
  }
  mangled_function_name: "_ZNK7android8hardware7details13return_status4isOkEv"
  source_file: "system/libhidl/base/include/hidl/Status.h"
}
functions {
  basic_abi {
    type_abi {
      name: "bool"
      size: 1
      alignment: 1
    }
    name: "android::hardware::details::return_status::isDeadObject"
    access: public_access
    linker_set_key: "_ZNK7android8hardware7details13return_status12isDeadObjectEv"
  }
  mangled_function_name: "_ZNK7android8hardware7details13return_status12isDeadObjectEv"
  source_file: "system/libhidl/base/include/hidl/Status.h"
}
functions {
  basic_abi {
    type_abi {
      name: "std::basic_string<char, std::char_traits<char>, std::allocator<char> >"
      size: 24
      alignment: 8
    }
    name: "android::hardware::details::return_status::description"
    access: public_access
    linker_set_key: "_ZNK7android8hardware7details13return_status11descriptionEv"
  }
  mangled_function_name: "_ZNK7android8hardware7details13return_status11descriptionEv"
  source_file: "system/libhidl/base/include/hidl/Status.h"
}
functions {
  basic_abi {
    type_abi {
      name: "void"
    }
    name: "android::hardware::Return::Return<T>"
    access: public_access
    linker_set_key: "_ZN7android8hardware6ReturnC1ET_"
  }
  mangled_function_name: "_ZN7android8hardware6ReturnC1ET_"
  source_file: "system/libhidl/base/include/hidl/Status.h"
  parameters {
    basic_abi {
      type_abi {
        name: "type-parameter-0-0"
      }
      name: "v"
      access: public_access
      linker_set_key: "false"
    }
    default_arg: false
  }
}
functions {
  basic_abi {
    type_abi {
      name: "void"
    }
    name: "android::hardware::Return::Return<T>"
    access: public_access
    linker_set_key: "_ZN7android8hardware6ReturnC1ENS0_6StatusE"
  }
  mangled_function_name: "_ZN7android8hardware6ReturnC1ENS0_6StatusE"
  source_file: "system/libhidl/base/include/hidl/Status.h"
  parameters {
    basic_abi {
      type_abi {
        name: "android::hardware::Status"
        size: 32
        alignment: 8
      }
      name: "s"
      access: public_access
      linker_set_key: "false"
    }
    default_arg: false
  }
}
functions {
  basic_abi {
    type_abi {
      name: "void"
    }
    name: "android::hardware::Return::Return<T>"
    access: public_access
    linker_set_key: "_ZN7android8hardware6ReturnC1EONS0_6ReturnIT_EE"
  }
  mangled_function_name: "_ZN7android8hardware6ReturnC1EONS0_6ReturnIT_EE"
  source_file: "system/libhidl/base/include/hidl/Status.h"
  parameters {
    basic_abi {
      type_abi {
        name: "Return<T> &&"
      }
      name: "other"
      access: public_access
      linker_set_key: "false"
    }
    default_arg: false
  }
}
functions {
  basic_abi {
    type_abi {
      name: "Return<T> &"
    }
    name: "android::hardware::Return::operator="
    access: public_access
    linker_set_key: "_ZN7android8hardware6ReturnaSEONS0_6ReturnIT_EE"
  }
  mangled_function_name: "_ZN7android8hardware6ReturnaSEONS0_6ReturnIT_EE"
  source_file: "system/libhidl/base/include/hidl/Status.h"
  parameters {
    basic_abi {
      type_abi {
        name: "Return<T> &&"
      }
      name: ""
      access: public_access
      linker_set_key: "false"
    }
    default_arg: false
  }
}
functions {
  basic_abi {
    type_abi {
      name: "void"
    }
    name: "android::hardware::Return::~Return<T>"
    access: public_access
    linker_set_key: "_ZN7android8hardware6ReturnD0Ev"
  }
  mangled_function_name: "_ZN7android8hardware6ReturnD0Ev"
  source_file: "system/libhidl/base/include/hidl/Status.h"
}
functions {
  basic_abi {
    type_abi {
      name: "type-parameter-0-0"
    }
    name: "android::hardware::Return::operator type-parameter-0-0"
    access: public_access
    linker_set_key: "_ZNK7android8hardware6ReturncvT_Ev"
  }
  mangled_function_name: "_ZNK7android8hardware6ReturncvT_Ev"
  source_file: "system/libhidl/base/include/hidl/Status.h"
}
functions {
  basic_abi {
    type_abi {
      name: "void"
    }
    name: "android::hardware::Return<sp<type-parameter-0-0> >::Return<sp<type-parameter-0-0> >"
    access: public_access
    linker_set_key: "_ZN7android8hardware6ReturnINS_2spIT_EEEC1ES4_"
  }
  mangled_function_name: "_ZN7android8hardware6ReturnINS_2spIT_EEEC1ES4_"
  source_file: "system/libhidl/base/include/hidl/Status.h"
  parameters {
    basic_abi {
      type_abi {
        name: "sp<type-parameter-0-0>"
      }
      name: "v"
      access: public_access
      linker_set_key: "false"
    }
    default_arg: false
  }
}
functions {
  basic_abi {
    type_abi {
      name: "void"
    }
    name: "android::hardware::Return<sp<type-parameter-0-0> >::Return<sp<type-parameter-0-0> >"
    access: public_access
    linker_set_key: "_ZN7android8hardware6ReturnINS_2spIT_EEEC1EPS3_"
  }
  mangled_function_name: "_ZN7android8hardware6ReturnINS_2spIT_EEEC1EPS3_"
  source_file: "system/libhidl/base/include/hidl/Status.h"
  parameters {
    basic_abi {
      type_abi {
        name: "type-parameter-0-0 *"
      }
      name: "v"
      access: public_access
      linker_set_key: "false"
    }
    default_arg: false
  }
}
functions {
  basic_abi {
    type_abi {
      name: "void"
    }
    name: "android::hardware::Return<sp<type-parameter-0-0> >::Return<sp<type-parameter-0-0> >"
    access: public_access
    linker_set_key: "_ZN7android8hardware6ReturnINS_2spIT_EEEC1ENS2_IT_EE"
  }
  mangled_function_name: "_ZN7android8hardware6ReturnINS_2spIT_EEEC1ENS2_IT_EE"
  source_file: "system/libhidl/base/include/hidl/Status.h"
  parameters {
    basic_abi {
      type_abi {
        name: "sp<type-parameter-1-0>"
      }
      name: "v"
      access: public_access
      linker_set_key: "false"
    }
    default_arg: false
  }
  template_info {
    elements {
      basic_abi {
        name: "U"
        linker_set_key: "U"
      }
    }
  }
}
functions {
  basic_abi {
    type_abi {
      name: "void"
    }
    name: "android::hardware::Return<sp<type-parameter-0-0> >::Return<sp<type-parameter-0-0> >"
    access: public_access
    linker_set_key: "_ZN7android8hardware6ReturnINS_2spIT_EEEC1EPT_"
  }
  mangled_function_name: "_ZN7android8hardware6ReturnINS_2spIT_EEEC1EPT_"
  source_file: "system/libhidl/base/include/hidl/Status.h"
  parameters {
    basic_abi {
      type_abi {
        name: "type-parameter-1-0 *"
      }
      name: "v"
      access: public_access
      linker_set_key: "false"
    }
    default_arg: false
  }
  template_info {
    elements {
      basic_abi {
        name: "U"
        linker_set_key: "U"
      }
    }
  }
}
functions {
  basic_abi {
    type_abi {
      name: "void"
    }
    name: "android::hardware::Return<sp<type-parameter-0-0> >::Return<sp<type-parameter-0-0> >"
    access: public_access
    linker_set_key: "_ZN7android8hardware6ReturnINS_2spIT_EEEC1ENS0_6StatusE"
  }
  mangled_function_name: "_ZN7android8hardware6ReturnINS_2spIT_EEEC1ENS0_6StatusE"
  source_file: "system/libhidl/base/include/hidl/Status.h"
  parameters {
    basic_abi {
      type_abi {
        name: "android::hardware::Status"
        size: 32
        alignment: 8
      }
      name: "s"
      access: public_access
      linker_set_key: "false"
    }
    default_arg: false
  }
}
functions {
  basic_abi {
    type_abi {
      name: "void"
    }
    name: "android::hardware::Return<sp<type-parameter-0-0> >::Return<sp<type-parameter-0-0> >"
    access: public_access
    linker_set_key: "_ZN7android8hardware6ReturnINS_2spIT_EEEC1EONS1_IS4_EE"
  }
  mangled_function_name: "_ZN7android8hardware6ReturnINS_2spIT_EEEC1EONS1_IS4_EE"
  source_file: "system/libhidl/base/include/hidl/Status.h"
  parameters {
    basic_abi {
      type_abi {
        name: "Return<sp<type-parameter-0-0> > &&"
      }
      name: "other"
      access: public_access
      linker_set_key: "false"
    }
    default_arg: false
  }
}
functions {
  basic_abi {
    type_abi {
      name: "Return<sp<type-parameter-0-0> > &"
    }
    name: "android::hardware::Return<sp<type-parameter-0-0> >::operator="
    access: public_access
    linker_set_key: "_ZN7android8hardware6ReturnINS_2spIT_EEEaSEONS1_IS4_EE"
  }
  mangled_function_name: "_ZN7android8hardware6ReturnINS_2spIT_EEEaSEONS1_IS4_EE"
  source_file: "system/libhidl/base/include/hidl/Status.h"
  parameters {
    basic_abi {
      type_abi {
        name: "Return<sp<type-parameter-0-0> > &&"
      }
      name: ""
      access: public_access
      linker_set_key: "false"
    }
    default_arg: false
  }
}
functions {
  basic_abi {
    type_abi {
      name: "void"
    }
    name: "android::hardware::Return<sp<type-parameter-0-0> >::~Return<sp<type-parameter-0-0> >"
    access: public_access
    linker_set_key: "_ZN7android8hardware6ReturnINS_2spIT_EEED0Ev"
  }
  mangled_function_name: "_ZN7android8hardware6ReturnINS_2spIT_EEED0Ev"
  source_file: "system/libhidl/base/include/hidl/Status.h"
}
functions {
  basic_abi {
    type_abi {
      name: "sp<type-parameter-0-0>"
    }
    name: "android::hardware::Return<sp<type-parameter-0-0> >::operator sp<type-parameter-0-0>"
    access: public_access
    linker_set_key: "_ZNK7android8hardware6ReturnINS_2spIT_EEEcvS4_Ev"
  }
  mangled_function_name: "_ZNK7android8hardware6ReturnINS_2spIT_EEEcvS4_Ev"
  source_file: "system/libhidl/base/include/hidl/Status.h"
}
functions {
  basic_abi {
    type_abi {
      name: "void"
    }
    name: "android::hardware::Return<void>::Return"
    access: public_access
    linker_set_key: "_ZN7android8hardware6ReturnIvEC1Ev"
  }
  mangled_function_name: "_ZN7android8hardware6ReturnIvEC1Ev"
  source_file: "system/libhidl/base/include/hidl/Status.h"
}
functions {
  basic_abi {
    type_abi {
      name: "void"
    }
    name: "android::hardware::Return<void>::Return"
    access: public_access
    linker_set_key: "_ZN7android8hardware6ReturnIvEC1ENS0_6StatusE"
  }
  mangled_function_name: "_ZN7android8hardware6ReturnIvEC1ENS0_6StatusE"
  source_file: "system/libhidl/base/include/hidl/Status.h"
  parameters {
    basic_abi {
      type_abi {
        name: "android::hardware::Status"
        size: 32
        alignment: 8
      }
      name: "s"
      access: public_access
      linker_set_key: "false"
    }
    default_arg: false
  }
}
functions {
  basic_abi {
    type_abi {
      name: "void"
    }
    name: "android::hardware::Return<void>::Return"
    access: public_access
    linker_set_key: "_ZN7android8hardware6ReturnIvEC1EOS2_"
  }
  mangled_function_name: "_ZN7android8hardware6ReturnIvEC1EOS2_"
  source_file: "system/libhidl/base/include/hidl/Status.h"
  parameters {
    basic_abi {
      type_abi {
        name: "android::hardware::Return<void> &&"
        size: 8
        alignment: 8
      }
      name: ""
      access: public_access
      linker_set_key: "false"
    }
    default_arg: false
  }
}
functions {
  basic_abi {
    type_abi {
      name: "android::hardware::Return<void> &"
      size: 8
      alignment: 8
    }
    name: "android::hardware::Return<void>::operator="
    access: public_access
    linker_set_key: "_ZN7android8hardware6ReturnIvEaSEOS2_"
  }
  mangled_function_name: "_ZN7android8hardware6ReturnIvEaSEOS2_"
  source_file: "system/libhidl/base/include/hidl/Status.h"
  parameters {
    basic_abi {
      type_abi {
        name: "android::hardware::Return<void> &&"
        size: 8
        alignment: 8
      }
      name: ""
      access: public_access
      linker_set_key: "false"
    }
    default_arg: false
  }
}
functions {
  basic_abi {
    type_abi {
      name: "void"
    }
    name: "android::hardware::Return<void>::~Return"
    access: public_access
    linker_set_key: "_ZN7android8hardware6ReturnIvED0Ev"
  }
  mangled_function_name: "_ZN7android8hardware6ReturnIvED0Ev"
  source_file: "system/libhidl/base/include/hidl/Status.h"
}
functions {
  basic_abi {
    type_abi {
      name: "android::hardware::Return<void>"
      size: 40
      alignment: 8
    }
    name: "android::hardware::Void"
    access: public_access
    linker_set_key: "_ZN7android8hardwareL4VoidEv"
  }
  mangled_function_name: "_ZN7android8hardwareL4VoidEv"
  source_file: "system/libhidl/base/include/hidl/Status.h"
}
functions {
  basic_abi {
    type_abi {
      name: "bool"
      size: 1
      alignment: 1
    }
    name: "android::hardware::details::debuggable"
    access: public_access
    linker_set_key: "_ZN7android8hardware7details10debuggableEv"
  }
  mangled_function_name: "_ZN7android8hardware7details10debuggableEv"
  source_file: "system/libhidl/base/include/hidl/HidlSupport.h"
}
functions {
  basic_abi {
    type_abi {
      name: "void"
    }
    name: "android::hardware::hidl_death_recipient::serviceDied"
    access: public_access
    linker_set_key: "_ZN7android8hardware20hidl_death_recipient11serviceDiedEmRKNS_2wpINS_4hidl4base4V1_05IBaseEEE"
  }
  mangled_function_name: "_ZN7android8hardware20hidl_death_recipient11serviceDiedEmRKNS_2wpINS_4hidl4base4V1_05IBaseEEE"
  source_file: "system/libhidl/base/include/hidl/HidlSupport.h"
  parameters {
    basic_abi {
      type_abi {
        name: "unsigned long"
        size: 8
        alignment: 8
      }
      name: "cookie"
      access: public_access
      linker_set_key: "false"
    }
    default_arg: false
  }
  parameters {
    basic_abi {
      type_abi {
        name: "const android::wp<android::hidl::base::V1_0::IBase> &"
        size: 8
        alignment: 8
      }
      name: "who"
      access: public_access
      linker_set_key: "false"
    }
    default_arg: false
  }
}
functions {
  basic_abi {
    type_abi {
      name: "void"
    }
    name: "android::hardware::hidl_handle::hidl_handle"
    access: public_access
    linker_set_key: "_ZN7android8hardware11hidl_handleC1Ev"
  }
  mangled_function_name: "_ZN7android8hardware11hidl_handleC1Ev"
  source_file: "system/libhidl/base/include/hidl/HidlSupport.h"
}
functions {
  basic_abi {
    type_abi {
      name: "void"
    }
    name: "android::hardware::hidl_handle::~hidl_handle"
    access: public_access
    linker_set_key: "_ZN7android8hardware11hidl_handleD0Ev"
  }
  mangled_function_name: "_ZN7android8hardware11hidl_handleD0Ev"
  source_file: "system/libhidl/base/include/hidl/HidlSupport.h"
}
functions {
  basic_abi {
    type_abi {
      name: "void"
    }
    name: "android::hardware::hidl_handle::hidl_handle"
    access: public_access
    linker_set_key: "_ZN7android8hardware11hidl_handleC1EPK13native_handle"
  }
  mangled_function_name: "_ZN7android8hardware11hidl_handleC1EPK13native_handle"
  source_file: "system/libhidl/base/include/hidl/HidlSupport.h"
  parameters {
    basic_abi {
      type_abi {
        name: "const native_handle *"
        size: 8
        alignment: 8
      }
      name: "handle"
      access: public_access
      linker_set_key: "false"
    }
    default_arg: false
  }
}
functions {
  basic_abi {
    type_abi {
      name: "void"
    }
    name: "android::hardware::hidl_handle::hidl_handle"
    access: public_access
    linker_set_key: "_ZN7android8hardware11hidl_handleC1ERKS1_"
  }
  mangled_function_name: "_ZN7android8hardware11hidl_handleC1ERKS1_"
  source_file: "system/libhidl/base/include/hidl/HidlSupport.h"
  parameters {
    basic_abi {
      type_abi {
        name: "const android::hardware::hidl_handle &"
        size: 8
        alignment: 8
      }
      name: "other"
      access: public_access
      linker_set_key: "false"
    }
    default_arg: false
  }
}
functions {
  basic_abi {
    type_abi {
      name: "void"
    }
    name: "android::hardware::hidl_handle::hidl_handle"
    access: public_access
    linker_set_key: "_ZN7android8hardware11hidl_handleC1EOS1_"
  }
  mangled_function_name: "_ZN7android8hardware11hidl_handleC1EOS1_"
  source_file: "system/libhidl/base/include/hidl/HidlSupport.h"
  parameters {
    basic_abi {
      type_abi {
        name: "android::hardware::hidl_handle &&"
        size: 8
        alignment: 8
      }
      name: "other"
      access: public_access
      linker_set_key: "false"
    }
    default_arg: false
  }
}
functions {
  basic_abi {
    type_abi {
      name: "android::hardware::hidl_handle &"
      size: 8
      alignment: 8
    }
    name: "android::hardware::hidl_handle::operator="
    access: public_access
    linker_set_key: "_ZN7android8hardware11hidl_handleaSERKS1_"
  }
  mangled_function_name: "_ZN7android8hardware11hidl_handleaSERKS1_"
  source_file: "system/libhidl/base/include/hidl/HidlSupport.h"
  parameters {
    basic_abi {
      type_abi {
        name: "const android::hardware::hidl_handle &"
        size: 8
        alignment: 8
      }
      name: "other"
      access: public_access
      linker_set_key: "false"
    }
    default_arg: false
  }
}
functions {
  basic_abi {
    type_abi {
      name: "android::hardware::hidl_handle &"
      size: 8
      alignment: 8
    }
    name: "android::hardware::hidl_handle::operator="
    access: public_access
    linker_set_key: "_ZN7android8hardware11hidl_handleaSEPK13native_handle"
  }
  mangled_function_name: "_ZN7android8hardware11hidl_handleaSEPK13native_handle"
  source_file: "system/libhidl/base/include/hidl/HidlSupport.h"
  parameters {
    basic_abi {
      type_abi {
        name: "const native_handle *"
        size: 8
        alignment: 8
      }
      name: "native_handle"
      access: public_access
      linker_set_key: "false"
    }
    default_arg: false
  }
}
functions {
  basic_abi {
    type_abi {
      name: "android::hardware::hidl_handle &"
      size: 8
      alignment: 8
    }
    name: "android::hardware::hidl_handle::operator="
    access: public_access
    linker_set_key: "_ZN7android8hardware11hidl_handleaSEOS1_"
  }
  mangled_function_name: "_ZN7android8hardware11hidl_handleaSEOS1_"
  source_file: "system/libhidl/base/include/hidl/HidlSupport.h"
  parameters {
    basic_abi {
      type_abi {
        name: "android::hardware::hidl_handle &&"
        size: 8
        alignment: 8
      }
      name: "other"
      access: public_access
      linker_set_key: "false"
    }
    default_arg: false
  }
}
functions {
  basic_abi {
    type_abi {
      name: "void"
    }
    name: "android::hardware::hidl_handle::setTo"
    access: public_access
    linker_set_key: "_ZN7android8hardware11hidl_handle5setToEP13native_handleb"
  }
  mangled_function_name: "_ZN7android8hardware11hidl_handle5setToEP13native_handleb"
  source_file: "system/libhidl/base/include/hidl/HidlSupport.h"
  parameters {
    basic_abi {
      type_abi {
        name: "native_handle *"
        size: 8
        alignment: 8
      }
      name: "handle"
      access: public_access
      linker_set_key: "false"
    }
    default_arg: false
  }
  parameters {
    basic_abi {
      type_abi {
        name: "bool"
        size: 1
        alignment: 1
      }
      name: "shouldOwn"
      access: public_access
      linker_set_key: "true"
    }
    default_arg: true
  }
}
functions {
  basic_abi {
    type_abi {
      name: "const native_handle *"
      size: 8
      alignment: 8
    }
    name: "android::hardware::hidl_handle::operator->"
    access: public_access
    linker_set_key: "_ZNK7android8hardware11hidl_handleptEv"
  }
  mangled_function_name: "_ZNK7android8hardware11hidl_handleptEv"
  source_file: "system/libhidl/base/include/hidl/HidlSupport.h"
}
functions {
  basic_abi {
    type_abi {
      name: "const native_handle *"
      size: 8
      alignment: 8
    }
    name: "android::hardware::hidl_handle::operator const native_handle *"
    access: public_access
    linker_set_key: "_ZNK7android8hardware11hidl_handlecvPK13native_handleEv"
  }
  mangled_function_name: "_ZNK7android8hardware11hidl_handlecvPK13native_handleEv"
  source_file: "system/libhidl/base/include/hidl/HidlSupport.h"
}
functions {
  basic_abi {
    type_abi {
      name: "const native_handle *"
      size: 8
      alignment: 8
    }
    name: "android::hardware::hidl_handle::getNativeHandle"
    access: public_access
    linker_set_key: "_ZNK7android8hardware11hidl_handle15getNativeHandleEv"
  }
  mangled_function_name: "_ZNK7android8hardware11hidl_handle15getNativeHandleEv"
  source_file: "system/libhidl/base/include/hidl/HidlSupport.h"
}
functions {
  basic_abi {
    type_abi {
      name: "void"
    }
    name: "android::hardware::hidl_handle::freeHandle"
    access: private_access
    linker_set_key: "_ZN7android8hardware11hidl_handle10freeHandleEv"
  }
  mangled_function_name: "_ZN7android8hardware11hidl_handle10freeHandleEv"
  source_file: "system/libhidl/base/include/hidl/HidlSupport.h"
}
functions {
  basic_abi {
    type_abi {
      name: "void"
    }
    name: "android::hardware::hidl_string::hidl_string"
    access: public_access
    linker_set_key: "_ZN7android8hardware11hidl_stringC1Ev"
  }
  mangled_function_name: "_ZN7android8hardware11hidl_stringC1Ev"
  source_file: "system/libhidl/base/include/hidl/HidlSupport.h"
}
functions {
  basic_abi {
    type_abi {
      name: "void"
    }
    name: "android::hardware::hidl_string::~hidl_string"
    access: public_access
    linker_set_key: "_ZN7android8hardware11hidl_stringD0Ev"
  }
  mangled_function_name: "_ZN7android8hardware11hidl_stringD0Ev"
  source_file: "system/libhidl/base/include/hidl/HidlSupport.h"
}
functions {
  basic_abi {
    type_abi {
      name: "void"
    }
    name: "android::hardware::hidl_string::hidl_string"
    access: public_access
    linker_set_key: "_ZN7android8hardware11hidl_stringC1ERKS1_"
  }
  mangled_function_name: "_ZN7android8hardware11hidl_stringC1ERKS1_"
  source_file: "system/libhidl/base/include/hidl/HidlSupport.h"
  parameters {
    basic_abi {
      type_abi {
        name: "const android::hardware::hidl_string &"
        size: 8
        alignment: 8
      }
      name: ""
      access: public_access
      linker_set_key: "false"
    }
    default_arg: false
  }
}
functions {
  basic_abi {
    type_abi {
      name: "void"
    }
    name: "android::hardware::hidl_string::hidl_string"
    access: public_access
    linker_set_key: "_ZN7android8hardware11hidl_stringC1EPKc"
  }
  mangled_function_name: "_ZN7android8hardware11hidl_stringC1EPKc"
  source_file: "system/libhidl/base/include/hidl/HidlSupport.h"
  parameters {
    basic_abi {
      type_abi {
        name: "const char *"
        size: 8
        alignment: 8
      }
      name: ""
      access: public_access
      linker_set_key: "false"
    }
    default_arg: false
  }
}
functions {
  basic_abi {
    type_abi {
      name: "void"
    }
    name: "android::hardware::hidl_string::hidl_string"
    access: public_access
    linker_set_key: "_ZN7android8hardware11hidl_stringC1EPKcm"
  }
  mangled_function_name: "_ZN7android8hardware11hidl_stringC1EPKcm"
  source_file: "system/libhidl/base/include/hidl/HidlSupport.h"
  parameters {
    basic_abi {
      type_abi {
        name: "const char *"
        size: 8
        alignment: 8
      }
      name: ""
      access: public_access
      linker_set_key: "false"
    }
    default_arg: false
  }
  parameters {
    basic_abi {
      type_abi {
        name: "unsigned long"
        size: 8
        alignment: 8
      }
      name: "length"
      access: public_access
      linker_set_key: "false"
    }
    default_arg: false
  }
}
functions {
  basic_abi {
    type_abi {
      name: "void"
    }
    name: "android::hardware::hidl_string::hidl_string"
    access: public_access
    linker_set_key: "_ZN7android8hardware11hidl_stringC1ERKNSt3__112basic_stringIcNS2_11char_traitsIcEENS2_9allocatorIcEEEE"
  }
  mangled_function_name: "_ZN7android8hardware11hidl_stringC1ERKNSt3__112basic_stringIcNS2_11char_traitsIcEENS2_9allocatorIcEEEE"
  source_file: "system/libhidl/base/include/hidl/HidlSupport.h"
  parameters {
    basic_abi {
      type_abi {
        name: "const std::basic_string<char, std::char_traits<char>, std::allocator<char> > &"
        size: 8
        alignment: 8
      }
      name: ""
      access: public_access
      linker_set_key: "false"
    }
    default_arg: false
  }
}
functions {
  basic_abi {
    type_abi {
      name: "void"
    }
    name: "android::hardware::hidl_string::hidl_string"
    access: public_access
    linker_set_key: "_ZN7android8hardware11hidl_stringC1EOS1_"
  }
  mangled_function_name: "_ZN7android8hardware11hidl_stringC1EOS1_"
  source_file: "system/libhidl/base/include/hidl/HidlSupport.h"
  parameters {
    basic_abi {
      type_abi {
        name: "android::hardware::hidl_string &&"
        size: 8
        alignment: 8
      }
      name: ""
      access: public_access
      linker_set_key: "false"
    }
    default_arg: false
  }
}
functions {
  basic_abi {
    type_abi {
      name: "const char *"
      size: 8
      alignment: 8
    }
    name: "android::hardware::hidl_string::c_str"
    access: public_access
    linker_set_key: "_ZNK7android8hardware11hidl_string5c_strEv"
  }
  mangled_function_name: "_ZNK7android8hardware11hidl_string5c_strEv"
  source_file: "system/libhidl/base/include/hidl/HidlSupport.h"
}
functions {
  basic_abi {
    type_abi {
      name: "unsigned long"
      size: 8
      alignment: 8
    }
    name: "android::hardware::hidl_string::size"
    access: public_access
    linker_set_key: "_ZNK7android8hardware11hidl_string4sizeEv"
  }
  mangled_function_name: "_ZNK7android8hardware11hidl_string4sizeEv"
  source_file: "system/libhidl/base/include/hidl/HidlSupport.h"
}
functions {
  basic_abi {
    type_abi {
      name: "bool"
      size: 1
      alignment: 1
    }
    name: "android::hardware::hidl_string::empty"
    access: public_access
    linker_set_key: "_ZNK7android8hardware11hidl_string5emptyEv"
  }
  mangled_function_name: "_ZNK7android8hardware11hidl_string5emptyEv"
  source_file: "system/libhidl/base/include/hidl/HidlSupport.h"
}
functions {
  basic_abi {
    type_abi {
      name: "android::hardware::hidl_string &"
      size: 8
      alignment: 8
    }
    name: "android::hardware::hidl_string::operator="
    access: public_access
    linker_set_key: "_ZN7android8hardware11hidl_stringaSERKS1_"
  }
  mangled_function_name: "_ZN7android8hardware11hidl_stringaSERKS1_"
  source_file: "system/libhidl/base/include/hidl/HidlSupport.h"
  parameters {
    basic_abi {
      type_abi {
        name: "const android::hardware::hidl_string &"
        size: 8
        alignment: 8
      }
      name: ""
      access: public_access
      linker_set_key: "false"
    }
    default_arg: false
  }
}
functions {
  basic_abi {
    type_abi {
      name: "android::hardware::hidl_string &"
      size: 8
      alignment: 8
    }
    name: "android::hardware::hidl_string::operator="
    access: public_access
    linker_set_key: "_ZN7android8hardware11hidl_stringaSEPKc"
  }
  mangled_function_name: "_ZN7android8hardware11hidl_stringaSEPKc"
  source_file: "system/libhidl/base/include/hidl/HidlSupport.h"
  parameters {
    basic_abi {
      type_abi {
        name: "const char *"
        size: 8
        alignment: 8
      }
      name: "s"
      access: public_access
      linker_set_key: "false"
    }
    default_arg: false
  }
}
functions {
  basic_abi {
    type_abi {
      name: "android::hardware::hidl_string &"
      size: 8
      alignment: 8
    }
    name: "android::hardware::hidl_string::operator="
    access: public_access
    linker_set_key: "_ZN7android8hardware11hidl_stringaSERKNSt3__112basic_stringIcNS2_11char_traitsIcEENS2_9allocatorIcEEEE"
  }
  mangled_function_name: "_ZN7android8hardware11hidl_stringaSERKNSt3__112basic_stringIcNS2_11char_traitsIcEENS2_9allocatorIcEEEE"
  source_file: "system/libhidl/base/include/hidl/HidlSupport.h"
  parameters {
    basic_abi {
      type_abi {
        name: "const std::basic_string<char, std::char_traits<char>, std::allocator<char> > &"
        size: 8
        alignment: 8
      }
      name: ""
      access: public_access
      linker_set_key: "false"
    }
    default_arg: false
  }
}
functions {
  basic_abi {
    type_abi {
      name: "android::hardware::hidl_string &"
      size: 8
      alignment: 8
    }
    name: "android::hardware::hidl_string::operator="
    access: public_access
    linker_set_key: "_ZN7android8hardware11hidl_stringaSEOS1_"
  }
  mangled_function_name: "_ZN7android8hardware11hidl_stringaSEOS1_"
  source_file: "system/libhidl/base/include/hidl/HidlSupport.h"
  parameters {
    basic_abi {
      type_abi {
        name: "android::hardware::hidl_string &&"
        size: 8
        alignment: 8
      }
      name: "other"
      access: public_access
      linker_set_key: "false"
    }
    default_arg: false
  }
}
functions {
  basic_abi {
    type_abi {
      name: "std::basic_string<char, std::char_traits<char>, std::allocator<char> >"
      size: 24
      alignment: 8
    }
    name: "android::hardware::hidl_string::operator basic_string"
    access: public_access
    linker_set_key: "_ZNK7android8hardware11hidl_stringcvNSt3__112basic_stringIcNS2_11char_traitsIcEENS2_9allocatorIcEEEEEv"
  }
  mangled_function_name: "_ZNK7android8hardware11hidl_stringcvNSt3__112basic_stringIcNS2_11char_traitsIcEENS2_9allocatorIcEEEEEv"
  source_file: "system/libhidl/base/include/hidl/HidlSupport.h"
}
functions {
  basic_abi {
    type_abi {
      name: "void"
    }
    name: "android::hardware::hidl_string::clear"
    access: public_access
    linker_set_key: "_ZN7android8hardware11hidl_string5clearEv"
  }
  mangled_function_name: "_ZN7android8hardware11hidl_string5clearEv"
  source_file: "system/libhidl/base/include/hidl/HidlSupport.h"
}
functions {
  basic_abi {
    type_abi {
      name: "void"
    }
    name: "android::hardware::hidl_string::setToExternal"
    access: public_access
    linker_set_key: "_ZN7android8hardware11hidl_string13setToExternalEPKcm"
  }
  mangled_function_name: "_ZN7android8hardware11hidl_string13setToExternalEPKcm"
  source_file: "system/libhidl/base/include/hidl/HidlSupport.h"
  parameters {
    basic_abi {
      type_abi {
        name: "const char *"
        size: 8
        alignment: 8
      }
      name: "data"
      access: public_access
      linker_set_key: "false"
    }
    default_arg: false
  }
  parameters {
    basic_abi {
      type_abi {
        name: "unsigned long"
        size: 8
        alignment: 8
      }
      name: "size"
      access: public_access
      linker_set_key: "false"
    }
    default_arg: false
  }
}
functions {
  basic_abi {
    type_abi {
      name: "void"
    }
    name: "android::hardware::hidl_string::copyFrom"
    access: private_access
    linker_set_key: "_ZN7android8hardware11hidl_string8copyFromEPKcm"
  }
  mangled_function_name: "_ZN7android8hardware11hidl_string8copyFromEPKcm"
  source_file: "system/libhidl/base/include/hidl/HidlSupport.h"
  parameters {
    basic_abi {
      type_abi {
        name: "const char *"
        size: 8
        alignment: 8
      }
      name: "data"
      access: public_access
      linker_set_key: "false"
    }
    default_arg: false
  }
  parameters {
    basic_abi {
      type_abi {
        name: "unsigned long"
        size: 8
        alignment: 8
      }
      name: "size"
      access: public_access
      linker_set_key: "false"
    }
    default_arg: false
  }
}
functions {
  basic_abi {
    type_abi {
      name: "void"
    }
    name: "android::hardware::hidl_string::moveFrom"
    access: private_access
    linker_set_key: "_ZN7android8hardware11hidl_string8moveFromEOS1_"
  }
  mangled_function_name: "_ZN7android8hardware11hidl_string8moveFromEOS1_"
  source_file: "system/libhidl/base/include/hidl/HidlSupport.h"
  parameters {
    basic_abi {
      type_abi {
        name: "android::hardware::hidl_string &&"
        size: 8
        alignment: 8
      }
      name: ""
      access: public_access
      linker_set_key: "false"
    }
    default_arg: false
  }
}
functions {
  basic_abi {
    type_abi {
      name: "bool"
      size: 1
      alignment: 1
    }
    name: "android::hardware::operator=="
    access: public_access
    linker_set_key: "_ZN7android8hardwareeqERKNS0_11hidl_stringES3_"
  }
  mangled_function_name: "_ZN7android8hardwareeqERKNS0_11hidl_stringES3_"
  source_file: "system/libhidl/base/include/hidl/HidlSupport.h"
  parameters {
    basic_abi {
      type_abi {
        name: "const android::hardware::hidl_string &"
        size: 8
        alignment: 8
      }
      name: "hs1"
      access: public_access
      linker_set_key: "false"
    }
    default_arg: false
  }
  parameters {
    basic_abi {
      type_abi {
        name: "const android::hardware::hidl_string &"
        size: 8
        alignment: 8
      }
      name: "hs2"
      access: public_access
      linker_set_key: "false"
    }
    default_arg: false
  }
}
functions {
  basic_abi {
    type_abi {
      name: "bool"
      size: 1
      alignment: 1
    }
    name: "android::hardware::operator=="
    access: public_access
    linker_set_key: "_ZN7android8hardwareeqERKNS0_11hidl_stringEPKc"
  }
  mangled_function_name: "_ZN7android8hardwareeqERKNS0_11hidl_stringEPKc"
  source_file: "system/libhidl/base/include/hidl/HidlSupport.h"
  parameters {
    basic_abi {
      type_abi {
        name: "const android::hardware::hidl_string &"
        size: 8
        alignment: 8
      }
      name: "hs"
      access: public_access
      linker_set_key: "false"
    }
    default_arg: false
  }
  parameters {
    basic_abi {
      type_abi {
        name: "const char *"
        size: 8
        alignment: 8
      }
      name: "s"
      access: public_access
      linker_set_key: "false"
    }
    default_arg: false
  }
}
functions {
  basic_abi {
    type_abi {
      name: "bool"
      size: 1
      alignment: 1
    }
    name: "android::hardware::operator=="
    access: public_access
    linker_set_key: "_ZN7android8hardwareeqEPKcRKNS0_11hidl_stringE"
  }
  mangled_function_name: "_ZN7android8hardwareeqEPKcRKNS0_11hidl_stringE"
  source_file: "system/libhidl/base/include/hidl/HidlSupport.h"
  parameters {
    basic_abi {
      type_abi {
        name: "const char *"
        size: 8
        alignment: 8
      }
      name: "s"
      access: public_access
      linker_set_key: "false"
    }
    default_arg: false
  }
  parameters {
    basic_abi {
      type_abi {
        name: "const android::hardware::hidl_string &"
        size: 8
        alignment: 8
      }
      name: "hs"
      access: public_access
      linker_set_key: "false"
    }
    default_arg: false
  }
}
functions {
  basic_abi {
    type_abi {
      name: "bool"
      size: 1
      alignment: 1
    }
    name: "android::hardware::operator!="
    access: public_access
    linker_set_key: "_ZN7android8hardwareneERKNS0_11hidl_stringES3_"
  }
  mangled_function_name: "_ZN7android8hardwareneERKNS0_11hidl_stringES3_"
  source_file: "system/libhidl/base/include/hidl/HidlSupport.h"
  parameters {
    basic_abi {
      type_abi {
        name: "const android::hardware::hidl_string &"
        size: 8
        alignment: 8
      }
      name: "hs1"
      access: public_access
      linker_set_key: "false"
    }
    default_arg: false
  }
  parameters {
    basic_abi {
      type_abi {
        name: "const android::hardware::hidl_string &"
        size: 8
        alignment: 8
      }
      name: "hs2"
      access: public_access
      linker_set_key: "false"
    }
    default_arg: false
  }
}
functions {
  basic_abi {
    type_abi {
      name: "bool"
      size: 1
      alignment: 1
    }
    name: "android::hardware::operator!="
    access: public_access
    linker_set_key: "_ZN7android8hardwareneERKNS0_11hidl_stringEPKc"
  }
  mangled_function_name: "_ZN7android8hardwareneERKNS0_11hidl_stringEPKc"
  source_file: "system/libhidl/base/include/hidl/HidlSupport.h"
  parameters {
    basic_abi {
      type_abi {
        name: "const android::hardware::hidl_string &"
        size: 8
        alignment: 8
      }
      name: "hs"
      access: public_access
      linker_set_key: "false"
    }
    default_arg: false
  }
  parameters {
    basic_abi {
      type_abi {
        name: "const char *"
        size: 8
        alignment: 8
      }
      name: "s"
      access: public_access
      linker_set_key: "false"
    }
    default_arg: false
  }
}
functions {
  basic_abi {
    type_abi {
      name: "bool"
      size: 1
      alignment: 1
    }
    name: "android::hardware::operator!="
    access: public_access
    linker_set_key: "_ZN7android8hardwareneEPKcRKNS0_11hidl_stringE"
  }
  mangled_function_name: "_ZN7android8hardwareneEPKcRKNS0_11hidl_stringE"
  source_file: "system/libhidl/base/include/hidl/HidlSupport.h"
  parameters {
    basic_abi {
      type_abi {
        name: "const char *"
        size: 8
        alignment: 8
      }
      name: "s"
      access: public_access
      linker_set_key: "false"
    }
    default_arg: false
  }
  parameters {
    basic_abi {
      type_abi {
        name: "const android::hardware::hidl_string &"
        size: 8
        alignment: 8
      }
      name: "hs"
      access: public_access
      linker_set_key: "false"
    }
    default_arg: false
  }
}
functions {
  basic_abi {
    type_abi {
      name: "bool"
      size: 1
      alignment: 1
    }
    name: "android::hardware::operator<"
    access: public_access
    linker_set_key: "_ZN7android8hardwareltERKNS0_11hidl_stringES3_"
  }
  mangled_function_name: "_ZN7android8hardwareltERKNS0_11hidl_stringES3_"
  source_file: "system/libhidl/base/include/hidl/HidlSupport.h"
  parameters {
    basic_abi {
      type_abi {
        name: "const android::hardware::hidl_string &"
        size: 8
        alignment: 8
      }
      name: "hs1"
      access: public_access
      linker_set_key: "false"
    }
    default_arg: false
  }
  parameters {
    basic_abi {
      type_abi {
        name: "const android::hardware::hidl_string &"
        size: 8
        alignment: 8
      }
      name: "hs2"
      access: public_access
      linker_set_key: "false"
    }
    default_arg: false
  }
}
functions {
  basic_abi {
    type_abi {
      name: "bool"
      size: 1
      alignment: 1
    }
    name: "android::hardware::operator<"
    access: public_access
    linker_set_key: "_ZN7android8hardwareltERKNS0_11hidl_stringEPKc"
  }
  mangled_function_name: "_ZN7android8hardwareltERKNS0_11hidl_stringEPKc"
  source_file: "system/libhidl/base/include/hidl/HidlSupport.h"
  parameters {
    basic_abi {
      type_abi {
        name: "const android::hardware::hidl_string &"
        size: 8
        alignment: 8
      }
      name: "hs"
      access: public_access
      linker_set_key: "false"
    }
    default_arg: false
  }
  parameters {
    basic_abi {
      type_abi {
        name: "const char *"
        size: 8
        alignment: 8
      }
      name: "s"
      access: public_access
      linker_set_key: "false"
    }
    default_arg: false
  }
}
functions {
  basic_abi {
    type_abi {
      name: "bool"
      size: 1
      alignment: 1
    }
    name: "android::hardware::operator<"
    access: public_access
    linker_set_key: "_ZN7android8hardwareltEPKcRKNS0_11hidl_stringE"
  }
  mangled_function_name: "_ZN7android8hardwareltEPKcRKNS0_11hidl_stringE"
  source_file: "system/libhidl/base/include/hidl/HidlSupport.h"
  parameters {
    basic_abi {
      type_abi {
        name: "const char *"
        size: 8
        alignment: 8
      }
      name: "s"
      access: public_access
      linker_set_key: "false"
    }
    default_arg: false
  }
  parameters {
    basic_abi {
      type_abi {
        name: "const android::hardware::hidl_string &"
        size: 8
        alignment: 8
      }
      name: "hs"
      access: public_access
      linker_set_key: "false"
    }
    default_arg: false
  }
}
functions {
  basic_abi {
    type_abi {
      name: "bool"
      size: 1
      alignment: 1
    }
    name: "android::hardware::operator<="
    access: public_access
    linker_set_key: "_ZN7android8hardwareleERKNS0_11hidl_stringES3_"
  }
  mangled_function_name: "_ZN7android8hardwareleERKNS0_11hidl_stringES3_"
  source_file: "system/libhidl/base/include/hidl/HidlSupport.h"
  parameters {
    basic_abi {
      type_abi {
        name: "const android::hardware::hidl_string &"
        size: 8
        alignment: 8
      }
      name: "hs1"
      access: public_access
      linker_set_key: "false"
    }
    default_arg: false
  }
  parameters {
    basic_abi {
      type_abi {
        name: "const android::hardware::hidl_string &"
        size: 8
        alignment: 8
      }
      name: "hs2"
      access: public_access
      linker_set_key: "false"
    }
    default_arg: false
  }
}
functions {
  basic_abi {
    type_abi {
      name: "bool"
      size: 1
      alignment: 1
    }
    name: "android::hardware::operator<="
    access: public_access
    linker_set_key: "_ZN7android8hardwareleERKNS0_11hidl_stringEPKc"
  }
  mangled_function_name: "_ZN7android8hardwareleERKNS0_11hidl_stringEPKc"
  source_file: "system/libhidl/base/include/hidl/HidlSupport.h"
  parameters {
    basic_abi {
      type_abi {
        name: "const android::hardware::hidl_string &"
        size: 8
        alignment: 8
      }
      name: "hs"
      access: public_access
      linker_set_key: "false"
    }
    default_arg: false
  }
  parameters {
    basic_abi {
      type_abi {
        name: "const char *"
        size: 8
        alignment: 8
      }
      name: "s"
      access: public_access
      linker_set_key: "false"
    }
    default_arg: false
  }
}
functions {
  basic_abi {
    type_abi {
      name: "bool"
      size: 1
      alignment: 1
    }
    name: "android::hardware::operator<="
    access: public_access
    linker_set_key: "_ZN7android8hardwareleEPKcRKNS0_11hidl_stringE"
  }
  mangled_function_name: "_ZN7android8hardwareleEPKcRKNS0_11hidl_stringE"
  source_file: "system/libhidl/base/include/hidl/HidlSupport.h"
  parameters {
    basic_abi {
      type_abi {
        name: "const char *"
        size: 8
        alignment: 8
      }
      name: "s"
      access: public_access
      linker_set_key: "false"
    }
    default_arg: false
  }
  parameters {
    basic_abi {
      type_abi {
        name: "const android::hardware::hidl_string &"
        size: 8
        alignment: 8
      }
      name: "hs"
      access: public_access
      linker_set_key: "false"
    }
    default_arg: false
  }
}
functions {
  basic_abi {
    type_abi {
      name: "bool"
      size: 1
      alignment: 1
    }
    name: "android::hardware::operator>"
    access: public_access
    linker_set_key: "_ZN7android8hardwaregtERKNS0_11hidl_stringES3_"
  }
  mangled_function_name: "_ZN7android8hardwaregtERKNS0_11hidl_stringES3_"
  source_file: "system/libhidl/base/include/hidl/HidlSupport.h"
  parameters {
    basic_abi {
      type_abi {
        name: "const android::hardware::hidl_string &"
        size: 8
        alignment: 8
      }
      name: "hs1"
      access: public_access
      linker_set_key: "false"
    }
    default_arg: false
  }
  parameters {
    basic_abi {
      type_abi {
        name: "const android::hardware::hidl_string &"
        size: 8
        alignment: 8
      }
      name: "hs2"
      access: public_access
      linker_set_key: "false"
    }
    default_arg: false
  }
}
functions {
  basic_abi {
    type_abi {
      name: "bool"
      size: 1
      alignment: 1
    }
    name: "android::hardware::operator>"
    access: public_access
    linker_set_key: "_ZN7android8hardwaregtERKNS0_11hidl_stringEPKc"
  }
  mangled_function_name: "_ZN7android8hardwaregtERKNS0_11hidl_stringEPKc"
  source_file: "system/libhidl/base/include/hidl/HidlSupport.h"
  parameters {
    basic_abi {
      type_abi {
        name: "const android::hardware::hidl_string &"
        size: 8
        alignment: 8
      }
      name: "hs"
      access: public_access
      linker_set_key: "false"
    }
    default_arg: false
  }
  parameters {
    basic_abi {
      type_abi {
        name: "const char *"
        size: 8
        alignment: 8
      }
      name: "s"
      access: public_access
      linker_set_key: "false"
    }
    default_arg: false
  }
}
functions {
  basic_abi {
    type_abi {
      name: "bool"
      size: 1
      alignment: 1
    }
    name: "android::hardware::operator>"
    access: public_access
    linker_set_key: "_ZN7android8hardwaregtEPKcRKNS0_11hidl_stringE"
  }
  mangled_function_name: "_ZN7android8hardwaregtEPKcRKNS0_11hidl_stringE"
  source_file: "system/libhidl/base/include/hidl/HidlSupport.h"
  parameters {
    basic_abi {
      type_abi {
        name: "const char *"
        size: 8
        alignment: 8
      }
      name: "s"
      access: public_access
      linker_set_key: "false"
    }
    default_arg: false
  }
  parameters {
    basic_abi {
      type_abi {
        name: "const android::hardware::hidl_string &"
        size: 8
        alignment: 8
      }
      name: "hs"
      access: public_access
      linker_set_key: "false"
    }
    default_arg: false
  }
}
functions {
  basic_abi {
    type_abi {
      name: "bool"
      size: 1
      alignment: 1
    }
    name: "android::hardware::operator>="
    access: public_access
    linker_set_key: "_ZN7android8hardwaregeERKNS0_11hidl_stringES3_"
  }
  mangled_function_name: "_ZN7android8hardwaregeERKNS0_11hidl_stringES3_"
  source_file: "system/libhidl/base/include/hidl/HidlSupport.h"
  parameters {
    basic_abi {
      type_abi {
        name: "const android::hardware::hidl_string &"
        size: 8
        alignment: 8
      }
      name: "hs1"
      access: public_access
      linker_set_key: "false"
    }
    default_arg: false
  }
  parameters {
    basic_abi {
      type_abi {
        name: "const android::hardware::hidl_string &"
        size: 8
        alignment: 8
      }
      name: "hs2"
      access: public_access
      linker_set_key: "false"
    }
    default_arg: false
  }
}
functions {
  basic_abi {
    type_abi {
      name: "bool"
      size: 1
      alignment: 1
    }
    name: "android::hardware::operator>="
    access: public_access
    linker_set_key: "_ZN7android8hardwaregeERKNS0_11hidl_stringEPKc"
  }
  mangled_function_name: "_ZN7android8hardwaregeERKNS0_11hidl_stringEPKc"
  source_file: "system/libhidl/base/include/hidl/HidlSupport.h"
  parameters {
    basic_abi {
      type_abi {
        name: "const android::hardware::hidl_string &"
        size: 8
        alignment: 8
      }
      name: "hs"
      access: public_access
      linker_set_key: "false"
    }
    default_arg: false
  }
  parameters {
    basic_abi {
      type_abi {
        name: "const char *"
        size: 8
        alignment: 8
      }
      name: "s"
      access: public_access
      linker_set_key: "false"
    }
    default_arg: false
  }
}
functions {
  basic_abi {
    type_abi {
      name: "bool"
      size: 1
      alignment: 1
    }
    name: "android::hardware::operator>="
    access: public_access
    linker_set_key: "_ZN7android8hardwaregeEPKcRKNS0_11hidl_stringE"
  }
  mangled_function_name: "_ZN7android8hardwaregeEPKcRKNS0_11hidl_stringE"
  source_file: "system/libhidl/base/include/hidl/HidlSupport.h"
  parameters {
    basic_abi {
      type_abi {
        name: "const char *"
        size: 8
        alignment: 8
      }
      name: "s"
      access: public_access
      linker_set_key: "false"
    }
    default_arg: false
  }
  parameters {
    basic_abi {
      type_abi {
        name: "const android::hardware::hidl_string &"
        size: 8
        alignment: 8
      }
      name: "hs"
      access: public_access
      linker_set_key: "false"
    }
    default_arg: false
  }
}
functions {
  basic_abi {
    type_abi {
      name: "std::basic_ostream<char, std::char_traits<char> > &"
      size: 8
      alignment: 8
    }
    name: "android::hardware::operator<<"
    access: public_access
    linker_set_key: "_ZN7android8hardwarelsERNSt3__113basic_ostreamIcNS1_11char_traitsIcEEEERKNS0_11hidl_stringE"
  }
  mangled_function_name: "_ZN7android8hardwarelsERNSt3__113basic_ostreamIcNS1_11char_traitsIcEEEERKNS0_11hidl_stringE"
  source_file: "system/libhidl/base/include/hidl/HidlSupport.h"
  parameters {
    basic_abi {
      type_abi {
        name: "std::basic_ostream<char, std::char_traits<char> > &"
        size: 8
        alignment: 8
      }
      name: "os"
      access: public_access
      linker_set_key: "false"
    }
    default_arg: false
  }
  parameters {
    basic_abi {
      type_abi {
        name: "const android::hardware::hidl_string &"
        size: 8
        alignment: 8
      }
      name: "str"
      access: public_access
      linker_set_key: "false"
    }
    default_arg: false
  }
}
functions {
  basic_abi {
    type_abi {
      name: "void"
    }
    name: "android::hardware::hidl_memory::hidl_memory"
    access: public_access
    linker_set_key: "_ZN7android8hardware11hidl_memoryC1Ev"
  }
  mangled_function_name: "_ZN7android8hardware11hidl_memoryC1Ev"
  source_file: "system/libhidl/base/include/hidl/HidlSupport.h"
}
functions {
  basic_abi {
    type_abi {
      name: "void"
    }
    name: "android::hardware::hidl_memory::hidl_memory"
    access: public_access
    linker_set_key: "_ZN7android8hardware11hidl_memoryC1ERKNS0_11hidl_stringEPK13native_handlem"
  }
  mangled_function_name: "_ZN7android8hardware11hidl_memoryC1ERKNS0_11hidl_stringEPK13native_handlem"
  source_file: "system/libhidl/base/include/hidl/HidlSupport.h"
  parameters {
    basic_abi {
      type_abi {
        name: "const android::hardware::hidl_string &"
        size: 8
        alignment: 8
      }
      name: "name"
      access: public_access
      linker_set_key: "false"
    }
    default_arg: false
  }
  parameters {
    basic_abi {
      type_abi {
        name: "const native_handle *"
        size: 8
        alignment: 8
      }
      name: "handle"
      access: public_access
      linker_set_key: "false"
    }
    default_arg: false
  }
  parameters {
    basic_abi {
      type_abi {
        name: "unsigned long"
        size: 8
        alignment: 8
      }
      name: "size"
      access: public_access
      linker_set_key: "false"
    }
    default_arg: false
  }
}
functions {
  basic_abi {
    type_abi {
      name: "void"
    }
    name: "android::hardware::hidl_memory::hidl_memory"
    access: public_access
    linker_set_key: "_ZN7android8hardware11hidl_memoryC1ERKS1_"
  }
  mangled_function_name: "_ZN7android8hardware11hidl_memoryC1ERKS1_"
  source_file: "system/libhidl/base/include/hidl/HidlSupport.h"
  parameters {
    basic_abi {
      type_abi {
        name: "const android::hardware::hidl_memory &"
        size: 8
        alignment: 8
      }
      name: "other"
      access: public_access
      linker_set_key: "false"
    }
    default_arg: false
  }
}
functions {
  basic_abi {
    type_abi {
      name: "android::hardware::hidl_memory &"
      size: 8
      alignment: 8
    }
    name: "android::hardware::hidl_memory::operator="
    access: public_access
    linker_set_key: "_ZN7android8hardware11hidl_memoryaSERKS1_"
  }
  mangled_function_name: "_ZN7android8hardware11hidl_memoryaSERKS1_"
  source_file: "system/libhidl/base/include/hidl/HidlSupport.h"
  parameters {
    basic_abi {
      type_abi {
        name: "const android::hardware::hidl_memory &"
        size: 8
        alignment: 8
      }
      name: "other"
      access: public_access
      linker_set_key: "false"
    }
    default_arg: false
  }
}
functions {
  basic_abi {
    type_abi {
      name: "void"
    }
    name: "android::hardware::hidl_memory::hidl_memory"
    access: public_access
    linker_set_key: "_ZN7android8hardware11hidl_memoryC1EOS1_"
  }
  mangled_function_name: "_ZN7android8hardware11hidl_memoryC1EOS1_"
  source_file: "system/libhidl/base/include/hidl/HidlSupport.h"
  parameters {
    basic_abi {
      type_abi {
        name: "android::hardware::hidl_memory &&"
        size: 8
        alignment: 8
      }
      name: "other"
      access: public_access
      linker_set_key: "false"
    }
    default_arg: false
  }
}
functions {
  basic_abi {
    type_abi {
      name: "android::hardware::hidl_memory &"
      size: 8
      alignment: 8
    }
    name: "android::hardware::hidl_memory::operator="
    access: public_access
    linker_set_key: "_ZN7android8hardware11hidl_memoryaSEOS1_"
  }
  mangled_function_name: "_ZN7android8hardware11hidl_memoryaSEOS1_"
  source_file: "system/libhidl/base/include/hidl/HidlSupport.h"
  parameters {
    basic_abi {
      type_abi {
        name: "android::hardware::hidl_memory &&"
        size: 8
        alignment: 8
      }
      name: "other"
      access: public_access
      linker_set_key: "false"
    }
    default_arg: false
  }
}
functions {
  basic_abi {
    type_abi {
      name: "void"
    }
    name: "android::hardware::hidl_memory::~hidl_memory"
    access: public_access
    linker_set_key: "_ZN7android8hardware11hidl_memoryD0Ev"
  }
  mangled_function_name: "_ZN7android8hardware11hidl_memoryD0Ev"
  source_file: "system/libhidl/base/include/hidl/HidlSupport.h"
}
functions {
  basic_abi {
    type_abi {
      name: "const native_handle *"
      size: 8
      alignment: 8
    }
    name: "android::hardware::hidl_memory::handle"
    access: public_access
    linker_set_key: "_ZNK7android8hardware11hidl_memory6handleEv"
  }
  mangled_function_name: "_ZNK7android8hardware11hidl_memory6handleEv"
  source_file: "system/libhidl/base/include/hidl/HidlSupport.h"
}
functions {
  basic_abi {
    type_abi {
      name: "const android::hardware::hidl_string &"
      size: 8
      alignment: 8
    }
    name: "android::hardware::hidl_memory::name"
    access: public_access
    linker_set_key: "_ZNK7android8hardware11hidl_memory4nameEv"
  }
  mangled_function_name: "_ZNK7android8hardware11hidl_memory4nameEv"
  source_file: "system/libhidl/base/include/hidl/HidlSupport.h"
}
functions {
  basic_abi {
    type_abi {
      name: "unsigned long"
      size: 8
      alignment: 8
    }
    name: "android::hardware::hidl_memory::size"
    access: public_access
    linker_set_key: "_ZNK7android8hardware11hidl_memory4sizeEv"
  }
  mangled_function_name: "_ZNK7android8hardware11hidl_memory4sizeEv"
  source_file: "system/libhidl/base/include/hidl/HidlSupport.h"
}
functions {
  basic_abi {
    type_abi {
      name: "void"
    }
    name: "android::hardware::hidl_vec::hidl_vec<T>"
    access: public_access
    linker_set_key: "_ZN7android8hardware8hidl_vecC1Ev"
  }
  mangled_function_name: "_ZN7android8hardware8hidl_vecC1Ev"
  source_file: "system/libhidl/base/include/hidl/HidlSupport.h"
}
functions {
  basic_abi {
    type_abi {
      name: "void"
    }
    name: "android::hardware::hidl_vec::hidl_vec<T>"
    access: public_access
    linker_set_key: "_ZN7android8hardware8hidl_vecC1ERKNS0_8hidl_vecIT_EE"
  }
  mangled_function_name: "_ZN7android8hardware8hidl_vecC1ERKNS0_8hidl_vecIT_EE"
  source_file: "system/libhidl/base/include/hidl/HidlSupport.h"
  parameters {
    basic_abi {
      type_abi {
        name: "const hidl_vec<T> &"
      }
      name: "other"
      access: public_access
      linker_set_key: "false"
    }
    default_arg: false
  }
}
functions {
  basic_abi {
    type_abi {
      name: "void"
    }
    name: "android::hardware::hidl_vec::hidl_vec<T>"
    access: public_access
    linker_set_key: "_ZN7android8hardware8hidl_vecC1EONS0_8hidl_vecIT_EE"
  }
  mangled_function_name: "_ZN7android8hardware8hidl_vecC1EONS0_8hidl_vecIT_EE"
  source_file: "system/libhidl/base/include/hidl/HidlSupport.h"
  parameters {
    basic_abi {
      type_abi {
        name: "hidl_vec<T> &&"
      }
      name: "other"
      access: public_access
      linker_set_key: "false"
    }
    default_arg: false
  }
}
functions {
  basic_abi {
    type_abi {
      name: "void"
    }
    name: "android::hardware::hidl_vec::hidl_vec<T>"
    access: public_access
    linker_set_key: "_ZN7android8hardware8hidl_vecC1ESt16initializer_listIT_E"
  }
  mangled_function_name: "_ZN7android8hardware8hidl_vecC1ESt16initializer_listIT_E"
  source_file: "system/libhidl/base/include/hidl/HidlSupport.h"
  parameters {
    basic_abi {
      type_abi {
        name: "const initializer_list<type-parameter-0-0>"
      }
      name: "list"
      access: public_access
      linker_set_key: "false"
    }
    default_arg: false
  }
}
functions {
  basic_abi {
    type_abi {
      name: "void"
    }
    name: "android::hardware::hidl_vec::hidl_vec<T>"
    access: public_access
    linker_set_key: "_ZN7android8hardware8hidl_vecC1ERKNSt3__16vectorIT_NS2_9allocatorIS4_EEEE"
  }
  mangled_function_name: "_ZN7android8hardware8hidl_vecC1ERKNSt3__16vectorIT_NS2_9allocatorIS4_EEEE"
  source_file: "system/libhidl/base/include/hidl/HidlSupport.h"
  parameters {
    basic_abi {
      type_abi {
        name: "const vector<type-parameter-0-0, allocator<type-parameter-0-0> > &"
      }
      name: "other"
      access: public_access
      linker_set_key: "false"
    }
    default_arg: false
  }
}
functions {
  basic_abi {
    type_abi {
      name: "void"
    }
    name: "android::hardware::hidl_vec::~hidl_vec<T>"
    access: public_access
    linker_set_key: "_ZN7android8hardware8hidl_vecD0Ev"
  }
  mangled_function_name: "_ZN7android8hardware8hidl_vecD0Ev"
  source_file: "system/libhidl/base/include/hidl/HidlSupport.h"
}
functions {
  basic_abi {
    type_abi {
      name: "void"
    }
    name: "android::hardware::hidl_vec::setToExternal"
    access: public_access
    linker_set_key: "_ZN7android8hardware8hidl_vec13setToExternalEPT_mb"
  }
  mangled_function_name: "_ZN7android8hardware8hidl_vec13setToExternalEPT_mb"
  source_file: "system/libhidl/base/include/hidl/HidlSupport.h"
  parameters {
    basic_abi {
      type_abi {
        name: "type-parameter-0-0 *"
      }
      name: "data"
      access: public_access
      linker_set_key: "false"
    }
    default_arg: false
  }
  parameters {
    basic_abi {
      type_abi {
        name: "unsigned long"
        size: 8
        alignment: 8
      }
      name: "size"
      access: public_access
      linker_set_key: "false"
    }
    default_arg: false
  }
  parameters {
    basic_abi {
      type_abi {
        name: "bool"
        size: 1
        alignment: 1
      }
      name: "shouldOwn"
      access: public_access
      linker_set_key: "true"
    }
    default_arg: true
  }
}
functions {
  basic_abi {
    type_abi {
      name: "type-parameter-0-0 *"
    }
    name: "android::hardware::hidl_vec::data"
    access: public_access
    linker_set_key: "_ZN7android8hardware8hidl_vec4dataEv"
  }
  mangled_function_name: "_ZN7android8hardware8hidl_vec4dataEv"
  source_file: "system/libhidl/base/include/hidl/HidlSupport.h"
}
functions {
  basic_abi {
    type_abi {
      name: "const type-parameter-0-0 *"
    }
    name: "android::hardware::hidl_vec::data"
    access: public_access
    linker_set_key: "_ZNK7android8hardware8hidl_vec4dataEv"
  }
  mangled_function_name: "_ZNK7android8hardware8hidl_vec4dataEv"
  source_file: "system/libhidl/base/include/hidl/HidlSupport.h"
}
functions {
  basic_abi {
    type_abi {
      name: "type-parameter-0-0 *"
    }
    name: "android::hardware::hidl_vec::releaseData"
    access: public_access
    linker_set_key: "_ZN7android8hardware8hidl_vec11releaseDataEv"
  }
  mangled_function_name: "_ZN7android8hardware8hidl_vec11releaseDataEv"
  source_file: "system/libhidl/base/include/hidl/HidlSupport.h"
}
functions {
  basic_abi {
    type_abi {
      name: "hidl_vec<T> &"
    }
    name: "android::hardware::hidl_vec::operator="
    access: public_access
    linker_set_key: "_ZN7android8hardware8hidl_vecaSEONS0_8hidl_vecIT_EE"
  }
  mangled_function_name: "_ZN7android8hardware8hidl_vecaSEONS0_8hidl_vecIT_EE"
  source_file: "system/libhidl/base/include/hidl/HidlSupport.h"
  parameters {
    basic_abi {
      type_abi {
        name: "hidl_vec<T> &&"
      }
      name: "other"
      access: public_access
      linker_set_key: "false"
    }
    default_arg: false
  }
}
functions {
  basic_abi {
    type_abi {
      name: "hidl_vec<T> &"
    }
    name: "android::hardware::hidl_vec::operator="
    access: public_access
    linker_set_key: "_ZN7android8hardware8hidl_vecaSERKNS0_8hidl_vecIT_EE"
  }
  mangled_function_name: "_ZN7android8hardware8hidl_vecaSERKNS0_8hidl_vecIT_EE"
  source_file: "system/libhidl/base/include/hidl/HidlSupport.h"
  parameters {
    basic_abi {
      type_abi {
        name: "const hidl_vec<T> &"
      }
      name: "other"
      access: public_access
      linker_set_key: "false"
    }
    default_arg: false
  }
}
functions {
  basic_abi {
    type_abi {
      name: "hidl_vec<T> &"
    }
    name: "android::hardware::hidl_vec::operator="
    access: public_access
    linker_set_key: "_ZN7android8hardware8hidl_vecaSERKNSt3__16vectorIT_NS2_9allocatorIS4_EEEE"
  }
  mangled_function_name: "_ZN7android8hardware8hidl_vecaSERKNSt3__16vectorIT_NS2_9allocatorIS4_EEEE"
  source_file: "system/libhidl/base/include/hidl/HidlSupport.h"
  parameters {
    basic_abi {
      type_abi {
        name: "const vector<type-parameter-0-0, allocator<type-parameter-0-0> > &"
      }
      name: "other"
      access: public_access
      linker_set_key: "false"
    }
    default_arg: false
  }
}
functions {
  basic_abi {
    type_abi {
      name: "vector<type-parameter-0-0, allocator<type-parameter-0-0> >"
    }
    name: "android::hardware::hidl_vec::operator vector<type-parameter-0-0, allocator<type-parameter-0-0> >"
    access: public_access
    linker_set_key: "_ZNK7android8hardware8hidl_veccvNSt3__16vectorIT_NS2_9allocatorIS4_EEEEEv"
  }
  mangled_function_name: "_ZNK7android8hardware8hidl_veccvNSt3__16vectorIT_NS2_9allocatorIS4_EEEEEv"
  source_file: "system/libhidl/base/include/hidl/HidlSupport.h"
}
functions {
  basic_abi {
    type_abi {
      name: "bool"
      size: 1
      alignment: 1
    }
    name: "android::hardware::hidl_vec::operator=="
    access: public_access
    linker_set_key: "_ZNK7android8hardware8hidl_veceqERKNS0_8hidl_vecIT_EE"
  }
  mangled_function_name: "_ZNK7android8hardware8hidl_veceqERKNS0_8hidl_vecIT_EE"
  source_file: "system/libhidl/base/include/hidl/HidlSupport.h"
  parameters {
    basic_abi {
      type_abi {
        name: "const hidl_vec<T> &"
      }
      name: "other"
      access: public_access
      linker_set_key: "false"
    }
    default_arg: false
  }
}
functions {
  basic_abi {
    type_abi {
      name: "bool"
      size: 1
      alignment: 1
    }
    name: "android::hardware::hidl_vec::operator!="
    access: public_access
    linker_set_key: "_ZNK7android8hardware8hidl_vecneERKNS0_8hidl_vecIT_EE"
  }
  mangled_function_name: "_ZNK7android8hardware8hidl_vecneERKNS0_8hidl_vecIT_EE"
  source_file: "system/libhidl/base/include/hidl/HidlSupport.h"
  parameters {
    basic_abi {
      type_abi {
        name: "const hidl_vec<T> &"
      }
      name: "other"
      access: public_access
      linker_set_key: "false"
    }
    default_arg: false
  }
}
functions {
  basic_abi {
    type_abi {
      name: "unsigned long"
      size: 8
      alignment: 8
    }
    name: "android::hardware::hidl_vec::size"
    access: public_access
    linker_set_key: "_ZNK7android8hardware8hidl_vec4sizeEv"
  }
  mangled_function_name: "_ZNK7android8hardware8hidl_vec4sizeEv"
  source_file: "system/libhidl/base/include/hidl/HidlSupport.h"
}
functions {
  basic_abi {
    type_abi {
      name: "type-parameter-0-0 &"
    }
    name: "android::hardware::hidl_vec::operator[]"
    access: public_access
    linker_set_key: "_ZN7android8hardware8hidl_vecixEm"
  }
  mangled_function_name: "_ZN7android8hardware8hidl_vecixEm"
  source_file: "system/libhidl/base/include/hidl/HidlSupport.h"
  parameters {
    basic_abi {
      type_abi {
        name: "unsigned long"
        size: 8
        alignment: 8
      }
      name: "index"
      access: public_access
      linker_set_key: "false"
    }
    default_arg: false
  }
}
functions {
  basic_abi {
    type_abi {
      name: "const type-parameter-0-0 &"
    }
    name: "android::hardware::hidl_vec::operator[]"
    access: public_access
    linker_set_key: "_ZNK7android8hardware8hidl_vecixEm"
  }
  mangled_function_name: "_ZNK7android8hardware8hidl_vecixEm"
  source_file: "system/libhidl/base/include/hidl/HidlSupport.h"
  parameters {
    basic_abi {
      type_abi {
        name: "unsigned long"
        size: 8
        alignment: 8
      }
      name: "index"
      access: public_access
      linker_set_key: "false"
    }
    default_arg: false
  }
}
functions {
  basic_abi {
    type_abi {
      name: "void"
    }
    name: "android::hardware::hidl_vec::resize"
    access: public_access
    linker_set_key: "_ZN7android8hardware8hidl_vec6resizeEm"
  }
  mangled_function_name: "_ZN7android8hardware8hidl_vec6resizeEm"
  source_file: "system/libhidl/base/include/hidl/HidlSupport.h"
  parameters {
    basic_abi {
      type_abi {
        name: "unsigned long"
        size: 8
        alignment: 8
      }
      name: "size"
      access: public_access
      linker_set_key: "false"
    }
    default_arg: false
  }
}
functions {
  basic_abi {
    type_abi {
      name: "void"
    }
    name: "android::hardware::hidl_vec::iter::iter<is_const>"
    access: public_access
    linker_set_key: "_ZN7android8hardware8hidl_vec4iterC1ENSt3__115iterator_traitsINS1_4iterIXT_EEEE7pointerE"
  }
  mangled_function_name: "_ZN7android8hardware8hidl_vec4iterC1ENSt3__115iterator_traitsINS1_4iterIXT_EEEE7pointerE"
  source_file: "system/libhidl/base/include/hidl/HidlSupport.h"
  parameters {
    basic_abi {
      type_abi {
        name: "typename iterator_traits<iter<is_const> >::pointer"
      }
      name: "ptr"
      access: public_access
      linker_set_key: "false"
    }
    default_arg: false
  }
}
functions {
  basic_abi {
    type_abi {
      name: "iter<is_const> &"
    }
    name: "android::hardware::hidl_vec::iter::operator++"
    access: public_access
    linker_set_key: "_ZN7android8hardware8hidl_vec4iterppEv"
  }
  mangled_function_name: "_ZN7android8hardware8hidl_vec4iterppEv"
  source_file: "system/libhidl/base/include/hidl/HidlSupport.h"
}
functions {
  basic_abi {
    type_abi {
      name: "iter<is_const>"
    }
    name: "android::hardware::hidl_vec::iter::operator++"
    access: public_access
    linker_set_key: "_ZN7android8hardware8hidl_vec4iterppEi"
  }
  mangled_function_name: "_ZN7android8hardware8hidl_vec4iterppEi"
  source_file: "system/libhidl/base/include/hidl/HidlSupport.h"
  parameters {
    basic_abi {
      type_abi {
        name: "int"
        size: 4
        alignment: 4
      }
      name: ""
      access: public_access
      linker_set_key: "false"
    }
    default_arg: false
  }
}
functions {
  basic_abi {
    type_abi {
      name: "iter<is_const> &"
    }
    name: "android::hardware::hidl_vec::iter::operator--"
    access: public_access
    linker_set_key: "_ZN7android8hardware8hidl_vec4itermmEv"
  }
  mangled_function_name: "_ZN7android8hardware8hidl_vec4itermmEv"
  source_file: "system/libhidl/base/include/hidl/HidlSupport.h"
}
functions {
  basic_abi {
    type_abi {
      name: "iter<is_const>"
    }
    name: "android::hardware::hidl_vec::iter::operator--"
    access: public_access
    linker_set_key: "_ZN7android8hardware8hidl_vec4itermmEi"
  }
  mangled_function_name: "_ZN7android8hardware8hidl_vec4itermmEi"
  source_file: "system/libhidl/base/include/hidl/HidlSupport.h"
  parameters {
    basic_abi {
      type_abi {
        name: "int"
        size: 4
        alignment: 4
      }
      name: ""
      access: public_access
      linker_set_key: "false"
    }
    default_arg: false
  }
}
functions {
  basic_abi {
    type_abi {
      name: "iter<is_const>"
    }
    name: "android::hardware::operator+"
    access: public_access
    linker_set_key: "_ZN7android8hardwareplENSt3__115iterator_traitsINS0_8hidl_vec4iterIXT_EEEE15difference_typeERKS6_"
  }
  mangled_function_name: "_ZN7android8hardwareplENSt3__115iterator_traitsINS0_8hidl_vec4iterIXT_EEEE15difference_typeERKS6_"
  source_file: "system/libhidl/base/include/hidl/HidlSupport.h"
  parameters {
    basic_abi {
      type_abi {
        name: "typename iterator_traits<iter<is_const> >::difference_type"
      }
      name: "n"
      access: public_access
      linker_set_key: "false"
    }
    default_arg: false
  }
  parameters {
    basic_abi {
      type_abi {
        name: "const iter<is_const> &"
      }
      name: "it"
      access: public_access
      linker_set_key: "false"
    }
    default_arg: false
  }
}
functions {
  basic_abi {
    type_abi {
      name: "iter<is_const>"
    }
    name: "android::hardware::hidl_vec::iter::operator+"
    access: public_access
    linker_set_key: "_ZNK7android8hardware8hidl_vec4iterplENSt3__115iterator_traitsINS1_4iterIXT_EEEE15difference_typeE"
  }
  mangled_function_name: "_ZNK7android8hardware8hidl_vec4iterplENSt3__115iterator_traitsINS1_4iterIXT_EEEE15difference_typeE"
  source_file: "system/libhidl/base/include/hidl/HidlSupport.h"
  parameters {
    basic_abi {
      type_abi {
        name: "typename iterator_traits<iter<is_const> >::difference_type"
      }
      name: "n"
      access: public_access
      linker_set_key: "false"
    }
    default_arg: false
  }
}
functions {
  basic_abi {
    type_abi {
      name: "iter<is_const>"
    }
    name: "android::hardware::hidl_vec::iter::operator-"
    access: public_access
    linker_set_key: "_ZNK7android8hardware8hidl_vec4itermiENSt3__115iterator_traitsINS1_4iterIXT_EEEE15difference_typeE"
  }
  mangled_function_name: "_ZNK7android8hardware8hidl_vec4itermiENSt3__115iterator_traitsINS1_4iterIXT_EEEE15difference_typeE"
  source_file: "system/libhidl/base/include/hidl/HidlSupport.h"
  parameters {
    basic_abi {
      type_abi {
        name: "typename iterator_traits<iter<is_const> >::difference_type"
      }
      name: "n"
      access: public_access
      linker_set_key: "false"
    }
    default_arg: false
  }
}
functions {
  basic_abi {
    type_abi {
      name: "typename iterator_traits<iter<is_const> >::difference_type"
    }
    name: "android::hardware::hidl_vec::iter::operator-"
    access: public_access
    linker_set_key: "_ZNK7android8hardware8hidl_vec4itermiERKNS1_4iterIXT_EEE"
  }
  mangled_function_name: "_ZNK7android8hardware8hidl_vec4itermiERKNS1_4iterIXT_EEE"
  source_file: "system/libhidl/base/include/hidl/HidlSupport.h"
  parameters {
    basic_abi {
      type_abi {
        name: "const iter<is_const> &"
      }
      name: "other"
      access: public_access
      linker_set_key: "false"
    }
    default_arg: false
  }
}
functions {
  basic_abi {
    type_abi {
      name: "iter<is_const> &"
    }
    name: "android::hardware::hidl_vec::iter::operator+="
    access: public_access
    linker_set_key: "_ZN7android8hardware8hidl_vec4iterpLENSt3__115iterator_traitsINS1_4iterIXT_EEEE15difference_typeE"
  }
  mangled_function_name: "_ZN7android8hardware8hidl_vec4iterpLENSt3__115iterator_traitsINS1_4iterIXT_EEEE15difference_typeE"
  source_file: "system/libhidl/base/include/hidl/HidlSupport.h"
  parameters {
    basic_abi {
      type_abi {
        name: "typename iterator_traits<iter<is_const> >::difference_type"
      }
      name: "n"
      access: public_access
      linker_set_key: "false"
    }
    default_arg: false
  }
}
functions {
  basic_abi {
    type_abi {
      name: "iter<is_const> &"
    }
    name: "android::hardware::hidl_vec::iter::operator-="
    access: public_access
    linker_set_key: "_ZN7android8hardware8hidl_vec4itermIENSt3__115iterator_traitsINS1_4iterIXT_EEEE15difference_typeE"
  }
  mangled_function_name: "_ZN7android8hardware8hidl_vec4itermIENSt3__115iterator_traitsINS1_4iterIXT_EEEE15difference_typeE"
  source_file: "system/libhidl/base/include/hidl/HidlSupport.h"
  parameters {
    basic_abi {
      type_abi {
        name: "typename iterator_traits<iter<is_const> >::difference_type"
      }
      name: "n"
      access: public_access
      linker_set_key: "false"
    }
    default_arg: false
  }
}
functions {
  basic_abi {
    type_abi {
      name: "typename iterator_traits<iter<is_const> >::reference"
    }
    name: "android::hardware::hidl_vec::iter::operator*"
    access: public_access
    linker_set_key: "_ZNK7android8hardware8hidl_vec4iterdeEv"
  }
  mangled_function_name: "_ZNK7android8hardware8hidl_vec4iterdeEv"
  source_file: "system/libhidl/base/include/hidl/HidlSupport.h"
}
functions {
  basic_abi {
    type_abi {
      name: "typename iterator_traits<iter<is_const> >::pointer"
    }
    name: "android::hardware::hidl_vec::iter::operator->"
    access: public_access
    linker_set_key: "_ZNK7android8hardware8hidl_vec4iterptEv"
  }
  mangled_function_name: "_ZNK7android8hardware8hidl_vec4iterptEv"
  source_file: "system/libhidl/base/include/hidl/HidlSupport.h"
}
functions {
  basic_abi {
    type_abi {
      name: "bool"
      size: 1
      alignment: 1
    }
    name: "android::hardware::hidl_vec::iter::operator=="
    access: public_access
    linker_set_key: "_ZNK7android8hardware8hidl_vec4itereqERKNS1_4iterIXT_EEE"
  }
  mangled_function_name: "_ZNK7android8hardware8hidl_vec4itereqERKNS1_4iterIXT_EEE"
  source_file: "system/libhidl/base/include/hidl/HidlSupport.h"
  parameters {
    basic_abi {
      type_abi {
        name: "const iter<is_const> &"
      }
      name: "rhs"
      access: public_access
      linker_set_key: "false"
    }
    default_arg: false
  }
}
functions {
  basic_abi {
    type_abi {
      name: "bool"
      size: 1
      alignment: 1
    }
    name: "android::hardware::hidl_vec::iter::operator!="
    access: public_access
    linker_set_key: "_ZNK7android8hardware8hidl_vec4iterneERKNS1_4iterIXT_EEE"
  }
  mangled_function_name: "_ZNK7android8hardware8hidl_vec4iterneERKNS1_4iterIXT_EEE"
  source_file: "system/libhidl/base/include/hidl/HidlSupport.h"
  parameters {
    basic_abi {
      type_abi {
        name: "const iter<is_const> &"
      }
      name: "rhs"
      access: public_access
      linker_set_key: "false"
    }
    default_arg: false
  }
}
functions {
  basic_abi {
    type_abi {
      name: "bool"
      size: 1
      alignment: 1
    }
    name: "android::hardware::hidl_vec::iter::operator<"
    access: public_access
    linker_set_key: "_ZNK7android8hardware8hidl_vec4iterltERKNS1_4iterIXT_EEE"
  }
  mangled_function_name: "_ZNK7android8hardware8hidl_vec4iterltERKNS1_4iterIXT_EEE"
  source_file: "system/libhidl/base/include/hidl/HidlSupport.h"
  parameters {
    basic_abi {
      type_abi {
        name: "const iter<is_const> &"
      }
      name: "rhs"
      access: public_access
      linker_set_key: "false"
    }
    default_arg: false
  }
}
functions {
  basic_abi {
    type_abi {
      name: "bool"
      size: 1
      alignment: 1
    }
    name: "android::hardware::hidl_vec::iter::operator>"
    access: public_access
    linker_set_key: "_ZNK7android8hardware8hidl_vec4itergtERKNS1_4iterIXT_EEE"
  }
  mangled_function_name: "_ZNK7android8hardware8hidl_vec4itergtERKNS1_4iterIXT_EEE"
  source_file: "system/libhidl/base/include/hidl/HidlSupport.h"
  parameters {
    basic_abi {
      type_abi {
        name: "const iter<is_const> &"
      }
      name: "rhs"
      access: public_access
      linker_set_key: "false"
    }
    default_arg: false
  }
}
functions {
  basic_abi {
    type_abi {
      name: "bool"
      size: 1
      alignment: 1
    }
    name: "android::hardware::hidl_vec::iter::operator<="
    access: public_access
    linker_set_key: "_ZNK7android8hardware8hidl_vec4iterleERKNS1_4iterIXT_EEE"
  }
  mangled_function_name: "_ZNK7android8hardware8hidl_vec4iterleERKNS1_4iterIXT_EEE"
  source_file: "system/libhidl/base/include/hidl/HidlSupport.h"
  parameters {
    basic_abi {
      type_abi {
        name: "const iter<is_const> &"
      }
      name: "rhs"
      access: public_access
      linker_set_key: "false"
    }
    default_arg: false
  }
}
functions {
  basic_abi {
    type_abi {
      name: "bool"
      size: 1
      alignment: 1
    }
    name: "android::hardware::hidl_vec::iter::operator>="
    access: public_access
    linker_set_key: "_ZNK7android8hardware8hidl_vec4itergeERKNS1_4iterIXT_EEE"
  }
  mangled_function_name: "_ZNK7android8hardware8hidl_vec4itergeERKNS1_4iterIXT_EEE"
  source_file: "system/libhidl/base/include/hidl/HidlSupport.h"
  parameters {
    basic_abi {
      type_abi {
        name: "const iter<is_const> &"
      }
      name: "rhs"
      access: public_access
      linker_set_key: "false"
    }
    default_arg: false
  }
}
functions {
  basic_abi {
    type_abi {
      name: "typename iterator_traits<iter<is_const> >::reference"
    }
    name: "android::hardware::hidl_vec::iter::operator[]"
    access: public_access
    linker_set_key: "_ZNK7android8hardware8hidl_vec4iterixEm"
  }
  mangled_function_name: "_ZNK7android8hardware8hidl_vec4iterixEm"
  source_file: "system/libhidl/base/include/hidl/HidlSupport.h"
  parameters {
    basic_abi {
      type_abi {
        name: "unsigned long"
        size: 8
        alignment: 8
      }
      name: "n"
      access: public_access
      linker_set_key: "false"
    }
    default_arg: false
  }
}
functions {
  basic_abi {
    type_abi {
      name: "iter<false>"
    }
    name: "android::hardware::hidl_vec::begin"
    access: public_access
    linker_set_key: "_ZN7android8hardware8hidl_vec5beginEv"
  }
  mangled_function_name: "_ZN7android8hardware8hidl_vec5beginEv"
  source_file: "system/libhidl/base/include/hidl/HidlSupport.h"
}
functions {
  basic_abi {
    type_abi {
      name: "iter<false>"
    }
    name: "android::hardware::hidl_vec::end"
    access: public_access
    linker_set_key: "_ZN7android8hardware8hidl_vec3endEv"
  }
  mangled_function_name: "_ZN7android8hardware8hidl_vec3endEv"
  source_file: "system/libhidl/base/include/hidl/HidlSupport.h"
}
functions {
  basic_abi {
    type_abi {
      name: "iter<true>"
    }
    name: "android::hardware::hidl_vec::begin"
    access: public_access
    linker_set_key: "_ZNK7android8hardware8hidl_vec5beginEv"
  }
  mangled_function_name: "_ZNK7android8hardware8hidl_vec5beginEv"
  source_file: "system/libhidl/base/include/hidl/HidlSupport.h"
}
functions {
  basic_abi {
    type_abi {
      name: "iter<true>"
    }
    name: "android::hardware::hidl_vec::end"
    access: public_access
    linker_set_key: "_ZNK7android8hardware8hidl_vec3endEv"
  }
  mangled_function_name: "_ZNK7android8hardware8hidl_vec3endEv"
  source_file: "system/libhidl/base/include/hidl/HidlSupport.h"
}
functions {
  basic_abi {
    type_abi {
      name: "void"
    }
    name: "android::hardware::hidl_vec::copyFrom"
    access: private_access
    linker_set_key: "_ZN7android8hardware8hidl_vec8copyFromERKT_m"
  }
  mangled_function_name: "_ZN7android8hardware8hidl_vec8copyFromERKT_m"
  source_file: "system/libhidl/base/include/hidl/HidlSupport.h"
  parameters {
    basic_abi {
      type_abi {
        name: "const type-parameter-1-0 &"
      }
      name: "data"
      access: public_access
      linker_set_key: "false"
    }
    default_arg: false
  }
  parameters {
    basic_abi {
      type_abi {
        name: "unsigned long"
        size: 8
        alignment: 8
      }
      name: "size"
      access: public_access
      linker_set_key: "false"
    }
    default_arg: false
  }
  template_info {
    elements {
      basic_abi {
        name: "Array"
        linker_set_key: "Array"
      }
    }
  }
}
functions {
  basic_abi {
    type_abi {
      name: "void"
    }
    name: "android::hardware::details::accessor::accessor<T, SIZE1, SIZES...>"
    access: public_access
    linker_set_key: "_ZN7android8hardware7details8accessorC1EPT_"
  }
  mangled_function_name: "_ZN7android8hardware7details8accessorC1EPT_"
  source_file: "system/libhidl/base/include/hidl/HidlSupport.h"
  parameters {
    basic_abi {
      type_abi {
        name: "type-parameter-0-0 *"
      }
      name: "base"
      access: public_access
      linker_set_key: "false"
    }
    default_arg: false
  }
}
functions {
  basic_abi {
    type_abi {
      name: "accessor<type-parameter-0-0, SIZES...>"
    }
    name: "android::hardware::details::accessor::operator[]"
    access: public_access
    linker_set_key: "_ZN7android8hardware7details8accessorixEm"
  }
  mangled_function_name: "_ZN7android8hardware7details8accessorixEm"
  source_file: "system/libhidl/base/include/hidl/HidlSupport.h"
  parameters {
    basic_abi {
      type_abi {
        name: "unsigned long"
        size: 8
        alignment: 8
      }
      name: "index"
      access: public_access
      linker_set_key: "false"
    }
    default_arg: false
  }
}
functions {
  basic_abi {
    type_abi {
      name: "accessor<T, SIZE1, SIZES...> &"
    }
    name: "android::hardware::details::accessor::operator="
    access: public_access
    linker_set_key: "_ZN7android8hardware7details8accessoraSERKNS1_9std_arrayIT_XT0_EJXspT1_EEE4typeE"
  }
  mangled_function_name: "_ZN7android8hardware7details8accessoraSERKNS1_9std_arrayIT_XT0_EJXspT1_EEE4typeE"
  source_file: "system/libhidl/base/include/hidl/HidlSupport.h"
  parameters {
    basic_abi {
      type_abi {
        name: "const typename std_array<type-parameter-0-0, SIZE1, SIZES...>::type &"
      }
      name: "other"
      access: public_access
      linker_set_key: "false"
    }
    default_arg: false
  }
}
functions {
  basic_abi {
    type_abi {
      name: "void"
    }
    name: "android::hardware::details::accessor<type-parameter-0-0, SIZE1>::accessor<type-parameter-0-0, SIZE1>"
    access: public_access
    linker_set_key: "_ZN7android8hardware7details8accessorIT_XT0_EJEEC1EPS3_"
  }
  mangled_function_name: "_ZN7android8hardware7details8accessorIT_XT0_EJEEC1EPS3_"
  source_file: "system/libhidl/base/include/hidl/HidlSupport.h"
  parameters {
    basic_abi {
      type_abi {
        name: "type-parameter-0-0 *"
      }
      name: "base"
      access: public_access
      linker_set_key: "false"
    }
    default_arg: false
  }
}
functions {
  basic_abi {
    type_abi {
      name: "type-parameter-0-0 &"
    }
    name: "android::hardware::details::accessor<type-parameter-0-0, SIZE1>::operator[]"
    access: public_access
    linker_set_key: "_ZN7android8hardware7details8accessorIT_XT0_EJEEixEm"
  }
  mangled_function_name: "_ZN7android8hardware7details8accessorIT_XT0_EJEEixEm"
  source_file: "system/libhidl/base/include/hidl/HidlSupport.h"
  parameters {
    basic_abi {
      type_abi {
        name: "unsigned long"
        size: 8
        alignment: 8
      }
      name: "index"
      access: public_access
      linker_set_key: "false"
    }
    default_arg: false
  }
}
functions {
  basic_abi {
    type_abi {
      name: "accessor<type-parameter-0-0, SIZE1> &"
    }
    name: "android::hardware::details::accessor<type-parameter-0-0, SIZE1>::operator="
    access: public_access
    linker_set_key: "_ZN7android8hardware7details8accessorIT_XT0_EJEEaSERKNS1_9std_arrayIS3_XT0_EJEE4typeE"
  }
  mangled_function_name: "_ZN7android8hardware7details8accessorIT_XT0_EJEEaSERKNS1_9std_arrayIS3_XT0_EJEE4typeE"
  source_file: "system/libhidl/base/include/hidl/HidlSupport.h"
  parameters {
    basic_abi {
      type_abi {
        name: "const typename std_array<type-parameter-0-0, SIZE1>::type &"
      }
      name: "other"
      access: public_access
      linker_set_key: "false"
    }
    default_arg: false
  }
}
functions {
  basic_abi {
    type_abi {
      name: "void"
    }
    name: "android::hardware::details::const_accessor::const_accessor<T, SIZE1, SIZES...>"
    access: public_access
    linker_set_key: "_ZN7android8hardware7details14const_accessorC1EPKT_"
  }
  mangled_function_name: "_ZN7android8hardware7details14const_accessorC1EPKT_"
  source_file: "system/libhidl/base/include/hidl/HidlSupport.h"
  parameters {
    basic_abi {
      type_abi {
        name: "const type-parameter-0-0 *"
      }
      name: "base"
      access: public_access
      linker_set_key: "false"
    }
    default_arg: false
  }
}
functions {
  basic_abi {
    type_abi {
      name: "const_accessor<type-parameter-0-0, SIZES...>"
    }
    name: "android::hardware::details::const_accessor::operator[]"
    access: public_access
    linker_set_key: "_ZNK7android8hardware7details14const_accessorixEm"
  }
  mangled_function_name: "_ZNK7android8hardware7details14const_accessorixEm"
  source_file: "system/libhidl/base/include/hidl/HidlSupport.h"
  parameters {
    basic_abi {
      type_abi {
        name: "unsigned long"
        size: 8
        alignment: 8
      }
      name: "index"
      access: public_access
      linker_set_key: "false"
    }
    default_arg: false
  }
}
functions {
  basic_abi {
    type_abi {
      name: "typename std_array<type-parameter-0-0, SIZE1, SIZES...>::type"
    }
    name: "android::hardware::details::const_accessor::operator typename std_array<type-parameter-0-0, SIZE1, SIZES...>::type"
    access: public_access
    linker_set_key: "_ZN7android8hardware7details14const_accessorcvNS1_9std_arrayIT_XT0_EJXspT1_EEE4typeEEv"
  }
  mangled_function_name: "_ZN7android8hardware7details14const_accessorcvNS1_9std_arrayIT_XT0_EJXspT1_EEE4typeEEv"
  source_file: "system/libhidl/base/include/hidl/HidlSupport.h"
}
functions {
  basic_abi {
    type_abi {
      name: "void"
    }
    name: "android::hardware::details::const_accessor<type-parameter-0-0, SIZE1>::const_accessor<type-parameter-0-0, SIZE1>"
    access: public_access
    linker_set_key: "_ZN7android8hardware7details14const_accessorIT_XT0_EJEEC1EPKS3_"
  }
  mangled_function_name: "_ZN7android8hardware7details14const_accessorIT_XT0_EJEEC1EPKS3_"
  source_file: "system/libhidl/base/include/hidl/HidlSupport.h"
  parameters {
    basic_abi {
      type_abi {
        name: "const type-parameter-0-0 *"
      }
      name: "base"
      access: public_access
      linker_set_key: "false"
    }
    default_arg: false
  }
}
functions {
  basic_abi {
    type_abi {
      name: "const type-parameter-0-0 &"
    }
    name: "android::hardware::details::const_accessor<type-parameter-0-0, SIZE1>::operator[]"
    access: public_access
    linker_set_key: "_ZNK7android8hardware7details14const_accessorIT_XT0_EJEEixEm"
  }
  mangled_function_name: "_ZNK7android8hardware7details14const_accessorIT_XT0_EJEEixEm"
  source_file: "system/libhidl/base/include/hidl/HidlSupport.h"
  parameters {
    basic_abi {
      type_abi {
        name: "unsigned long"
        size: 8
        alignment: 8
      }
      name: "index"
      access: public_access
      linker_set_key: "false"
    }
    default_arg: false
  }
}
functions {
  basic_abi {
    type_abi {
      name: "typename std_array<type-parameter-0-0, SIZE1>::type"
    }
    name: "android::hardware::details::const_accessor<type-parameter-0-0, SIZE1>::operator typename std_array<type-parameter-0-0, SIZE1>::type"
    access: public_access
    linker_set_key: "_ZN7android8hardware7details14const_accessorIT_XT0_EJEEcvNS1_9std_arrayIS3_XT0_EJEE4typeEEv"
  }
  mangled_function_name: "_ZN7android8hardware7details14const_accessorIT_XT0_EJEEcvNS1_9std_arrayIS3_XT0_EJEE4typeEEv"
  source_file: "system/libhidl/base/include/hidl/HidlSupport.h"
}
functions {
  basic_abi {
    type_abi {
      name: "void"
    }
    name: "android::hardware::hidl_array::hidl_array<T, SIZE1, SIZES...>"
    access: public_access
    linker_set_key: "_ZN7android8hardware10hidl_arrayC1Ev"
  }
  mangled_function_name: "_ZN7android8hardware10hidl_arrayC1Ev"
  source_file: "system/libhidl/base/include/hidl/HidlSupport.h"
}
functions {
  basic_abi {
    type_abi {
      name: "void"
    }
    name: "android::hardware::hidl_array::hidl_array<T, SIZE1, SIZES...>"
    access: public_access
    linker_set_key: "_ZN7android8hardware10hidl_arrayC1EPKT_"
  }
  mangled_function_name: "_ZN7android8hardware10hidl_arrayC1EPKT_"
  source_file: "system/libhidl/base/include/hidl/HidlSupport.h"
  parameters {
    basic_abi {
      type_abi {
        name: "const type-parameter-0-0 *"
      }
      name: "source"
      access: public_access
      linker_set_key: "false"
    }
    default_arg: false
  }
}
functions {
  basic_abi {
    type_abi {
      name: "void"
    }
    name: "android::hardware::hidl_array::hidl_array<T, SIZE1, SIZES...>"
    access: public_access
    linker_set_key: "_ZN7android8hardware10hidl_arrayC1ERKNS0_7details9std_arrayIT_XT0_EJXspT1_EEE4typeE"
  }
  mangled_function_name: "_ZN7android8hardware10hidl_arrayC1ERKNS0_7details9std_arrayIT_XT0_EJXspT1_EEE4typeE"
  source_file: "system/libhidl/base/include/hidl/HidlSupport.h"
  parameters {
    basic_abi {
      type_abi {
        name: "const typename std_array<type-parameter-0-0, SIZE1, SIZES...>::type &"
      }
      name: "array"
      access: public_access
      linker_set_key: "false"
    }
    default_arg: false
  }
}
functions {
  basic_abi {
    type_abi {
      name: "type-parameter-0-0 *"
    }
    name: "android::hardware::hidl_array::data"
    access: public_access
    linker_set_key: "_ZN7android8hardware10hidl_array4dataEv"
  }
  mangled_function_name: "_ZN7android8hardware10hidl_array4dataEv"
  source_file: "system/libhidl/base/include/hidl/HidlSupport.h"
}
functions {
  basic_abi {
    type_abi {
      name: "const type-parameter-0-0 *"
    }
    name: "android::hardware::hidl_array::data"
    access: public_access
    linker_set_key: "_ZNK7android8hardware10hidl_array4dataEv"
  }
  mangled_function_name: "_ZNK7android8hardware10hidl_array4dataEv"
  source_file: "system/libhidl/base/include/hidl/HidlSupport.h"
}
functions {
  basic_abi {
    type_abi {
      name: "accessor<type-parameter-0-0, SIZES...>"
    }
    name: "android::hardware::hidl_array::operator[]"
    access: public_access
    linker_set_key: "_ZN7android8hardware10hidl_arrayixEm"
  }
  mangled_function_name: "_ZN7android8hardware10hidl_arrayixEm"
  source_file: "system/libhidl/base/include/hidl/HidlSupport.h"
  parameters {
    basic_abi {
      type_abi {
        name: "unsigned long"
        size: 8
        alignment: 8
      }
      name: "index"
      access: public_access
      linker_set_key: "false"
    }
    default_arg: false
  }
}
functions {
  basic_abi {
    type_abi {
      name: "const_accessor<type-parameter-0-0, SIZES...>"
    }
    name: "android::hardware::hidl_array::operator[]"
    access: public_access
    linker_set_key: "_ZNK7android8hardware10hidl_arrayixEm"
  }
  mangled_function_name: "_ZNK7android8hardware10hidl_arrayixEm"
  source_file: "system/libhidl/base/include/hidl/HidlSupport.h"
  parameters {
    basic_abi {
      type_abi {
        name: "unsigned long"
        size: 8
        alignment: 8
      }
      name: "index"
      access: public_access
      linker_set_key: "false"
    }
    default_arg: false
  }
}
functions {
  basic_abi {
    type_abi {
      name: "bool"
      size: 1
      alignment: 1
    }
    name: "android::hardware::hidl_array::operator=="
    access: public_access
    linker_set_key: "_ZNK7android8hardware10hidl_arrayeqERKNS0_10hidl_arrayIT_XT0_EJXspT1_EEEE"
  }
  mangled_function_name: "_ZNK7android8hardware10hidl_arrayeqERKNS0_10hidl_arrayIT_XT0_EJXspT1_EEEE"
  source_file: "system/libhidl/base/include/hidl/HidlSupport.h"
  parameters {
    basic_abi {
      type_abi {
        name: "const hidl_array<T, SIZE1, SIZES...> &"
      }
      name: "other"
      access: public_access
      linker_set_key: "false"
    }
    default_arg: false
  }
}
functions {
  basic_abi {
    type_abi {
      name: "bool"
      size: 1
      alignment: 1
    }
    name: "android::hardware::hidl_array::operator!="
    access: public_access
    linker_set_key: "_ZNK7android8hardware10hidl_arrayneERKNS0_10hidl_arrayIT_XT0_EJXspT1_EEEE"
  }
  mangled_function_name: "_ZNK7android8hardware10hidl_arrayneERKNS0_10hidl_arrayIT_XT0_EJXspT1_EEEE"
  source_file: "system/libhidl/base/include/hidl/HidlSupport.h"
  parameters {
    basic_abi {
      type_abi {
        name: "const hidl_array<T, SIZE1, SIZES...> &"
      }
      name: "other"
      access: public_access
      linker_set_key: "false"
    }
    default_arg: false
  }
}
functions {
  basic_abi {
    type_abi {
      name: "tuple<decltype(SIZE1), decltype(SIZES)...>"
    }
    name: "android::hardware::hidl_array::size"
    access: public_access
    linker_set_key: "_ZN7android8hardware10hidl_array4sizeEv"
  }
  mangled_function_name: "_ZN7android8hardware10hidl_array4sizeEv"
  source_file: "system/libhidl/base/include/hidl/HidlSupport.h"
}
functions {
  basic_abi {
    type_abi {
      name: "unsigned long"
      size: 8
      alignment: 8
    }
    name: "android::hardware::hidl_array::elementCount"
    access: public_access
    linker_set_key: "_ZN7android8hardware10hidl_array12elementCountEv"
  }
  mangled_function_name: "_ZN7android8hardware10hidl_array12elementCountEv"
  source_file: "system/libhidl/base/include/hidl/HidlSupport.h"
}
functions {
  basic_abi {
    type_abi {
      name: "typename std_array<type-parameter-0-0, SIZE1, SIZES...>::type"
    }
    name: "android::hardware::hidl_array::operator typename std_array<type-parameter-0-0, SIZE1, SIZES...>::type"
    access: public_access
    linker_set_key: "_ZNK7android8hardware10hidl_arraycvNS0_7details9std_arrayIT_XT0_EJXspT1_EEE4typeEEv"
  }
  mangled_function_name: "_ZNK7android8hardware10hidl_arraycvNS0_7details9std_arrayIT_XT0_EJXspT1_EEE4typeEEv"
  source_file: "system/libhidl/base/include/hidl/HidlSupport.h"
}
functions {
  basic_abi {
    type_abi {
      name: "void"
    }
    name: "android::hardware::hidl_array<type-parameter-0-0, SIZE1>::hidl_array<type-parameter-0-0, SIZE1>"
    access: public_access
    linker_set_key: "_ZN7android8hardware10hidl_arrayIT_XT0_EJEEC1Ev"
  }
  mangled_function_name: "_ZN7android8hardware10hidl_arrayIT_XT0_EJEEC1Ev"
  source_file: "system/libhidl/base/include/hidl/HidlSupport.h"
}
functions {
  basic_abi {
    type_abi {
      name: "void"
    }
    name: "android::hardware::hidl_array<type-parameter-0-0, SIZE1>::hidl_array<type-parameter-0-0, SIZE1>"
    access: public_access
    linker_set_key: "_ZN7android8hardware10hidl_arrayIT_XT0_EJEEC1EPKS2_"
  }
  mangled_function_name: "_ZN7android8hardware10hidl_arrayIT_XT0_EJEEC1EPKS2_"
  source_file: "system/libhidl/base/include/hidl/HidlSupport.h"
  parameters {
    basic_abi {
      type_abi {
        name: "const type-parameter-0-0 *"
      }
      name: "source"
      access: public_access
      linker_set_key: "false"
    }
    default_arg: false
  }
}
functions {
  basic_abi {
    type_abi {
      name: "void"
    }
    name: "android::hardware::hidl_array<type-parameter-0-0, SIZE1>::hidl_array<type-parameter-0-0, SIZE1>"
    access: public_access
    linker_set_key: "_ZN7android8hardware10hidl_arrayIT_XT0_EJEEC1ERKNS0_7details9std_arrayIS2_XT0_EJEE4typeE"
  }
  mangled_function_name: "_ZN7android8hardware10hidl_arrayIT_XT0_EJEEC1ERKNS0_7details9std_arrayIS2_XT0_EJEE4typeE"
  source_file: "system/libhidl/base/include/hidl/HidlSupport.h"
  parameters {
    basic_abi {
      type_abi {
        name: "const typename std_array<type-parameter-0-0, SIZE1>::type &"
      }
      name: "array"
      access: public_access
      linker_set_key: "false"
    }
    default_arg: false
  }
}
functions {
  basic_abi {
    type_abi {
      name: "type-parameter-0-0 *"
    }
    name: "android::hardware::hidl_array<type-parameter-0-0, SIZE1>::data"
    access: public_access
    linker_set_key: "_ZN7android8hardware10hidl_arrayIT_XT0_EJEE4dataEv"
  }
  mangled_function_name: "_ZN7android8hardware10hidl_arrayIT_XT0_EJEE4dataEv"
  source_file: "system/libhidl/base/include/hidl/HidlSupport.h"
}
functions {
  basic_abi {
    type_abi {
      name: "const type-parameter-0-0 *"
    }
    name: "android::hardware::hidl_array<type-parameter-0-0, SIZE1>::data"
    access: public_access
    linker_set_key: "_ZNK7android8hardware10hidl_arrayIT_XT0_EJEE4dataEv"
  }
  mangled_function_name: "_ZNK7android8hardware10hidl_arrayIT_XT0_EJEE4dataEv"
  source_file: "system/libhidl/base/include/hidl/HidlSupport.h"
}
functions {
  basic_abi {
    type_abi {
      name: "type-parameter-0-0 &"
    }
    name: "android::hardware::hidl_array<type-parameter-0-0, SIZE1>::operator[]"
    access: public_access
    linker_set_key: "_ZN7android8hardware10hidl_arrayIT_XT0_EJEEixEm"
  }
  mangled_function_name: "_ZN7android8hardware10hidl_arrayIT_XT0_EJEEixEm"
  source_file: "system/libhidl/base/include/hidl/HidlSupport.h"
  parameters {
    basic_abi {
      type_abi {
        name: "unsigned long"
        size: 8
        alignment: 8
      }
      name: "index"
      access: public_access
      linker_set_key: "false"
    }
    default_arg: false
  }
}
functions {
  basic_abi {
    type_abi {
      name: "const type-parameter-0-0 &"
    }
    name: "android::hardware::hidl_array<type-parameter-0-0, SIZE1>::operator[]"
    access: public_access
    linker_set_key: "_ZNK7android8hardware10hidl_arrayIT_XT0_EJEEixEm"
  }
  mangled_function_name: "_ZNK7android8hardware10hidl_arrayIT_XT0_EJEEixEm"
  source_file: "system/libhidl/base/include/hidl/HidlSupport.h"
  parameters {
    basic_abi {
      type_abi {
        name: "unsigned long"
        size: 8
        alignment: 8
      }
      name: "index"
      access: public_access
      linker_set_key: "false"
    }
    default_arg: false
  }
}
functions {
  basic_abi {
    type_abi {
      name: "bool"
      size: 1
      alignment: 1
    }
    name: "android::hardware::hidl_array<type-parameter-0-0, SIZE1>::operator=="
    access: public_access
    linker_set_key: "_ZNK7android8hardware10hidl_arrayIT_XT0_EJEEeqERKNS1_IS2_XT0_EJEEE"
  }
  mangled_function_name: "_ZNK7android8hardware10hidl_arrayIT_XT0_EJEEeqERKNS1_IS2_XT0_EJEEE"
  source_file: "system/libhidl/base/include/hidl/HidlSupport.h"
  parameters {
    basic_abi {
      type_abi {
        name: "const hidl_array<type-parameter-0-0, SIZE1> &"
      }
      name: "other"
      access: public_access
      linker_set_key: "false"
    }
    default_arg: false
  }
}
functions {
  basic_abi {
    type_abi {
      name: "bool"
      size: 1
      alignment: 1
    }
    name: "android::hardware::hidl_array<type-parameter-0-0, SIZE1>::operator!="
    access: public_access
    linker_set_key: "_ZNK7android8hardware10hidl_arrayIT_XT0_EJEEneERKNS1_IS2_XT0_EJEEE"
  }
  mangled_function_name: "_ZNK7android8hardware10hidl_arrayIT_XT0_EJEEneERKNS1_IS2_XT0_EJEEE"
  source_file: "system/libhidl/base/include/hidl/HidlSupport.h"
  parameters {
    basic_abi {
      type_abi {
        name: "const hidl_array<type-parameter-0-0, SIZE1> &"
      }
      name: "other"
      access: public_access
      linker_set_key: "false"
    }
    default_arg: false
  }
}
functions {
  basic_abi {
    type_abi {
      name: "unsigned long"
      size: 8
      alignment: 8
    }
    name: "android::hardware::hidl_array<type-parameter-0-0, SIZE1>::size"
    access: public_access
    linker_set_key: "_ZN7android8hardware10hidl_arrayIT_XT0_EJEE4sizeEv"
  }
  mangled_function_name: "_ZN7android8hardware10hidl_arrayIT_XT0_EJEE4sizeEv"
  source_file: "system/libhidl/base/include/hidl/HidlSupport.h"
}
functions {
  basic_abi {
    type_abi {
      name: "unsigned long"
      size: 8
      alignment: 8
    }
    name: "android::hardware::hidl_array<type-parameter-0-0, SIZE1>::elementCount"
    access: public_access
    linker_set_key: "_ZN7android8hardware10hidl_arrayIT_XT0_EJEE12elementCountEv"
  }
  mangled_function_name: "_ZN7android8hardware10hidl_arrayIT_XT0_EJEE12elementCountEv"
  source_file: "system/libhidl/base/include/hidl/HidlSupport.h"
}
functions {
  basic_abi {
    type_abi {
      name: "typename std_array<type-parameter-0-0, SIZE1>::type"
    }
    name: "android::hardware::hidl_array<type-parameter-0-0, SIZE1>::operator typename std_array<type-parameter-0-0, SIZE1>::type"
    access: public_access
    linker_set_key: "_ZNK7android8hardware10hidl_arrayIT_XT0_EJEEcvNS0_7details9std_arrayIS2_XT0_EJEE4typeEEv"
  }
  mangled_function_name: "_ZNK7android8hardware10hidl_arrayIT_XT0_EJEEcvNS0_7details9std_arrayIS2_XT0_EJEE4typeEEv"
  source_file: "system/libhidl/base/include/hidl/HidlSupport.h"
}
functions {
  basic_abi {
    type_abi {
      name: "void"
    }
    name: "android::hardware::hidl_version::hidl_version"
    access: public_access
    linker_set_key: "_ZN7android8hardware12hidl_versionC1Ett"
  }
  mangled_function_name: "_ZN7android8hardware12hidl_versionC1Ett"
  source_file: "system/libhidl/base/include/hidl/HidlSupport.h"
  parameters {
    basic_abi {
      type_abi {
        name: "unsigned short"
        size: 2
        alignment: 2
      }
      name: "major"
      access: public_access
      linker_set_key: "false"
    }
    default_arg: false
  }
  parameters {
    basic_abi {
      type_abi {
        name: "unsigned short"
        size: 2
        alignment: 2
      }
      name: "minor"
      access: public_access
      linker_set_key: "false"
    }
    default_arg: false
  }
}
functions {
  basic_abi {
    type_abi {
      name: "bool"
      size: 1
      alignment: 1
    }
    name: "android::hardware::hidl_version::operator=="
    access: public_access
    linker_set_key: "_ZNK7android8hardware12hidl_versioneqERKS1_"
  }
  mangled_function_name: "_ZNK7android8hardware12hidl_versioneqERKS1_"
  source_file: "system/libhidl/base/include/hidl/HidlSupport.h"
  parameters {
    basic_abi {
      type_abi {
        name: "const android::hardware::hidl_version &"
        size: 8
        alignment: 8
      }
      name: "other"
      access: public_access
      linker_set_key: "false"
    }
    default_arg: false
  }
}
functions {
  basic_abi {
    type_abi {
      name: "bool"
      size: 1
      alignment: 1
    }
    name: "android::hardware::hidl_version::operator<"
    access: public_access
    linker_set_key: "_ZNK7android8hardware12hidl_versionltERKS1_"
  }
  mangled_function_name: "_ZNK7android8hardware12hidl_versionltERKS1_"
  source_file: "system/libhidl/base/include/hidl/HidlSupport.h"
  parameters {
    basic_abi {
      type_abi {
        name: "const android::hardware::hidl_version &"
        size: 8
        alignment: 8
      }
      name: "other"
      access: public_access
      linker_set_key: "false"
    }
    default_arg: false
  }
}
functions {
  basic_abi {
    type_abi {
      name: "bool"
      size: 1
      alignment: 1
    }
    name: "android::hardware::hidl_version::operator>"
    access: public_access
    linker_set_key: "_ZNK7android8hardware12hidl_versiongtERKS1_"
  }
  mangled_function_name: "_ZNK7android8hardware12hidl_versiongtERKS1_"
  source_file: "system/libhidl/base/include/hidl/HidlSupport.h"
  parameters {
    basic_abi {
      type_abi {
        name: "const android::hardware::hidl_version &"
        size: 8
        alignment: 8
      }
      name: "other"
      access: public_access
      linker_set_key: "false"
    }
    default_arg: false
  }
}
functions {
  basic_abi {
    type_abi {
      name: "bool"
      size: 1
      alignment: 1
    }
    name: "android::hardware::hidl_version::operator<="
    access: public_access
    linker_set_key: "_ZNK7android8hardware12hidl_versionleERKS1_"
  }
  mangled_function_name: "_ZNK7android8hardware12hidl_versionleERKS1_"
  source_file: "system/libhidl/base/include/hidl/HidlSupport.h"
  parameters {
    basic_abi {
      type_abi {
        name: "const android::hardware::hidl_version &"
        size: 8
        alignment: 8
      }
      name: "other"
      access: public_access
      linker_set_key: "false"
    }
    default_arg: false
  }
}
functions {
  basic_abi {
    type_abi {
      name: "bool"
      size: 1
      alignment: 1
    }
    name: "android::hardware::hidl_version::operator>="
    access: public_access
    linker_set_key: "_ZNK7android8hardware12hidl_versiongeERKS1_"
  }
  mangled_function_name: "_ZNK7android8hardware12hidl_versiongeERKS1_"
  source_file: "system/libhidl/base/include/hidl/HidlSupport.h"
  parameters {
    basic_abi {
      type_abi {
        name: "const android::hardware::hidl_version &"
        size: 8
        alignment: 8
      }
      name: "other"
      access: public_access
      linker_set_key: "false"
    }
    default_arg: false
  }
}
functions {
  basic_abi {
    type_abi {
      name: "unsigned short"
      size: 2
      alignment: 2
    }
    name: "android::hardware::hidl_version::get_major"
    access: public_access
    linker_set_key: "_ZNK7android8hardware12hidl_version9get_majorEv"
  }
  mangled_function_name: "_ZNK7android8hardware12hidl_version9get_majorEv"
  source_file: "system/libhidl/base/include/hidl/HidlSupport.h"
}
functions {
  basic_abi {
    type_abi {
      name: "unsigned short"
      size: 2
      alignment: 2
    }
    name: "android::hardware::hidl_version::get_minor"
    access: public_access
    linker_set_key: "_ZNK7android8hardware12hidl_version9get_minorEv"
  }
  mangled_function_name: "_ZNK7android8hardware12hidl_version9get_minorEv"
  source_file: "system/libhidl/base/include/hidl/HidlSupport.h"
}
functions {
  basic_abi {
    type_abi {
      name: "android::hardware::hidl_version"
      size: 4
      alignment: 2
    }
    name: "android::hardware::make_hidl_version"
    access: public_access
    linker_set_key: "_ZN7android8hardware17make_hidl_versionEtt"
  }
  mangled_function_name: "_ZN7android8hardware17make_hidl_versionEtt"
  source_file: "system/libhidl/base/include/hidl/HidlSupport.h"
  parameters {
    basic_abi {
      type_abi {
        name: "unsigned short"
        size: 2
        alignment: 2
      }
      name: "major"
      access: public_access
      linker_set_key: "false"
    }
    default_arg: false
  }
  parameters {
    basic_abi {
      type_abi {
        name: "unsigned short"
        size: 2
        alignment: 2
      }
      name: "minor"
      access: public_access
      linker_set_key: "false"
    }
    default_arg: false
  }
}
functions {
  basic_abi {
    type_abi {
      name: "std::basic_string<char, std::char_traits<char>, std::allocator<char> >"
      size: 24
      alignment: 8
    }
    name: "android::hardware::toString"
    access: public_access
    linker_set_key: "_ZN7android8hardware8toStringEPKv"
  }
  mangled_function_name: "_ZN7android8hardware8toStringEPKv"
  source_file: "system/libhidl/base/include/hidl/HidlSupport.h"
  parameters {
    basic_abi {
      type_abi {
        name: "const void *"
        size: 8
        alignment: 8
      }
      name: "t"
      access: public_access
      linker_set_key: "false"
    }
    default_arg: false
  }
}
functions {
  basic_abi {
    type_abi {
      name: "std::basic_string<char, std::char_traits<char>, std::allocator<char> >"
      size: 24
      alignment: 8
    }
    name: "android::hardware::toString"
    access: public_access
    linker_set_key: "_ZN7android8hardware8toStringET_"
  }
  mangled_function_name: "_ZN7android8hardware8toStringET_"
  source_file: "system/libhidl/base/include/hidl/HidlSupport.h"
  parameters {
    basic_abi {
      type_abi {
        name: "type-parameter-0-0"
      }
      name: "t"
      access: public_access
      linker_set_key: "false"
    }
    default_arg: false
  }
  template_info {
    elements {
      basic_abi {
        name: "T"
        linker_set_key: "T"
      }
    }
    elements {
      basic_abi {
        name: ""
        linker_set_key: ""
      }
    }
  }
}
functions {
  basic_abi {
    type_abi {
      name: "std::basic_string<char, std::char_traits<char>, std::allocator<char> >"
      size: 24
      alignment: 8
    }
    name: "android::hardware::toString"
    access: public_access
    linker_set_key: "_ZN7android8hardware8toStringImmEENSt3__112basic_stringIcNS2_11char_traitsIcEENS2_9allocatorIcEEEET_"
  }
  mangled_function_name: "_ZN7android8hardware8toStringImmEENSt3__112basic_stringIcNS2_11char_traitsIcEENS2_9allocatorIcEEEET_"
  source_file: "system/libhidl/base/include/hidl/HidlSupport.h"
  parameters {
    basic_abi {
      type_abi {
        name: "unsigned long"
        size: 8
        alignment: 8
      }
      name: "t"
      access: public_access
      linker_set_key: "false"
    }
    default_arg: false
  }
  template_info {
    elements {
      basic_abi {
        type_abi {
          name: "unsigned long"
          size: 8
          alignment: 8
        }
        linker_set_key: "unsigned long"
      }
    }
    elements {
      basic_abi {
        type_abi {
          name: "unsigned long"
          size: 8
          alignment: 8
        }
        linker_set_key: "unsigned long"
      }
    }
  }
}
functions {
  basic_abi {
    type_abi {
      name: "std::basic_string<char, std::char_traits<char>, std::allocator<char> >"
      size: 24
      alignment: 8
    }
    name: "android::hardware::details::toHexString"
    access: public_access
    linker_set_key: "_ZN7android8hardware7details11toHexStringET_b"
  }
  mangled_function_name: "_ZN7android8hardware7details11toHexStringET_b"
  source_file: "system/libhidl/base/include/hidl/HidlSupport.h"
  parameters {
    basic_abi {
      type_abi {
        name: "type-parameter-0-0"
      }
      name: "t"
      access: public_access
      linker_set_key: "false"
    }
    default_arg: false
  }
  parameters {
    basic_abi {
      type_abi {
        name: "bool"
        size: 1
        alignment: 1
      }
      name: "prefix"
      access: public_access
      linker_set_key: "true"
    }
    default_arg: true
  }
  template_info {
    elements {
      basic_abi {
        name: "T"
        linker_set_key: "T"
      }
    }
    elements {
      basic_abi {
        name: ""
        linker_set_key: ""
      }
    }
  }
}
functions {
  basic_abi {
    type_abi {
      name: "std::basic_string<char, std::char_traits<char>, std::allocator<char> >"
      size: 24
      alignment: 8
    }
    name: "android::hardware::details::toHexString"
    access: public_access
    linker_set_key: "_ZN7android8hardware7details11toHexStringIiiEENSt3__112basic_stringIcNS3_11char_traitsIcEENS3_9allocatorIcEEEET_b"
  }
  mangled_function_name: "_ZN7android8hardware7details11toHexStringIiiEENSt3__112basic_stringIcNS3_11char_traitsIcEENS3_9allocatorIcEEEET_b"
  source_file: "system/libhidl/base/include/hidl/HidlSupport.h"
  parameters {
    basic_abi {
      type_abi {
        name: "int"
        size: 4
        alignment: 4
      }
      name: "t"
      access: public_access
      linker_set_key: "false"
    }
    default_arg: false
  }
  parameters {
    basic_abi {
      type_abi {
        name: "bool"
        size: 1
        alignment: 1
      }
      name: "prefix"
      access: public_access
      linker_set_key: "true"
    }
    default_arg: true
  }
  template_info {
    elements {
      basic_abi {
        type_abi {
          name: "int"
          size: 4
          alignment: 4
        }
        linker_set_key: "int"
      }
    }
    elements {
      basic_abi {
        type_abi {
          name: "int"
          size: 4
          alignment: 4
        }
        linker_set_key: "int"
      }
    }
  }
}
functions {
  basic_abi {
    type_abi {
      name: "std::basic_string<char, std::char_traits<char>, std::allocator<char> >"
      size: 24
      alignment: 8
    }
    name: "android::hardware::details::toHexString"
    access: public_access
    linker_set_key: "_ZN7android8hardware7details11toHexStringImmEENSt3__112basic_stringIcNS3_11char_traitsIcEENS3_9allocatorIcEEEET_b"
  }
  mangled_function_name: "_ZN7android8hardware7details11toHexStringImmEENSt3__112basic_stringIcNS3_11char_traitsIcEENS3_9allocatorIcEEEET_b"
  source_file: "system/libhidl/base/include/hidl/HidlSupport.h"
  parameters {
    basic_abi {
      type_abi {
        name: "unsigned long"
        size: 8
        alignment: 8
      }
      name: "t"
      access: public_access
      linker_set_key: "false"
    }
    default_arg: false
  }
  parameters {
    basic_abi {
      type_abi {
        name: "bool"
        size: 1
        alignment: 1
      }
      name: "prefix"
      access: public_access
      linker_set_key: "true"
    }
    default_arg: true
  }
  template_info {
    elements {
      basic_abi {
        type_abi {
          name: "unsigned long"
          size: 8
          alignment: 8
        }
        linker_set_key: "unsigned long"
      }
    }
    elements {
      basic_abi {
        type_abi {
          name: "unsigned long"
          size: 8
          alignment: 8
        }
        linker_set_key: "unsigned long"
      }
    }
  }
}
functions {
  basic_abi {
    type_abi {
      name: "std::basic_string<char, std::char_traits<char>, std::allocator<char> >"
      size: 24
      alignment: 8
    }
    name: "android::hardware::details::toHexString"
    access: public_access
    linker_set_key: "_ZN7android8hardware7details11toHexStringIhhEENSt3__112basic_stringIcNS3_11char_traitsIcEENS3_9allocatorIcEEEET_b"
  }
  mangled_function_name: "_ZN7android8hardware7details11toHexStringIhhEENSt3__112basic_stringIcNS3_11char_traitsIcEENS3_9allocatorIcEEEET_b"
  source_file: "system/libhidl/base/include/hidl/HidlSupport.h"
  parameters {
    basic_abi {
      type_abi {
        name: "unsigned char"
        size: 1
        alignment: 1
      }
      name: "t"
      access: public_access
      linker_set_key: "false"
    }
    default_arg: false
  }
  parameters {
    basic_abi {
      type_abi {
        name: "bool"
        size: 1
        alignment: 1
      }
      name: "prefix"
      access: public_access
      linker_set_key: "true"
    }
    default_arg: true
  }
  template_info {
    elements {
      basic_abi {
        type_abi {
          name: "unsigned char"
          size: 1
          alignment: 1
        }
        linker_set_key: "unsigned char"
      }
    }
    elements {
      basic_abi {
        type_abi {
          name: "unsigned char"
          size: 1
          alignment: 1
        }
        linker_set_key: "unsigned char"
      }
    }
  }
}
functions {
  basic_abi {
    type_abi {
      name: "std::basic_string<char, std::char_traits<char>, std::allocator<char> >"
      size: 24
      alignment: 8
    }
    name: "android::hardware::details::toHexString"
    access: public_access
    linker_set_key: "_ZN7android8hardware7details11toHexStringIaaEENSt3__112basic_stringIcNS3_11char_traitsIcEENS3_9allocatorIcEEEET_b"
  }
  mangled_function_name: "_ZN7android8hardware7details11toHexStringIaaEENSt3__112basic_stringIcNS3_11char_traitsIcEENS3_9allocatorIcEEEET_b"
  source_file: "system/libhidl/base/include/hidl/HidlSupport.h"
  parameters {
    basic_abi {
      type_abi {
        name: "signed char"
        size: 1
        alignment: 1
      }
      name: "t"
      access: public_access
      linker_set_key: "false"
    }
    default_arg: false
  }
  parameters {
    basic_abi {
      type_abi {
        name: "bool"
        size: 1
        alignment: 1
      }
      name: "prefix"
      access: public_access
      linker_set_key: "true"
    }
    default_arg: true
  }
  template_info {
    elements {
      basic_abi {
        type_abi {
          name: "signed char"
          size: 1
          alignment: 1
        }
        linker_set_key: "signed char"
      }
    }
    elements {
      basic_abi {
        type_abi {
          name: "signed char"
          size: 1
          alignment: 1
        }
        linker_set_key: "signed char"
      }
    }
  }
}
functions {
  basic_abi {
    type_abi {
      name: "std::basic_string<char, std::char_traits<char>, std::allocator<char> >"
      size: 24
      alignment: 8
    }
    name: "android::hardware::details::arrayToString"
    access: public_access
    linker_set_key: "_ZN7android8hardware7details13arrayToStringERKT_m"
  }
  mangled_function_name: "_ZN7android8hardware7details13arrayToStringERKT_m"
  source_file: "system/libhidl/base/include/hidl/HidlSupport.h"
  parameters {
    basic_abi {
      type_abi {
        name: "const type-parameter-0-0 &"
      }
      name: "a"
      access: public_access
      linker_set_key: "false"
    }
    default_arg: false
  }
  parameters {
    basic_abi {
      type_abi {
        name: "unsigned long"
        size: 8
        alignment: 8
      }
      name: "size"
      access: public_access
      linker_set_key: "false"
    }
    default_arg: false
  }
  template_info {
    elements {
      basic_abi {
        name: "Array"
        linker_set_key: "Array"
      }
    }
  }
}
functions {
  basic_abi {
    type_abi {
      name: "std::basic_string<char, std::char_traits<char>, std::allocator<char> >"
      size: 24
      alignment: 8
    }
    name: "android::hardware::details::arraySizeToString"
    access: public_access
    linker_set_key: "_ZN7android8hardware7details17arraySizeToStringEv"
  }
  mangled_function_name: "_ZN7android8hardware7details17arraySizeToStringEv"
  source_file: "system/libhidl/base/include/hidl/HidlSupport.h"
  template_info {
    elements {
      basic_abi {
        name: "SIZE1"
        linker_set_key: "SIZE1"
      }
    }
  }
}
functions {
  basic_abi {
    type_abi {
      name: "std::basic_string<char, std::char_traits<char>, std::allocator<char> >"
      size: 24
      alignment: 8
    }
    name: "android::hardware::details::toString"
    access: public_access
    linker_set_key: "_ZN7android8hardware7details8toStringENS1_14const_accessorIT_XT0_EJEEE"
  }
  mangled_function_name: "_ZN7android8hardware7details8toStringENS1_14const_accessorIT_XT0_EJEEE"
  source_file: "system/libhidl/base/include/hidl/HidlSupport.h"
  parameters {
    basic_abi {
      type_abi {
        name: "const_accessor<type-parameter-0-0, SIZE1>"
      }
      name: "a"
      access: public_access
      linker_set_key: "false"
    }
    default_arg: false
  }
  template_info {
    elements {
      basic_abi {
        name: "T"
        linker_set_key: "T"
      }
    }
    elements {
      basic_abi {
        name: "SIZE1"
        linker_set_key: "SIZE1"
      }
    }
  }
}
functions {
  basic_abi {
    type_abi {
      name: "std::basic_string<char, std::char_traits<char>, std::allocator<char> >"
      size: 24
      alignment: 8
    }
    name: "android::hardware::details::toString"
    access: public_access
    linker_set_key: "_ZN7android8hardware7details8toStringENS1_14const_accessorIT_XT0_EJXT1_EXspT2_EEEE"
  }
  mangled_function_name: "_ZN7android8hardware7details8toStringENS1_14const_accessorIT_XT0_EJXT1_EXspT2_EEEE"
  source_file: "system/libhidl/base/include/hidl/HidlSupport.h"
  parameters {
    basic_abi {
      type_abi {
        name: "const_accessor<type-parameter-0-0, SIZE1, SIZE2, SIZES...>"
      }
      name: "a"
      access: public_access
      linker_set_key: "false"
    }
    default_arg: false
  }
  template_info {
    elements {
      basic_abi {
        name: "T"
        linker_set_key: "T"
      }
    }
    elements {
      basic_abi {
        name: "SIZE1"
        linker_set_key: "SIZE1"
      }
    }
    elements {
      basic_abi {
        name: "SIZE2"
        linker_set_key: "SIZE2"
      }
    }
    elements {
      basic_abi {
        name: "SIZES"
        linker_set_key: "SIZES"
      }
    }
  }
}
functions {
  basic_abi {
    type_abi {
      name: "std::basic_string<char, std::char_traits<char>, std::allocator<char> >"
      size: 24
      alignment: 8
    }
    name: "android::hardware::toString"
    access: public_access
    linker_set_key: "_ZN7android8hardware8toStringERKNS0_11hidl_stringE"
  }
  mangled_function_name: "_ZN7android8hardware8toStringERKNS0_11hidl_stringE"
  source_file: "system/libhidl/base/include/hidl/HidlSupport.h"
  parameters {
    basic_abi {
      type_abi {
        name: "const android::hardware::hidl_string &"
        size: 8
        alignment: 8
      }
      name: "hs"
      access: public_access
      linker_set_key: "false"
    }
    default_arg: false
  }
}
functions {
  basic_abi {
    type_abi {
      name: "std::basic_string<char, std::char_traits<char>, std::allocator<char> >"
      size: 24
      alignment: 8
    }
    name: "android::hardware::toString"
    access: public_access
    linker_set_key: "_ZN7android8hardware8toStringERKNS0_11hidl_handleE"
  }
  mangled_function_name: "_ZN7android8hardware8toStringERKNS0_11hidl_handleE"
  source_file: "system/libhidl/base/include/hidl/HidlSupport.h"
  parameters {
    basic_abi {
      type_abi {
        name: "const android::hardware::hidl_handle &"
        size: 8
        alignment: 8
      }
      name: "hs"
      access: public_access
      linker_set_key: "false"
    }
    default_arg: false
  }
}
functions {
  basic_abi {
    type_abi {
      name: "std::basic_string<char, std::char_traits<char>, std::allocator<char> >"
      size: 24
      alignment: 8
    }
    name: "android::hardware::toString"
    access: public_access
    linker_set_key: "_ZN7android8hardware8toStringERKNS0_11hidl_memoryE"
  }
  mangled_function_name: "_ZN7android8hardware8toStringERKNS0_11hidl_memoryE"
  source_file: "system/libhidl/base/include/hidl/HidlSupport.h"
  parameters {
    basic_abi {
      type_abi {
        name: "const android::hardware::hidl_memory &"
        size: 8
        alignment: 8
      }
      name: "mem"
      access: public_access
      linker_set_key: "false"
    }
    default_arg: false
  }
}
functions {
  basic_abi {
    type_abi {
      name: "std::basic_string<char, std::char_traits<char>, std::allocator<char> >"
      size: 24
      alignment: 8
    }
    name: "android::hardware::toString"
    access: public_access
    linker_set_key: "_ZN7android8hardware8toStringERKNS_2spINS0_20hidl_death_recipientEEE"
  }
  mangled_function_name: "_ZN7android8hardware8toStringERKNS_2spINS0_20hidl_death_recipientEEE"
  source_file: "system/libhidl/base/include/hidl/HidlSupport.h"
  parameters {
    basic_abi {
      type_abi {
        name: "const android::sp<android::hardware::hidl_death_recipient> &"
        size: 8
        alignment: 8
      }
      name: "dr"
      access: public_access
      linker_set_key: "false"
    }
    default_arg: false
  }
}
functions {
  basic_abi {
    type_abi {
      name: "std::basic_string<char, std::char_traits<char>, std::allocator<char> >"
      size: 24
      alignment: 8
    }
    name: "android::hardware::toString"
    access: public_access
    linker_set_key: "_ZN7android8hardware8toStringERKNS0_8hidl_vecIT_EE"
  }
  mangled_function_name: "_ZN7android8hardware8toStringERKNS0_8hidl_vecIT_EE"
  source_file: "system/libhidl/base/include/hidl/HidlSupport.h"
  parameters {
    basic_abi {
      type_abi {
        name: "const hidl_vec<type-parameter-0-0> &"
      }
      name: "a"
      access: public_access
      linker_set_key: "false"
    }
    default_arg: false
  }
  template_info {
    elements {
      basic_abi {
        name: "T"
        linker_set_key: "T"
      }
    }
  }
}
functions {
  basic_abi {
    type_abi {
      name: "std::basic_string<char, std::char_traits<char>, std::allocator<char> >"
      size: 24
      alignment: 8
    }
    name: "android::hardware::toString"
    access: public_access
    linker_set_key: "_ZN7android8hardware8toStringERKNS0_10hidl_arrayIT_XT0_EJEEE"
  }
  mangled_function_name: "_ZN7android8hardware8toStringERKNS0_10hidl_arrayIT_XT0_EJEEE"
  source_file: "system/libhidl/base/include/hidl/HidlSupport.h"
  parameters {
    basic_abi {
      type_abi {
        name: "const hidl_array<type-parameter-0-0, SIZE1> &"
      }
      name: "a"
      access: public_access
      linker_set_key: "false"
    }
    default_arg: false
  }
  template_info {
    elements {
      basic_abi {
        name: "T"
        linker_set_key: "T"
      }
    }
    elements {
      basic_abi {
        name: "SIZE1"
        linker_set_key: "SIZE1"
      }
    }
  }
}
functions {
  basic_abi {
    type_abi {
      name: "std::basic_string<char, std::char_traits<char>, std::allocator<char> >"
      size: 24
      alignment: 8
    }
    name: "android::hardware::toString"
    access: public_access
    linker_set_key: "_ZN7android8hardware8toStringERKNS0_10hidl_arrayIT_XT0_EJXT1_EXspT2_EEEE"
  }
  mangled_function_name: "_ZN7android8hardware8toStringERKNS0_10hidl_arrayIT_XT0_EJXT1_EXspT2_EEEE"
  source_file: "system/libhidl/base/include/hidl/HidlSupport.h"
  parameters {
    basic_abi {
      type_abi {
        name: "const hidl_array<type-parameter-0-0, SIZE1, SIZE2, SIZES...> &"
      }
      name: "a"
      access: public_access
      linker_set_key: "false"
    }
    default_arg: false
  }
  template_info {
    elements {
      basic_abi {
        name: "T"
        linker_set_key: "T"
      }
    }
    elements {
      basic_abi {
        name: "SIZE1"
        linker_set_key: "SIZE1"
      }
    }
    elements {
      basic_abi {
        name: "SIZE2"
        linker_set_key: "SIZE2"
      }
    }
    elements {
      basic_abi {
        name: "SIZES"
        linker_set_key: "SIZES"
      }
    }
  }
}
functions {
  basic_abi {
    type_abi {
      name: "void"
    }
    name: "android::hardware::details::SynchronizedQueue::SynchronizedQueue<T>"
    access: public_access
    linker_set_key: "_ZN7android8hardware7details17SynchronizedQueueC1Em"
  }
  mangled_function_name: "_ZN7android8hardware7details17SynchronizedQueueC1Em"
  source_file: "system/libhidl/base/include/hidl/SynchronizedQueue.h"
  parameters {
    basic_abi {
      type_abi {
        name: "unsigned long"
        size: 8
        alignment: 8
      }
      name: "limit"
      access: public_access
      linker_set_key: "false"
    }
    default_arg: false
  }
}
functions {
  basic_abi {
    type_abi {
      name: "type-parameter-0-0"
    }
    name: "android::hardware::details::SynchronizedQueue::wait_pop"
    access: public_access
    linker_set_key: "_ZN7android8hardware7details17SynchronizedQueue8wait_popEv"
  }
  mangled_function_name: "_ZN7android8hardware7details17SynchronizedQueue8wait_popEv"
  source_file: "system/libhidl/base/include/hidl/SynchronizedQueue.h"
}
functions {
  basic_abi {
    type_abi {
      name: "bool"
      size: 1
      alignment: 1
    }
    name: "android::hardware::details::SynchronizedQueue::push"
    access: public_access
    linker_set_key: "_ZN7android8hardware7details17SynchronizedQueue4pushERKT_"
  }
  mangled_function_name: "_ZN7android8hardware7details17SynchronizedQueue4pushERKT_"
  source_file: "system/libhidl/base/include/hidl/SynchronizedQueue.h"
  parameters {
    basic_abi {
      type_abi {
        name: "const type-parameter-0-0 &"
      }
      name: "item"
      access: public_access
      linker_set_key: "false"
    }
    default_arg: false
  }
}
functions {
  basic_abi {
    type_abi {
      name: "unsigned long"
      size: 8
      alignment: 8
    }
    name: "android::hardware::details::SynchronizedQueue::size"
    access: public_access
    linker_set_key: "_ZN7android8hardware7details17SynchronizedQueue4sizeEv"
  }
  mangled_function_name: "_ZN7android8hardware7details17SynchronizedQueue4sizeEv"
  source_file: "system/libhidl/base/include/hidl/SynchronizedQueue.h"
}
functions {
  basic_abi {
    type_abi {
      name: "void"
    }
    name: "android::hardware::details::SynchronizedQueue<std::__1::function<void ()> >::SynchronizedQueue"
    access: public_access
    linker_set_key: "_ZN7android8hardware7details17SynchronizedQueueINSt3__18functionIFvvEEEEC1Em"
  }
  mangled_function_name: "_ZN7android8hardware7details17SynchronizedQueueINSt3__18functionIFvvEEEEC1Em"
  source_file: "system/libhidl/base/include/hidl/SynchronizedQueue.h"
  parameters {
    basic_abi {
      type_abi {
        name: "unsigned long"
        size: 8
        alignment: 8
      }
      name: "limit"
      access: public_access
      linker_set_key: "false"
    }
    default_arg: false
  }
}
functions {
  basic_abi {
    type_abi {
      name: "std::function<void ()>"
      size: 48
      alignment: 16
    }
    name: "android::hardware::details::SynchronizedQueue<std::__1::function<void ()> >::wait_pop"
    access: public_access
    linker_set_key: "_ZN7android8hardware7details17SynchronizedQueueINSt3__18functionIFvvEEEE8wait_popEv"
  }
  mangled_function_name: "_ZN7android8hardware7details17SynchronizedQueueINSt3__18functionIFvvEEEE8wait_popEv"
  source_file: "system/libhidl/base/include/hidl/SynchronizedQueue.h"
}
functions {
  basic_abi {
    type_abi {
      name: "bool"
      size: 1
      alignment: 1
    }
    name: "android::hardware::details::SynchronizedQueue<std::__1::function<void ()> >::push"
    access: public_access
    linker_set_key: "_ZN7android8hardware7details17SynchronizedQueueINSt3__18functionIFvvEEEE4pushERKS6_"
  }
  mangled_function_name: "_ZN7android8hardware7details17SynchronizedQueueINSt3__18functionIFvvEEEE4pushERKS6_"
  source_file: "system/libhidl/base/include/hidl/SynchronizedQueue.h"
  parameters {
    basic_abi {
      type_abi {
        name: "const std::function<void ()> &"
        size: 8
        alignment: 8
      }
      name: "item"
      access: public_access
      linker_set_key: "false"
    }
    default_arg: false
  }
}
functions {
  basic_abi {
    type_abi {
      name: "unsigned long"
      size: 8
      alignment: 8
    }
    name: "android::hardware::details::SynchronizedQueue<std::__1::function<void ()> >::size"
    access: public_access
    linker_set_key: "_ZN7android8hardware7details17SynchronizedQueueINSt3__18functionIFvvEEEE4sizeEv"
  }
  mangled_function_name: "_ZN7android8hardware7details17SynchronizedQueueINSt3__18functionIFvvEEEE4sizeEv"
  source_file: "system/libhidl/base/include/hidl/SynchronizedQueue.h"
}
functions {
  basic_abi {
    type_abi {
      name: "void"
    }
    name: "android::hardware::details::TaskRunner::TaskRunner"
    access: public_access
    linker_set_key: "_ZN7android8hardware7details10TaskRunnerC1Ev"
  }
  mangled_function_name: "_ZN7android8hardware7details10TaskRunnerC1Ev"
  source_file: "system/libhidl/base/include/hidl/TaskRunner.h"
}
functions {
  basic_abi {
    type_abi {
      name: "void"
    }
    name: "android::hardware::details::TaskRunner::~TaskRunner"
    access: public_access
    linker_set_key: "_ZN7android8hardware7details10TaskRunnerD0Ev"
  }
  mangled_function_name: "_ZN7android8hardware7details10TaskRunnerD0Ev"
  source_file: "system/libhidl/base/include/hidl/TaskRunner.h"
}
functions {
  basic_abi {
    type_abi {
      name: "void"
    }
    name: "android::hardware::details::TaskRunner::start"
    access: public_access
    linker_set_key: "_ZN7android8hardware7details10TaskRunner5startEm"
  }
  mangled_function_name: "_ZN7android8hardware7details10TaskRunner5startEm"
  source_file: "system/libhidl/base/include/hidl/TaskRunner.h"
  parameters {
    basic_abi {
      type_abi {
        name: "unsigned long"
        size: 8
        alignment: 8
      }
      name: "limit"
      access: public_access
      linker_set_key: "false"
    }
    default_arg: false
  }
}
functions {
  basic_abi {
    type_abi {
      name: "bool"
      size: 1
      alignment: 1
    }
    name: "android::hardware::details::TaskRunner::push"
    access: public_access
    linker_set_key: "_ZN7android8hardware7details10TaskRunner4pushERKNSt3__18functionIFvvEEE"
  }
  mangled_function_name: "_ZN7android8hardware7details10TaskRunner4pushERKNSt3__18functionIFvvEEE"
  source_file: "system/libhidl/base/include/hidl/TaskRunner.h"
  parameters {
    basic_abi {
      type_abi {
        name: "const std::function<void ()> &"
        size: 8
        alignment: 8
      }
      name: "t"
      access: public_access
      linker_set_key: "false"
    }
    default_arg: false
  }
}
enums {
  basic_abi {
    type_abi {
      name: "unsigned int"
      size: 4
      alignment: 4
    }
    name: "android::hardware::details::HidlInstrumentor::InstrumentationEvent"
    access: public_access
    linker_set_key: "_ZN7android8hardware7details16HidlInstrumentor20InstrumentationEventE"
  }
  enum_fields {
    basic_abi {
      type_abi {
        name: "android::hardware::details::HidlInstrumentor::InstrumentationEvent"
        size: 4
        alignment: 4
      }
      name: "android::hardware::details::HidlInstrumentor::InstrumentationEvent::SERVER_API_ENTRY"
      access: public_access
      linker_set_key: "0"
    }
    enum_field_value: 0
  }
  enum_fields {
    basic_abi {
      type_abi {
        name: "android::hardware::details::HidlInstrumentor::InstrumentationEvent"
        size: 4
        alignment: 4
      }
      name: "android::hardware::details::HidlInstrumentor::InstrumentationEvent::SERVER_API_EXIT"
      access: public_access
      linker_set_key: "1"
    }
    enum_field_value: 1
  }
  enum_fields {
    basic_abi {
      type_abi {
        name: "android::hardware::details::HidlInstrumentor::InstrumentationEvent"
        size: 4
        alignment: 4
      }
      name: "android::hardware::details::HidlInstrumentor::InstrumentationEvent::CLIENT_API_ENTRY"
      access: public_access
      linker_set_key: "2"
    }
    enum_field_value: 2
  }
  enum_fields {
    basic_abi {
      type_abi {
        name: "android::hardware::details::HidlInstrumentor::InstrumentationEvent"
        size: 4
        alignment: 4
      }
      name: "android::hardware::details::HidlInstrumentor::InstrumentationEvent::CLIENT_API_EXIT"
      access: public_access
      linker_set_key: "3"
    }
    enum_field_value: 3
  }
  enum_fields {
    basic_abi {
      type_abi {
        name: "android::hardware::details::HidlInstrumentor::InstrumentationEvent"
        size: 4
        alignment: 4
      }
      name: "android::hardware::details::HidlInstrumentor::InstrumentationEvent::SYNC_CALLBACK_ENTRY"
      access: public_access
      linker_set_key: "4"
    }
    enum_field_value: 4
  }
  enum_fields {
    basic_abi {
      type_abi {
        name: "android::hardware::details::HidlInstrumentor::InstrumentationEvent"
        size: 4
        alignment: 4
      }
      name: "android::hardware::details::HidlInstrumentor::InstrumentationEvent::SYNC_CALLBACK_EXIT"
      access: public_access
      linker_set_key: "5"
    }
    enum_field_value: 5
  }
  enum_fields {
    basic_abi {
      type_abi {
        name: "android::hardware::details::HidlInstrumentor::InstrumentationEvent"
        size: 4
        alignment: 4
      }
      name: "android::hardware::details::HidlInstrumentor::InstrumentationEvent::ASYNC_CALLBACK_ENTRY"
      access: public_access
      linker_set_key: "6"
    }
    enum_field_value: 6
  }
  enum_fields {
    basic_abi {
      type_abi {
        name: "android::hardware::details::HidlInstrumentor::InstrumentationEvent"
        size: 4
        alignment: 4
      }
      name: "android::hardware::details::HidlInstrumentor::InstrumentationEvent::ASYNC_CALLBACK_EXIT"
      access: public_access
      linker_set_key: "7"
    }
    enum_field_value: 7
  }
  enum_fields {
    basic_abi {
      type_abi {
        name: "android::hardware::details::HidlInstrumentor::InstrumentationEvent"
        size: 4
        alignment: 4
      }
      name: "android::hardware::details::HidlInstrumentor::InstrumentationEvent::PASSTHROUGH_ENTRY"
      access: public_access
      linker_set_key: "8"
    }
    enum_field_value: 8
  }
  enum_fields {
    basic_abi {
      type_abi {
        name: "android::hardware::details::HidlInstrumentor::InstrumentationEvent"
        size: 4
        alignment: 4
      }
      name: "android::hardware::details::HidlInstrumentor::InstrumentationEvent::PASSTHROUGH_EXIT"
      access: public_access
      linker_set_key: "9"
    }
    enum_field_value: 9
  }
  source_file: "system/libhidl/base/include/hidl/HidlInternal.h"
}
enums {
  basic_abi {
    type_abi {
      name: "int"
      size: 4
      alignment: 4
    }
    name: "android::hardware::Status::Exception"
    access: public_access
    linker_set_key: "_ZN7android8hardware6Status9ExceptionE"
  }
  enum_fields {
    basic_abi {
      type_abi {
        name: "android::hardware::Status::Exception"
        size: 4
        alignment: 4
      }
      name: "android::hardware::Status::Exception::EX_NONE"
      access: public_access
      linker_set_key: "0"
    }
    enum_field_value: 0
  }
  enum_fields {
    basic_abi {
      type_abi {
        name: "android::hardware::Status::Exception"
        size: 4
        alignment: 4
      }
      name: "android::hardware::Status::Exception::EX_SECURITY"
      access: public_access
      linker_set_key: "18446744073709551615"
    }
    enum_field_value: -1
  }
  enum_fields {
    basic_abi {
      type_abi {
        name: "android::hardware::Status::Exception"
        size: 4
        alignment: 4
      }
      name: "android::hardware::Status::Exception::EX_BAD_PARCELABLE"
      access: public_access
      linker_set_key: "18446744073709551614"
    }
    enum_field_value: -2
  }
  enum_fields {
    basic_abi {
      type_abi {
        name: "android::hardware::Status::Exception"
        size: 4
        alignment: 4
      }
      name: "android::hardware::Status::Exception::EX_ILLEGAL_ARGUMENT"
      access: public_access
      linker_set_key: "18446744073709551613"
    }
    enum_field_value: -3
  }
  enum_fields {
    basic_abi {
      type_abi {
        name: "android::hardware::Status::Exception"
        size: 4
        alignment: 4
      }
      name: "android::hardware::Status::Exception::EX_NULL_POINTER"
      access: public_access
      linker_set_key: "18446744073709551612"
    }
    enum_field_value: -4
  }
  enum_fields {
    basic_abi {
      type_abi {
        name: "android::hardware::Status::Exception"
        size: 4
        alignment: 4
      }
      name: "android::hardware::Status::Exception::EX_ILLEGAL_STATE"
      access: public_access
      linker_set_key: "18446744073709551611"
    }
    enum_field_value: -5
  }
  enum_fields {
    basic_abi {
      type_abi {
        name: "android::hardware::Status::Exception"
        size: 4
        alignment: 4
      }
      name: "android::hardware::Status::Exception::EX_NETWORK_MAIN_THREAD"
      access: public_access
      linker_set_key: "18446744073709551610"
    }
    enum_field_value: -6
  }
  enum_fields {
    basic_abi {
      type_abi {
        name: "android::hardware::Status::Exception"
        size: 4
        alignment: 4
      }
      name: "android::hardware::Status::Exception::EX_UNSUPPORTED_OPERATION"
      access: public_access
      linker_set_key: "18446744073709551609"
    }
    enum_field_value: -7
  }
  enum_fields {
    basic_abi {
      type_abi {
        name: "android::hardware::Status::Exception"
        size: 4
        alignment: 4
      }
      name: "android::hardware::Status::Exception::EX_HAS_REPLY_HEADER"
      access: public_access
      linker_set_key: "18446744073709551488"
    }
    enum_field_value: -128
  }
  enum_fields {
    basic_abi {
      type_abi {
        name: "android::hardware::Status::Exception"
        size: 4
        alignment: 4
      }
      name: "android::hardware::Status::Exception::EX_TRANSACTION_FAILED"
      access: public_access
      linker_set_key: "18446744073709551487"
    }
    enum_field_value: -129
  }
  source_file: "system/libhidl/base/include/hidl/Status.h"
}
global_vars {
  basic_abi {
    type_abi {
      name: "const unsigned long"
      size: 8
      alignment: 8
    }
    name: "android::hardware::hidl_string::kOffsetOfBuffer"
    access: public_access
    linker_set_key: "_ZN7android8hardware11hidl_string15kOffsetOfBufferE"
  }
  source_file: "system/libhidl/base/include/hidl/HidlSupport.h"
}
global_vars {
  basic_abi {
    type_abi {
      name: "const unsigned long"
      size: 8
      alignment: 8
    }
    name: "android::hardware::hidl_memory::kOffsetOfHandle"
    access: public_access
    linker_set_key: "_ZN7android8hardware11hidl_memory15kOffsetOfHandleE"
  }
  source_file: "system/libhidl/base/include/hidl/HidlSupport.h"
}
global_vars {
  basic_abi {
    type_abi {
      name: "const unsigned long"
      size: 8
      alignment: 8
    }
    name: "android::hardware::hidl_memory::kOffsetOfName"
    access: public_access
    linker_set_key: "_ZN7android8hardware11hidl_memory13kOffsetOfNameE"
  }
  source_file: "system/libhidl/base/include/hidl/HidlSupport.h"
}
global_vars {
  basic_abi {
    type_abi {
      name: "const unsigned long"
      size: 8
      alignment: 8
    }
    name: "android::hardware::hidl_vec::kOffsetOfBuffer"
    access: public_access
    linker_set_key: "_ZN7android8hardware8hidl_vec15kOffsetOfBufferE"
  }
  source_file: "system/libhidl/base/include/hidl/HidlSupport.h"
}
global_vars {
  basic_abi {
    type_abi {
      name: "const unsigned long"
      size: 8
      alignment: 8
    }
    name: "android::hardware::details::product::value"
    access: public_access
    linker_set_key: "_ZN7android8hardware7details7product5valueE"
  }
  source_file: "system/libhidl/base/include/hidl/HidlSupport.h"
}
global_vars {
  basic_abi {
    type_abi {
      name: "const unsigned long"
      size: 8
      alignment: 8
    }
    name: "android::hardware::details::product<SIZE1>::value"
    access: public_access
    linker_set_key: "_ZN7android8hardware7details7productIXT_EJEE5valueE"
  }
  source_file: "system/libhidl/base/include/hidl/HidlSupport.h"
}
