records {
  basic_abi {
    type_abi {
      name: "android::hardware::IBinder"
      size: 24
      alignment: 8
    }
    name: "android::hardware::IBinder"
    access: public_access
    linker_set_key: "_ZN7android8hardware7IBinderE"
  }
  base_specifiers {
    basic_abi {
      type_abi {
        name: "android::RefBase"
        size: 16
        alignment: 8
      }
      name: ""
      access: public_access
    }
    is_virtual: true
  }
  source_file: "/home/suhwa.kim/CONA_Proj/android/system/libhwbinder/include/hwbinder/IBinder.h"
  mangled_record_name: "_ZN7android8hardware7IBinderE"
  vtable_layout {
    vtable_components {
      kind: VBaseOffset
      mangled_component_name: ""
      value: 8
    }
    vtable_components {
      kind: OffsetToTop
      mangled_component_name: ""
      value: 0
    }
    vtable_components {
      kind: RTTI
      mangled_component_name: "_ZN7android8hardware7IBinderE"
      value: 0
    }
    vtable_components {
      kind: FunctionPointer
      mangled_component_name: "_ZN7android8hardware7IBinder8transactEjRKNS0_6ParcelEPS2_jNSt3__18functionIFvRS2_EEE"
      value: 0
    }
    vtable_components {
      kind: FunctionPointer
      mangled_component_name: "_ZN7android8hardware7IBinder11linkToDeathERKNS_2spINS1_14DeathRecipientEEEPvj"
      value: 0
    }
    vtable_components {
      kind: FunctionPointer
      mangled_component_name: "_ZN7android8hardware7IBinder13unlinkToDeathERKNS_2wpINS1_14DeathRecipientEEEPvjPS4_"
      value: 0
    }
    vtable_components {
      kind: FunctionPointer
      mangled_component_name: "_ZNK7android8hardware7IBinder13checkSubclassEPKv"
      value: 0
    }
    vtable_components {
      kind: FunctionPointer
      mangled_component_name: "_ZN7android8hardware7IBinder12attachObjectEPKvPvS4_PFvS3_S4_S4_E"
      value: 0
    }
    vtable_components {
      kind: FunctionPointer
      mangled_component_name: "_ZNK7android8hardware7IBinder10findObjectEPKv"
      value: 0
    }
    vtable_components {
      kind: FunctionPointer
      mangled_component_name: "_ZN7android8hardware7IBinder12detachObjectEPKv"
      value: 0
    }
    vtable_components {
      kind: FunctionPointer
      mangled_component_name: "_ZN7android8hardware7IBinder11localBinderEv"
      value: 0
    }
    vtable_components {
      kind: FunctionPointer
      mangled_component_name: "_ZN7android8hardware7IBinder12remoteBinderEv"
      value: 0
    }
    vtable_components {
      kind: CompleteDtorPointer
      mangled_component_name: "_ZN7android8hardware7IBinderD0Ev"
      value: 0
    }
    vtable_components {
      kind: UnusedFunctionPointer
      mangled_component_name: "_ZN7android8hardware7IBinderD0Ev"
      value: 0
    }
    vtable_components {
      kind: VCallOffset
      mangled_component_name: ""
      value: 0
    }
    vtable_components {
      kind: VCallOffset
      mangled_component_name: ""
      value: 0
    }
    vtable_components {
      kind: VCallOffset
      mangled_component_name: ""
      value: 0
    }
    vtable_components {
      kind: VCallOffset
      mangled_component_name: ""
      value: 0
    }
    vtable_components {
      kind: VCallOffset
      mangled_component_name: ""
      value: 18446744073709551608
    }
    vtable_components {
      kind: OffsetToTop
      mangled_component_name: ""
      value: 18446744073709551608
    }
    vtable_components {
      kind: RTTI
      mangled_component_name: "_ZN7android8hardware7IBinderE"
      value: 0
    }
    vtable_components {
      kind: CompleteDtorPointer
      mangled_component_name: "_ZN7android8hardware7IBinderD0Ev"
      value: 0
    }
    vtable_components {
      kind: UnusedFunctionPointer
      mangled_component_name: "_ZN7android8hardware7IBinderD0Ev"
      value: 0
    }
    vtable_components {
      kind: FunctionPointer
      mangled_component_name: "_ZN7android7RefBase10onFirstRefEv"
      value: 0
    }
    vtable_components {
      kind: FunctionPointer
      mangled_component_name: "_ZN7android7RefBase15onLastStrongRefEPKv"
      value: 0
    }
    vtable_components {
      kind: FunctionPointer
      mangled_component_name: "_ZN7android7RefBase20onIncStrongAttemptedEjPKv"
      value: 0
    }
    vtable_components {
      kind: FunctionPointer
      mangled_component_name: "_ZN7android7RefBase13onLastWeakRefEPKv"
      value: 0
    }
  }
}
records {
  basic_abi {
    type_abi {
      name: "android::hardware::IBinder::DeathRecipient"
      size: 24
      alignment: 8
    }
    name: "android::hardware::IBinder::DeathRecipient"
    access: public_access
    linker_set_key: "_ZN7android8hardware7IBinder14DeathRecipientE"
  }
  base_specifiers {
    basic_abi {
      type_abi {
        name: "android::RefBase"
        size: 16
        alignment: 8
      }
      name: ""
      access: public_access
    }
    is_virtual: true
  }
  source_file: "/home/suhwa.kim/CONA_Proj/android/system/libhwbinder/include/hwbinder/IBinder.h"
  mangled_record_name: "_ZN7android8hardware7IBinder14DeathRecipientE"
  vtable_layout {
    vtable_components {
      kind: VBaseOffset
      mangled_component_name: ""
      value: 8
    }
    vtable_components {
      kind: OffsetToTop
      mangled_component_name: ""
      value: 0
    }
    vtable_components {
      kind: RTTI
      mangled_component_name: "_ZN7android8hardware7IBinder14DeathRecipientE"
      value: 0
    }
    vtable_components {
      kind: FunctionPointer
      mangled_component_name: "_ZN7android8hardware7IBinder14DeathRecipient10binderDiedERKNS_2wpIS1_EE"
      value: 0
    }
    vtable_components {
      kind: CompleteDtorPointer
      mangled_component_name: "_ZN7android8hardware7IBinder14DeathRecipientD0Ev"
      value: 0
    }
    vtable_components {
      kind: UnusedFunctionPointer
      mangled_component_name: "_ZN7android8hardware7IBinder14DeathRecipientD0Ev"
      value: 0
    }
    vtable_components {
      kind: VCallOffset
      mangled_component_name: ""
      value: 0
    }
    vtable_components {
      kind: VCallOffset
      mangled_component_name: ""
      value: 0
    }
    vtable_components {
      kind: VCallOffset
      mangled_component_name: ""
      value: 0
    }
    vtable_components {
      kind: VCallOffset
      mangled_component_name: ""
      value: 0
    }
    vtable_components {
      kind: VCallOffset
      mangled_component_name: ""
      value: 18446744073709551608
    }
    vtable_components {
      kind: OffsetToTop
      mangled_component_name: ""
      value: 18446744073709551608
    }
    vtable_components {
      kind: RTTI
      mangled_component_name: "_ZN7android8hardware7IBinder14DeathRecipientE"
      value: 0
    }
    vtable_components {
      kind: CompleteDtorPointer
      mangled_component_name: "_ZN7android8hardware7IBinder14DeathRecipientD0Ev"
      value: 0
    }
    vtable_components {
      kind: UnusedFunctionPointer
      mangled_component_name: "_ZN7android8hardware7IBinder14DeathRecipientD0Ev"
      value: 0
    }
    vtable_components {
      kind: FunctionPointer
      mangled_component_name: "_ZN7android7RefBase10onFirstRefEv"
      value: 0
    }
    vtable_components {
      kind: FunctionPointer
      mangled_component_name: "_ZN7android7RefBase15onLastStrongRefEPKv"
      value: 0
    }
    vtable_components {
      kind: FunctionPointer
      mangled_component_name: "_ZN7android7RefBase20onIncStrongAttemptedEjPKv"
      value: 0
    }
    vtable_components {
      kind: FunctionPointer
      mangled_component_name: "_ZN7android7RefBase13onLastWeakRefEPKv"
      value: 0
    }
  }
}
records {
  basic_abi {
    type_abi {
      name: "android::hardware::BHwBinder"
      size: 48
      alignment: 8
    }
    name: "android::hardware::BHwBinder"
    access: public_access
    linker_set_key: "_ZN7android8hardware9BHwBinderE"
  }
  fields {
    basic_abi {
      type_abi {
        name: "int"
        size: 4
        alignment: 4
      }
      name: "mSchedPolicy"
      access: protected_access
    }
  }
  fields {
    basic_abi {
      type_abi {
        name: "int"
        size: 4
        alignment: 4
      }
      name: "mSchedPriority"
      access: protected_access
    }
  }
  fields {
    basic_abi {
      type_abi {
        name: "std::atomic<android::hardware::BHwBinder::Extras *>"
        size: 8
        alignment: 8
      }
      name: "mExtras"
      access: private_access
    }
  }
  fields {
    basic_abi {
      type_abi {
        name: "void *"
        size: 8
        alignment: 8
      }
      name: "mReserved0"
      access: private_access
    }
  }
  base_specifiers {
    basic_abi {
      type_abi {
        name: "android::hardware::IBinder"
        size: 24
        alignment: 8
      }
      name: ""
      access: public_access
    }
    is_virtual: false
  }
  source_file: "/home/suhwa.kim/CONA_Proj/android/system/libhwbinder/include/hwbinder/Binder.h"
  mangled_record_name: "_ZN7android8hardware9BHwBinderE"
  vtable_layout {
    vtable_components {
      kind: VBaseOffset
      mangled_component_name: ""
      value: 32
    }
    vtable_components {
      kind: OffsetToTop
      mangled_component_name: ""
      value: 0
    }
    vtable_components {
      kind: RTTI
      mangled_component_name: "_ZN7android8hardware9BHwBinderE"
      value: 0
    }
    vtable_components {
      kind: FunctionPointer
      mangled_component_name: "_ZN7android8hardware9BHwBinder8transactEjRKNS0_6ParcelEPS2_jNSt3__18functionIFvRS2_EEE"
      value: 0
    }
    vtable_components {
      kind: FunctionPointer
      mangled_component_name: "_ZN7android8hardware9BHwBinder11linkToDeathERKNS_2spINS0_7IBinder14DeathRecipientEEEPvj"
      value: 0
    }
    vtable_components {
      kind: FunctionPointer
      mangled_component_name: "_ZN7android8hardware9BHwBinder13unlinkToDeathERKNS_2wpINS0_7IBinder14DeathRecipientEEEPvjPS5_"
      value: 0
    }
    vtable_components {
      kind: FunctionPointer
      mangled_component_name: "_ZNK7android8hardware7IBinder13checkSubclassEPKv"
      value: 0
    }
    vtable_components {
      kind: FunctionPointer
      mangled_component_name: "_ZN7android8hardware9BHwBinder12attachObjectEPKvPvS4_PFvS3_S4_S4_E"
      value: 0
    }
    vtable_components {
      kind: FunctionPointer
      mangled_component_name: "_ZNK7android8hardware9BHwBinder10findObjectEPKv"
      value: 0
    }
    vtable_components {
      kind: FunctionPointer
      mangled_component_name: "_ZN7android8hardware9BHwBinder12detachObjectEPKv"
      value: 0
    }
    vtable_components {
      kind: FunctionPointer
      mangled_component_name: "_ZN7android8hardware9BHwBinder11localBinderEv"
      value: 0
    }
    vtable_components {
      kind: FunctionPointer
      mangled_component_name: "_ZN7android8hardware7IBinder12remoteBinderEv"
      value: 0
    }
    vtable_components {
      kind: CompleteDtorPointer
      mangled_component_name: "_ZN7android8hardware9BHwBinderD0Ev"
      value: 0
    }
    vtable_components {
      kind: UnusedFunctionPointer
      mangled_component_name: "_ZN7android8hardware9BHwBinderD0Ev"
      value: 0
    }
    vtable_components {
      kind: FunctionPointer
      mangled_component_name: "_ZN7android8hardware9BHwBinder10onTransactEjRKNS0_6ParcelEPS2_jNSt3__18functionIFvRS2_EEE"
      value: 0
    }
    vtable_components {
      kind: VCallOffset
      mangled_component_name: ""
      value: 0
    }
    vtable_components {
      kind: VCallOffset
      mangled_component_name: ""
      value: 0
    }
    vtable_components {
      kind: VCallOffset
      mangled_component_name: ""
      value: 0
    }
    vtable_components {
      kind: VCallOffset
      mangled_component_name: ""
      value: 0
    }
    vtable_components {
      kind: VCallOffset
      mangled_component_name: ""
      value: 18446744073709551584
    }
    vtable_components {
      kind: OffsetToTop
      mangled_component_name: ""
      value: 18446744073709551584
    }
    vtable_components {
      kind: RTTI
      mangled_component_name: "_ZN7android8hardware9BHwBinderE"
      value: 0
    }
    vtable_components {
      kind: CompleteDtorPointer
      mangled_component_name: "_ZN7android8hardware9BHwBinderD0Ev"
      value: 0
    }
    vtable_components {
      kind: UnusedFunctionPointer
      mangled_component_name: "_ZN7android8hardware9BHwBinderD0Ev"
      value: 0
    }
    vtable_components {
      kind: FunctionPointer
      mangled_component_name: "_ZN7android7RefBase10onFirstRefEv"
      value: 0
    }
    vtable_components {
      kind: FunctionPointer
      mangled_component_name: "_ZN7android7RefBase15onLastStrongRefEPKv"
      value: 0
    }
    vtable_components {
      kind: FunctionPointer
      mangled_component_name: "_ZN7android7RefBase20onIncStrongAttemptedEjPKv"
      value: 0
    }
    vtable_components {
      kind: FunctionPointer
      mangled_component_name: "_ZN7android7RefBase13onLastWeakRefEPKv"
      value: 0
    }
  }
}
records {
  basic_abi {
    type_abi {
      name: "android::hardware::BpHwRefBase"
      size: 48
      alignment: 8
    }
    name: "android::hardware::BpHwRefBase"
    access: public_access
    linker_set_key: "_ZN7android8hardware11BpHwRefBaseE"
  }
  fields {
    basic_abi {
      type_abi {
        name: "android::hardware::IBinder *const"
        size: 8
        alignment: 8
      }
      name: "mRemote"
      access: private_access
    }
  }
  fields {
    basic_abi {
      type_abi {
        name: "android::RefBase::weakref_type *"
        size: 8
        alignment: 8
      }
      name: "mRefs"
      access: private_access
    }
  }
  fields {
    basic_abi {
      type_abi {
        name: "std::atomic<int>"
        size: 4
        alignment: 4
      }
      name: "mState"
      access: private_access
    }
  }
  base_specifiers {
    basic_abi {
      type_abi {
        name: "android::RefBase"
        size: 16
        alignment: 8
      }
      name: ""
      access: public_access
    }
    is_virtual: true
  }
  source_file: "/home/suhwa.kim/CONA_Proj/android/system/libhwbinder/include/hwbinder/Binder.h"
  mangled_record_name: "_ZN7android8hardware11BpHwRefBaseE"
  vtable_layout {
    vtable_components {
      kind: VBaseOffset
      mangled_component_name: ""
      value: 32
    }
    vtable_components {
      kind: OffsetToTop
      mangled_component_name: ""
      value: 0
    }
    vtable_components {
      kind: RTTI
      mangled_component_name: "_ZN7android8hardware11BpHwRefBaseE"
      value: 0
    }
    vtable_components {
      kind: CompleteDtorPointer
      mangled_component_name: "_ZN7android8hardware11BpHwRefBaseD0Ev"
      value: 0
    }
    vtable_components {
      kind: UnusedFunctionPointer
      mangled_component_name: "_ZN7android8hardware11BpHwRefBaseD0Ev"
      value: 0
    }
    vtable_components {
      kind: FunctionPointer
      mangled_component_name: "_ZN7android8hardware11BpHwRefBase10onFirstRefEv"
      value: 0
    }
    vtable_components {
      kind: FunctionPointer
      mangled_component_name: "_ZN7android8hardware11BpHwRefBase15onLastStrongRefEPKv"
      value: 0
    }
    vtable_components {
      kind: FunctionPointer
      mangled_component_name: "_ZN7android8hardware11BpHwRefBase20onIncStrongAttemptedEjPKv"
      value: 0
    }
    vtable_components {
      kind: VCallOffset
      mangled_component_name: ""
      value: 0
    }
    vtable_components {
      kind: VCallOffset
      mangled_component_name: ""
      value: 18446744073709551584
    }
    vtable_components {
      kind: VCallOffset
      mangled_component_name: ""
      value: 18446744073709551584
    }
    vtable_components {
      kind: VCallOffset
      mangled_component_name: ""
      value: 18446744073709551584
    }
    vtable_components {
      kind: VCallOffset
      mangled_component_name: ""
      value: 18446744073709551584
    }
    vtable_components {
      kind: OffsetToTop
      mangled_component_name: ""
      value: 18446744073709551584
    }
    vtable_components {
      kind: RTTI
      mangled_component_name: "_ZN7android8hardware11BpHwRefBaseE"
      value: 0
    }
    vtable_components {
      kind: CompleteDtorPointer
      mangled_component_name: "_ZN7android8hardware11BpHwRefBaseD0Ev"
      value: 0
    }
    vtable_components {
      kind: UnusedFunctionPointer
      mangled_component_name: "_ZN7android8hardware11BpHwRefBaseD0Ev"
      value: 0
    }
    vtable_components {
      kind: FunctionPointer
      mangled_component_name: "_ZN7android8hardware11BpHwRefBase10onFirstRefEv"
      value: 0
    }
    vtable_components {
      kind: FunctionPointer
      mangled_component_name: "_ZN7android8hardware11BpHwRefBase15onLastStrongRefEPKv"
      value: 0
    }
    vtable_components {
      kind: FunctionPointer
      mangled_component_name: "_ZN7android8hardware11BpHwRefBase20onIncStrongAttemptedEjPKv"
      value: 0
    }
    vtable_components {
      kind: FunctionPointer
      mangled_component_name: "_ZN7android7RefBase13onLastWeakRefEPKv"
      value: 0
    }
  }
}
records {
  basic_abi {
    type_abi {
      name: "android::hardware::IInterface"
      size: 24
      alignment: 8
    }
    name: "android::hardware::IInterface"
    access: public_access
    linker_set_key: "_ZN7android8hardware10IInterfaceE"
  }
  base_specifiers {
    basic_abi {
      type_abi {
        name: "android::RefBase"
        size: 16
        alignment: 8
      }
      name: ""
      access: public_access
    }
    is_virtual: true
  }
  source_file: "/home/suhwa.kim/CONA_Proj/android/system/libhwbinder/include/hwbinder/IInterface.h"
  mangled_record_name: "_ZN7android8hardware10IInterfaceE"
  vtable_layout {
    vtable_components {
      kind: VBaseOffset
      mangled_component_name: ""
      value: 8
    }
    vtable_components {
      kind: OffsetToTop
      mangled_component_name: ""
      value: 0
    }
    vtable_components {
      kind: RTTI
      mangled_component_name: "_ZN7android8hardware10IInterfaceE"
      value: 0
    }
    vtable_components {
      kind: CompleteDtorPointer
      mangled_component_name: "_ZN7android8hardware10IInterfaceD0Ev"
      value: 0
    }
    vtable_components {
      kind: UnusedFunctionPointer
      mangled_component_name: "_ZN7android8hardware10IInterfaceD0Ev"
      value: 0
    }
    vtable_components {
      kind: FunctionPointer
      mangled_component_name: "_ZN7android8hardware10IInterface10onAsBinderEv"
      value: 0
    }
    vtable_components {
      kind: VCallOffset
      mangled_component_name: ""
      value: 0
    }
    vtable_components {
      kind: VCallOffset
      mangled_component_name: ""
      value: 0
    }
    vtable_components {
      kind: VCallOffset
      mangled_component_name: ""
      value: 0
    }
    vtable_components {
      kind: VCallOffset
      mangled_component_name: ""
      value: 0
    }
    vtable_components {
      kind: VCallOffset
      mangled_component_name: ""
      value: 18446744073709551608
    }
    vtable_components {
      kind: OffsetToTop
      mangled_component_name: ""
      value: 18446744073709551608
    }
    vtable_components {
      kind: RTTI
      mangled_component_name: "_ZN7android8hardware10IInterfaceE"
      value: 0
    }
    vtable_components {
      kind: CompleteDtorPointer
      mangled_component_name: "_ZN7android8hardware10IInterfaceD0Ev"
      value: 0
    }
    vtable_components {
      kind: UnusedFunctionPointer
      mangled_component_name: "_ZN7android8hardware10IInterfaceD0Ev"
      value: 0
    }
    vtable_components {
      kind: FunctionPointer
      mangled_component_name: "_ZN7android7RefBase10onFirstRefEv"
      value: 0
    }
    vtable_components {
      kind: FunctionPointer
      mangled_component_name: "_ZN7android7RefBase15onLastStrongRefEPKv"
      value: 0
    }
    vtable_components {
      kind: FunctionPointer
      mangled_component_name: "_ZN7android7RefBase20onIncStrongAttemptedEjPKv"
      value: 0
    }
    vtable_components {
      kind: FunctionPointer
      mangled_component_name: "_ZN7android7RefBase13onLastWeakRefEPKv"
      value: 0
    }
  }
}
records {
  basic_abi {
    type_abi {
      name: "BnInterface<INTERFACE>"
    }
    name: "android::hardware::BnInterface"
    access: public_access
    linker_set_key: "_ZN7android8hardware11BnInterfaceE"
  }
  fields {
    basic_abi {
      type_abi {
        name: "const sp<type-parameter-0-0>"
      }
      name: "mImpl"
      access: protected_access
    }
  }
  base_specifiers {
    basic_abi {
      type_abi {
        name: "type-parameter-0-0"
      }
      name: ""
      access: public_access
    }
    is_virtual: false
  }
  base_specifiers {
    basic_abi {
      type_abi {
        name: "android::hardware::IInterface"
        size: 24
        alignment: 8
      }
      name: ""
      access: public_access
    }
    is_virtual: false
  }
  base_specifiers {
    basic_abi {
      type_abi {
        name: "android::hardware::BHwBinder"
        size: 48
        alignment: 8
      }
      name: ""
      access: public_access
    }
    is_virtual: false
  }
  source_file: "/home/suhwa.kim/CONA_Proj/android/system/libhwbinder/include/hwbinder/IInterface.h"
  mangled_record_name: "_ZN7android8hardware11BnInterfaceE"
}
records {
  basic_abi {
    type_abi {
      name: "BpInterface<INTERFACE>"
    }
    name: "android::hardware::BpInterface"
    access: public_access
    linker_set_key: "_ZN7android8hardware11BpInterfaceE"
  }
  base_specifiers {
    basic_abi {
      type_abi {
        name: "type-parameter-0-0"
      }
      name: ""
      access: public_access
    }
    is_virtual: false
  }
  base_specifiers {
    basic_abi {
      type_abi {
        name: "android::hardware::IInterface"
        size: 24
        alignment: 8
      }
      name: ""
      access: public_access
    }
    is_virtual: false
  }
  base_specifiers {
    basic_abi {
      type_abi {
        name: "android::hardware::BpHwRefBase"
        size: 48
        alignment: 8
      }
      name: ""
      access: public_access
    }
    is_virtual: false
  }
  source_file: "/home/suhwa.kim/CONA_Proj/android/system/libhwbinder/include/hwbinder/IInterface.h"
  mangled_record_name: "_ZN7android8hardware11BpInterfaceE"
}
records {
  basic_abi {
    type_abi {
      name: "android::hardware::Parcel"
      size: 136
      alignment: 8
    }
    name: "android::hardware::Parcel"
    access: public_access
    linker_set_key: "_ZN7android8hardware6ParcelE"
  }
  fields {
    basic_abi {
      type_abi {
        name: "unsigned long"
        size: 8
        alignment: 8
      }
      name: "mBufCachePos"
      access: private_access
    }
  }
  fields {
    basic_abi {
      type_abi {
        name: "std::vector<android::hardware::Parcel::BufferInfo, std::allocator<android::hardware::Parcel::BufferInfo> >"
        size: 24
        alignment: 8
      }
      name: "mBufCache"
      access: private_access
    }
  }
  fields {
    basic_abi {
      type_abi {
        name: "int"
        size: 4
        alignment: 4
      }
      name: "mError"
      access: private_access
    }
  }
  fields {
    basic_abi {
      type_abi {
        name: "unsigned char *"
        size: 8
        alignment: 8
      }
      name: "mData"
      access: private_access
    }
  }
  fields {
    basic_abi {
      type_abi {
        name: "unsigned long"
        size: 8
        alignment: 8
      }
      name: "mDataSize"
      access: private_access
    }
  }
  fields {
    basic_abi {
      type_abi {
        name: "unsigned long"
        size: 8
        alignment: 8
      }
      name: "mDataCapacity"
      access: private_access
    }
  }
  fields {
    basic_abi {
      type_abi {
        name: "unsigned long"
        size: 8
        alignment: 8
      }
      name: "mDataPos"
      access: private_access
    }
  }
  fields {
    basic_abi {
      type_abi {
        name: "unsigned long long *"
        size: 8
        alignment: 8
      }
      name: "mObjects"
      access: private_access
    }
  }
  fields {
    basic_abi {
      type_abi {
        name: "unsigned long"
        size: 8
        alignment: 8
      }
      name: "mObjectsSize"
      access: private_access
    }
  }
  fields {
    basic_abi {
      type_abi {
        name: "unsigned long"
        size: 8
        alignment: 8
      }
      name: "mObjectsCapacity"
      access: private_access
    }
  }
  fields {
    basic_abi {
      type_abi {
        name: "unsigned long"
        size: 8
        alignment: 8
      }
      name: "mNextObjectHint"
      access: private_access
    }
  }
  fields {
    basic_abi {
      type_abi {
        name: "unsigned long"
        size: 8
        alignment: 8
      }
      name: "mNumRef"
      access: private_access
    }
  }
  fields {
    basic_abi {
      type_abi {
        name: "bool"
        size: 1
        alignment: 1
      }
      name: "mFdsKnown"
      access: private_access
    }
  }
  fields {
    basic_abi {
      type_abi {
        name: "bool"
        size: 1
        alignment: 1
      }
      name: "mHasFds"
      access: private_access
    }
  }
  fields {
    basic_abi {
      type_abi {
        name: "bool"
        size: 1
        alignment: 1
      }
      name: "mAllowFds"
      access: private_access
    }
  }
  fields {
    basic_abi {
      type_abi {
        name: "void (*)(android::hardware::Parcel *, const unsigned char *, unsigned long, const unsigned long long *, unsigned long, void *)"
        size: 8
        alignment: 8
      }
      name: "mOwner"
      access: private_access
    }
  }
  fields {
    basic_abi {
      type_abi {
        name: "void *"
        size: 8
        alignment: 8
      }
      name: "mOwnerCookie"
      access: private_access
    }
  }
  source_file: "/home/suhwa.kim/CONA_Proj/android/system/libhwbinder/include/hwbinder/Parcel.h"
  mangled_record_name: "_ZN7android8hardware6ParcelE"
}
records {
  basic_abi {
    type_abi {
      name: "android::hardware::Parcel::BufferInfo"
      size: 24
      alignment: 8
    }
    name: "android::hardware::Parcel::BufferInfo"
    access: private_access
    linker_set_key: "_ZN7android8hardware6Parcel10BufferInfoE"
  }
  fields {
    basic_abi {
      type_abi {
        name: "unsigned long"
        size: 8
        alignment: 8
      }
      name: "index"
      access: public_access
    }
  }
  fields {
    basic_abi {
      type_abi {
        name: "unsigned long long"
        size: 8
        alignment: 8
      }
      name: "buffer"
      access: public_access
    }
  }
  fields {
    basic_abi {
      type_abi {
        name: "unsigned long long"
        size: 8
        alignment: 8
      }
      name: "bufend"
      access: public_access
    }
  }
  source_file: "/home/suhwa.kim/CONA_Proj/android/system/libhwbinder/include/hwbinder/Parcel.h"
  mangled_record_name: "_ZN7android8hardware6Parcel10BufferInfoE"
}
records {
  basic_abi {
    type_abi {
      name: "android::hardware::ProcessState"
      size: 312
      alignment: 8
    }
    name: "android::hardware::ProcessState"
    access: public_access
    linker_set_key: "_ZN7android8hardware12ProcessStateE"
  }
  fields {
    basic_abi {
      type_abi {
        name: "int"
        size: 4
        alignment: 4
      }
      name: "mDriverFD"
      access: private_access
    }
  }
  fields {
    basic_abi {
      type_abi {
        name: "void *"
        size: 8
        alignment: 8
      }
      name: "mVMStart"
      access: private_access
    }
  }
  fields {
    basic_abi {
      type_abi {
        name: "pthread_mutex_t"
        size: 40
        alignment: 4
      }
      name: "mThreadCountLock"
      access: private_access
    }
  }
  fields {
    basic_abi {
      type_abi {
        name: "pthread_cond_t"
        size: 48
        alignment: 4
      }
      name: "mThreadCountDecrement"
      access: private_access
    }
  }
  fields {
    basic_abi {
      type_abi {
        name: "unsigned long"
        size: 8
        alignment: 8
      }
      name: "mExecutingThreadsCount"
      access: private_access
    }
  }
  fields {
    basic_abi {
      type_abi {
        name: "unsigned long"
        size: 8
        alignment: 8
      }
      name: "mMaxThreads"
      access: private_access
    }
  }
  fields {
    basic_abi {
      type_abi {
        name: "long"
        size: 8
        alignment: 8
      }
      name: "mStarvationStartTimeMs"
      access: private_access
    }
  }
  fields {
    basic_abi {
      type_abi {
        name: "android::Mutex"
        size: 40
        alignment: 4
      }
      name: "mLock"
      access: private_access
    }
  }
  fields {
    basic_abi {
      type_abi {
        name: "android::Vector<android::hardware::ProcessState::handle_entry>"
        size: 40
        alignment: 8
      }
      name: "mHandleToObject"
      access: private_access
    }
  }
  fields {
    basic_abi {
      type_abi {
        name: "bool"
        size: 1
        alignment: 1
      }
      name: "mManagesContexts"
      access: private_access
    }
  }
  fields {
    basic_abi {
      type_abi {
        name: "bool (*)(const android::String16 &, const android::sp<android::hardware::IBinder> &, void *)"
        size: 8
        alignment: 8
      }
      name: "mBinderContextCheckFunc"
      access: private_access
    }
  }
  fields {
    basic_abi {
      type_abi {
        name: "void *"
        size: 8
        alignment: 8
      }
      name: "mBinderContextUserData"
      access: private_access
    }
  }
  fields {
    basic_abi {
      type_abi {
        name: "android::KeyedVector<android::String16, android::sp<android::hardware::IBinder> >"
        size: 40
        alignment: 8
      }
      name: "mContexts"
      access: private_access
    }
  }
  fields {
    basic_abi {
      type_abi {
        name: "android::String8"
        size: 8
        alignment: 8
      }
      name: "mRootDir"
      access: private_access
    }
  }
  fields {
    basic_abi {
      type_abi {
        name: "bool"
        size: 1
        alignment: 1
      }
      name: "mThreadPoolStarted"
      access: private_access
    }
  }
  fields {
    basic_abi {
      type_abi {
        name: "bool"
        size: 1
        alignment: 1
      }
      name: "mSpawnThreadOnStart"
      access: private_access
    }
  }
  fields {
    basic_abi {
      type_abi {
        name: "volatile int"
        size: 4
        alignment: 4
      }
      name: "mThreadPoolSeq"
      access: private_access
    }
  }
  base_specifiers {
    basic_abi {
      type_abi {
        name: "android::RefBase"
        size: 16
        alignment: 8
      }
      name: ""
      access: public_access
    }
    is_virtual: true
  }
  source_file: "/home/suhwa.kim/CONA_Proj/android/system/libhwbinder/include/hwbinder/ProcessState.h"
  mangled_record_name: "_ZN7android8hardware12ProcessStateE"
  vtable_layout {
    vtable_components {
      kind: VBaseOffset
      mangled_component_name: ""
      value: 296
    }
    vtable_components {
      kind: OffsetToTop
      mangled_component_name: ""
      value: 0
    }
    vtable_components {
      kind: RTTI
      mangled_component_name: "_ZN7android8hardware12ProcessStateE"
      value: 0
    }
    vtable_components {
      kind: CompleteDtorPointer
      mangled_component_name: "_ZN7android8hardware12ProcessStateD0Ev"
      value: 0
    }
    vtable_components {
      kind: UnusedFunctionPointer
      mangled_component_name: "_ZN7android8hardware12ProcessStateD0Ev"
      value: 0
    }
    vtable_components {
      kind: VCallOffset
      mangled_component_name: ""
      value: 0
    }
    vtable_components {
      kind: VCallOffset
      mangled_component_name: ""
      value: 0
    }
    vtable_components {
      kind: VCallOffset
      mangled_component_name: ""
      value: 0
    }
    vtable_components {
      kind: VCallOffset
      mangled_component_name: ""
      value: 0
    }
    vtable_components {
      kind: VCallOffset
      mangled_component_name: ""
      value: 18446744073709551320
    }
    vtable_components {
      kind: OffsetToTop
      mangled_component_name: ""
      value: 18446744073709551320
    }
    vtable_components {
      kind: RTTI
      mangled_component_name: "_ZN7android8hardware12ProcessStateE"
      value: 0
    }
    vtable_components {
      kind: CompleteDtorPointer
      mangled_component_name: "_ZN7android8hardware12ProcessStateD0Ev"
      value: 0
    }
    vtable_components {
      kind: UnusedFunctionPointer
      mangled_component_name: "_ZN7android8hardware12ProcessStateD0Ev"
      value: 0
    }
    vtable_components {
      kind: FunctionPointer
      mangled_component_name: "_ZN7android7RefBase10onFirstRefEv"
      value: 0
    }
    vtable_components {
      kind: FunctionPointer
      mangled_component_name: "_ZN7android7RefBase15onLastStrongRefEPKv"
      value: 0
    }
    vtable_components {
      kind: FunctionPointer
      mangled_component_name: "_ZN7android7RefBase20onIncStrongAttemptedEjPKv"
      value: 0
    }
    vtable_components {
      kind: FunctionPointer
      mangled_component_name: "_ZN7android7RefBase13onLastWeakRefEPKv"
      value: 0
    }
  }
}
records {
  basic_abi {
    type_abi {
      name: "android::hardware::ProcessState::handle_entry"
      size: 16
      alignment: 8
    }
    name: "android::hardware::ProcessState::handle_entry"
    access: private_access
    linker_set_key: "_ZN7android8hardware12ProcessState12handle_entryE"
  }
  fields {
    basic_abi {
      type_abi {
        name: "android::hardware::IBinder *"
        size: 8
        alignment: 8
      }
      name: "binder"
      access: public_access
    }
  }
  fields {
    basic_abi {
      type_abi {
        name: "android::RefBase::weakref_type *"
        size: 8
        alignment: 8
      }
      name: "refs"
      access: public_access
    }
  }
  source_file: "/home/suhwa.kim/CONA_Proj/android/system/libhwbinder/include/hwbinder/ProcessState.h"
  mangled_record_name: "_ZN7android8hardware12ProcessState12handle_entryE"
}
records {
  basic_abi {
    type_abi {
      name: "android::hardware::IPCThreadState"
      size: 400
      alignment: 8
    }
    name: "android::hardware::IPCThreadState"
    access: public_access
    linker_set_key: "_ZN7android8hardware14IPCThreadStateE"
  }
  fields {
    basic_abi {
      type_abi {
        name: "const android::sp<android::hardware::ProcessState>"
        size: 8
        alignment: 8
      }
      name: "mProcess"
      access: private_access
    }
  }
  fields {
    basic_abi {
      type_abi {
        name: "const int"
        size: 4
        alignment: 4
      }
      name: "mMyThreadId"
      access: private_access
    }
  }
  fields {
    basic_abi {
      type_abi {
        name: "android::Vector<android::hardware::BHwBinder *>"
        size: 40
        alignment: 8
      }
      name: "mPendingStrongDerefs"
      access: private_access
    }
  }
  fields {
    basic_abi {
      type_abi {
        name: "android::Vector<android::RefBase::weakref_type *>"
        size: 40
        alignment: 8
      }
      name: "mPendingWeakDerefs"
      access: private_access
    }
  }
  fields {
    basic_abi {
      type_abi {
        name: "android::hardware::Parcel"
        size: 136
        alignment: 8
      }
      name: "mIn"
      access: private_access
    }
  }
  fields {
    basic_abi {
      type_abi {
        name: "android::hardware::Parcel"
        size: 136
        alignment: 8
      }
      name: "mOut"
      access: private_access
    }
  }
  fields {
    basic_abi {
      type_abi {
        name: "int"
        size: 4
        alignment: 4
      }
      name: "mLastError"
      access: private_access
    }
  }
  fields {
    basic_abi {
      type_abi {
        name: "int"
        size: 4
        alignment: 4
      }
      name: "mCallingPid"
      access: private_access
    }
  }
  fields {
    basic_abi {
      type_abi {
        name: "unsigned int"
        size: 4
        alignment: 4
      }
      name: "mCallingUid"
      access: private_access
    }
  }
  fields {
    basic_abi {
      type_abi {
        name: "int"
        size: 4
        alignment: 4
      }
      name: "mStrictModePolicy"
      access: private_access
    }
  }
  fields {
    basic_abi {
      type_abi {
        name: "int"
        size: 4
        alignment: 4
      }
      name: "mLastTransactionBinderFlags"
      access: private_access
    }
  }
  fields {
    basic_abi {
      type_abi {
        name: "android::sp<android::hardware::BHwBinder>"
        size: 8
        alignment: 8
      }
      name: "mContextObject"
      access: private_access
    }
  }
  source_file: "/home/suhwa.kim/CONA_Proj/android/system/libhwbinder/include/hwbinder/IPCThreadState.h"
  mangled_record_name: "_ZN7android8hardware14IPCThreadStateE"
}
records {
  basic_abi {
    type_abi {
      name: "android::hardware::BpHwBinder"
      size: 144
      alignment: 8
    }
    name: "android::hardware::BpHwBinder"
    access: public_access
    linker_set_key: "_ZN7android8hardware10BpHwBinderE"
  }
  fields {
    basic_abi {
      type_abi {
        name: "const int"
        size: 4
        alignment: 4
      }
      name: "mHandle"
      access: private_access
    }
  }
  fields {
    basic_abi {
      type_abi {
        name: "android::Mutex"
        size: 40
        alignment: 4
      }
      name: "mLock"
      access: private_access
    }
  }
  fields {
    basic_abi {
      type_abi {
        name: "volatile int"
        size: 4
        alignment: 4
      }
      name: "mAlive"
      access: private_access
    }
  }
  fields {
    basic_abi {
      type_abi {
        name: "volatile int"
        size: 4
        alignment: 4
      }
      name: "mObitsSent"
      access: private_access
    }
  }
  fields {
    basic_abi {
      type_abi {
        name: "android::Vector<android::hardware::BpHwBinder::Obituary> *"
        size: 8
        alignment: 8
      }
      name: "mObituaries"
      access: private_access
    }
  }
  fields {
    basic_abi {
      type_abi {
        name: "android::hardware::BpHwBinder::ObjectManager"
        size: 40
        alignment: 8
      }
      name: "mObjects"
      access: private_access
    }
  }
  fields {
    basic_abi {
      type_abi {
        name: "android::hardware::Parcel *"
        size: 8
        alignment: 8
      }
      name: "mConstantData"
      access: private_access
    }
  }
  fields {
    basic_abi {
      type_abi {
        name: "android::String16"
        size: 8
        alignment: 8
      }
      name: "mDescriptorCache"
      access: private_access
    }
  }
  base_specifiers {
    basic_abi {
      type_abi {
        name: "android::hardware::IBinder"
        size: 24
        alignment: 8
      }
      name: ""
      access: public_access
    }
    is_virtual: false
  }
  source_file: "/home/suhwa.kim/CONA_Proj/android/system/libhwbinder/include/hwbinder/BpHwBinder.h"
  mangled_record_name: "_ZN7android8hardware10BpHwBinderE"
  vtable_layout {
    vtable_components {
      kind: VBaseOffset
      mangled_component_name: ""
      value: 128
    }
    vtable_components {
      kind: OffsetToTop
      mangled_component_name: ""
      value: 0
    }
    vtable_components {
      kind: RTTI
      mangled_component_name: "_ZN7android8hardware10BpHwBinderE"
      value: 0
    }
    vtable_components {
      kind: FunctionPointer
      mangled_component_name: "_ZN7android8hardware10BpHwBinder8transactEjRKNS0_6ParcelEPS2_jNSt3__18functionIFvRS2_EEE"
      value: 0
    }
    vtable_components {
      kind: FunctionPointer
      mangled_component_name: "_ZN7android8hardware10BpHwBinder11linkToDeathERKNS_2spINS0_7IBinder14DeathRecipientEEEPvj"
      value: 0
    }
    vtable_components {
      kind: FunctionPointer
      mangled_component_name: "_ZN7android8hardware10BpHwBinder13unlinkToDeathERKNS_2wpINS0_7IBinder14DeathRecipientEEEPvjPS5_"
      value: 0
    }
    vtable_components {
      kind: FunctionPointer
      mangled_component_name: "_ZNK7android8hardware7IBinder13checkSubclassEPKv"
      value: 0
    }
    vtable_components {
      kind: FunctionPointer
      mangled_component_name: "_ZN7android8hardware10BpHwBinder12attachObjectEPKvPvS4_PFvS3_S4_S4_E"
      value: 0
    }
    vtable_components {
      kind: FunctionPointer
      mangled_component_name: "_ZNK7android8hardware10BpHwBinder10findObjectEPKv"
      value: 0
    }
    vtable_components {
      kind: FunctionPointer
      mangled_component_name: "_ZN7android8hardware10BpHwBinder12detachObjectEPKv"
      value: 0
    }
    vtable_components {
      kind: FunctionPointer
      mangled_component_name: "_ZN7android8hardware7IBinder11localBinderEv"
      value: 0
    }
    vtable_components {
      kind: FunctionPointer
      mangled_component_name: "_ZN7android8hardware10BpHwBinder12remoteBinderEv"
      value: 0
    }
    vtable_components {
      kind: CompleteDtorPointer
      mangled_component_name: "_ZN7android8hardware10BpHwBinderD0Ev"
      value: 0
    }
    vtable_components {
      kind: UnusedFunctionPointer
      mangled_component_name: "_ZN7android8hardware10BpHwBinderD0Ev"
      value: 0
    }
    vtable_components {
      kind: FunctionPointer
      mangled_component_name: "_ZN7android8hardware10BpHwBinder10onFirstRefEv"
      value: 0
    }
    vtable_components {
      kind: FunctionPointer
      mangled_component_name: "_ZN7android8hardware10BpHwBinder15onLastStrongRefEPKv"
      value: 0
    }
    vtable_components {
      kind: FunctionPointer
      mangled_component_name: "_ZN7android8hardware10BpHwBinder20onIncStrongAttemptedEjPKv"
      value: 0
    }
    vtable_components {
      kind: VCallOffset
      mangled_component_name: ""
      value: 0
    }
    vtable_components {
      kind: VCallOffset
      mangled_component_name: ""
      value: 18446744073709551488
    }
    vtable_components {
      kind: VCallOffset
      mangled_component_name: ""
      value: 18446744073709551488
    }
    vtable_components {
      kind: VCallOffset
      mangled_component_name: ""
      value: 18446744073709551488
    }
    vtable_components {
      kind: VCallOffset
      mangled_component_name: ""
      value: 18446744073709551488
    }
    vtable_components {
      kind: OffsetToTop
      mangled_component_name: ""
      value: 18446744073709551488
    }
    vtable_components {
      kind: RTTI
      mangled_component_name: "_ZN7android8hardware10BpHwBinderE"
      value: 0
    }
    vtable_components {
      kind: CompleteDtorPointer
      mangled_component_name: "_ZN7android8hardware10BpHwBinderD0Ev"
      value: 0
    }
    vtable_components {
      kind: UnusedFunctionPointer
      mangled_component_name: "_ZN7android8hardware10BpHwBinderD0Ev"
      value: 0
    }
    vtable_components {
      kind: FunctionPointer
      mangled_component_name: "_ZN7android8hardware10BpHwBinder10onFirstRefEv"
      value: 0
    }
    vtable_components {
      kind: FunctionPointer
      mangled_component_name: "_ZN7android8hardware10BpHwBinder15onLastStrongRefEPKv"
      value: 0
    }
    vtable_components {
      kind: FunctionPointer
      mangled_component_name: "_ZN7android8hardware10BpHwBinder20onIncStrongAttemptedEjPKv"
      value: 0
    }
    vtable_components {
      kind: FunctionPointer
      mangled_component_name: "_ZN7android7RefBase13onLastWeakRefEPKv"
      value: 0
    }
  }
}
records {
  basic_abi {
    type_abi {
      name: "android::hardware::BpHwBinder::ObjectManager"
      size: 40
      alignment: 8
    }
    name: "android::hardware::BpHwBinder::ObjectManager"
    access: public_access
    linker_set_key: "_ZN7android8hardware10BpHwBinder13ObjectManagerE"
  }
  fields {
    basic_abi {
      type_abi {
        name: "android::KeyedVector<const void *, android::hardware::BpHwBinder::ObjectManager::entry_t>"
        size: 40
        alignment: 8
      }
      name: "mObjects"
      access: private_access
    }
  }
  source_file: "/home/suhwa.kim/CONA_Proj/android/system/libhwbinder/include/hwbinder/BpHwBinder.h"
  mangled_record_name: "_ZN7android8hardware10BpHwBinder13ObjectManagerE"
}
records {
  basic_abi {
    type_abi {
      name: "android::hardware::BpHwBinder::ObjectManager::entry_t"
      size: 24
      alignment: 8
    }
    name: "android::hardware::BpHwBinder::ObjectManager::entry_t"
    access: private_access
    linker_set_key: "_ZN7android8hardware10BpHwBinder13ObjectManager7entry_tE"
  }
  fields {
    basic_abi {
      type_abi {
        name: "void *"
        size: 8
        alignment: 8
      }
      name: "object"
      access: public_access
    }
  }
  fields {
    basic_abi {
      type_abi {
        name: "void *"
        size: 8
        alignment: 8
      }
      name: "cleanupCookie"
      access: public_access
    }
  }
  fields {
    basic_abi {
      type_abi {
        name: "void (*)(const void *, void *, void *)"
        size: 8
        alignment: 8
      }
      name: "func"
      access: public_access
    }
  }
  source_file: "/home/suhwa.kim/CONA_Proj/android/system/libhwbinder/include/hwbinder/BpHwBinder.h"
  mangled_record_name: "_ZN7android8hardware10BpHwBinder13ObjectManager7entry_tE"
}
records {
  basic_abi {
    type_abi {
      name: "android::hardware::BpHwBinder::Obituary"
      size: 32
      alignment: 8
    }
    name: "android::hardware::BpHwBinder::Obituary"
    access: private_access
    linker_set_key: "_ZN7android8hardware10BpHwBinder8ObituaryE"
  }
  fields {
    basic_abi {
      type_abi {
        name: "android::wp<android::hardware::IBinder::DeathRecipient>"
        size: 16
        alignment: 8
      }
      name: "recipient"
      access: public_access
    }
  }
  fields {
    basic_abi {
      type_abi {
        name: "void *"
        size: 8
        alignment: 8
      }
      name: "cookie"
      access: public_access
    }
  }
  fields {
    basic_abi {
      type_abi {
        name: "unsigned int"
        size: 4
        alignment: 4
      }
      name: "flags"
      access: public_access
    }
  }
  source_file: "/home/suhwa.kim/CONA_Proj/android/system/libhwbinder/include/hwbinder/BpHwBinder.h"
  mangled_record_name: "_ZN7android8hardware10BpHwBinder8ObituaryE"
}
records {
  basic_abi {
    type_abi {
      name: "android::hardware::TextOutput"
      size: 8
      alignment: 8
    }
    name: "android::hardware::TextOutput"
    access: public_access
    linker_set_key: "_ZN7android8hardware10TextOutputE"
  }
  source_file: "/home/suhwa.kim/CONA_Proj/android/system/libhwbinder/include/hwbinder/TextOutput.h"
  mangled_record_name: "_ZN7android8hardware10TextOutputE"
  vtable_layout {
    vtable_components {
      kind: OffsetToTop
      mangled_component_name: ""
      value: 0
    }
    vtable_components {
      kind: RTTI
      mangled_component_name: "_ZN7android8hardware10TextOutputE"
      value: 0
    }
    vtable_components {
      kind: CompleteDtorPointer
      mangled_component_name: "_ZN7android8hardware10TextOutputD0Ev"
      value: 0
    }
    vtable_components {
      kind: UnusedFunctionPointer
      mangled_component_name: "_ZN7android8hardware10TextOutputD0Ev"
      value: 0
    }
    vtable_components {
      kind: FunctionPointer
      mangled_component_name: "_ZN7android8hardware10TextOutput5printEPKcm"
      value: 0
    }
    vtable_components {
      kind: FunctionPointer
      mangled_component_name: "_ZN7android8hardware10TextOutput10moveIndentEi"
      value: 0
    }
    vtable_components {
      kind: FunctionPointer
      mangled_component_name: "_ZN7android8hardware10TextOutput10pushBundleEv"
      value: 0
    }
    vtable_components {
      kind: FunctionPointer
      mangled_component_name: "_ZN7android8hardware10TextOutput9popBundleEv"
      value: 0
    }
  }
}
records {
  basic_abi {
    type_abi {
      name: "android::hardware::TextOutput::Bundle"
      size: 8
      alignment: 8
    }
    name: "android::hardware::TextOutput::Bundle"
    access: public_access
    linker_set_key: "_ZN7android8hardware10TextOutput6BundleE"
  }
  fields {
    basic_abi {
      type_abi {
        name: "android::hardware::TextOutput &"
        size: 8
        alignment: 8
      }
      name: "mTO"
      access: private_access
    }
  }
  source_file: "/home/suhwa.kim/CONA_Proj/android/system/libhwbinder/include/hwbinder/TextOutput.h"
  mangled_record_name: "_ZN7android8hardware10TextOutput6BundleE"
}
records {
  basic_abi {
    type_abi {
      name: "android::hardware::TypeCode"
      size: 4
      alignment: 4
    }
    name: "android::hardware::TypeCode"
    access: public_access
    linker_set_key: "_ZN7android8hardware8TypeCodeE"
  }
  fields {
    basic_abi {
      type_abi {
        name: "unsigned int"
        size: 4
        alignment: 4
      }
      name: "mCode"
      access: private_access
    }
  }
  source_file: "/home/suhwa.kim/CONA_Proj/android/system/libhwbinder/include/hwbinder/TextOutput.h"
  mangled_record_name: "_ZN7android8hardware8TypeCodeE"
}
records {
  basic_abi {
    type_abi {
      name: "android::hardware::HexDump"
      size: 48
      alignment: 8
    }
    name: "android::hardware::HexDump"
    access: public_access
    linker_set_key: "_ZN7android8hardware7HexDumpE"
  }
  fields {
    basic_abi {
      type_abi {
        name: "const void *"
        size: 8
        alignment: 8
      }
      name: "mBuffer"
      access: private_access
    }
  }
  fields {
    basic_abi {
      type_abi {
        name: "unsigned long"
        size: 8
        alignment: 8
      }
      name: "mSize"
      access: private_access
    }
  }
  fields {
    basic_abi {
      type_abi {
        name: "unsigned long"
        size: 8
        alignment: 8
      }
      name: "mBytesPerLine"
      access: private_access
    }
  }
  fields {
    basic_abi {
      type_abi {
        name: "int"
        size: 4
        alignment: 4
      }
      name: "mSingleLineCutoff"
      access: private_access
    }
  }
  fields {
    basic_abi {
      type_abi {
        name: "unsigned long"
        size: 8
        alignment: 8
      }
      name: "mAlignment"
      access: private_access
    }
  }
  fields {
    basic_abi {
      type_abi {
        name: "bool"
        size: 1
        alignment: 1
      }
      name: "mCArrayStyle"
      access: private_access
    }
  }
  source_file: "/home/suhwa.kim/CONA_Proj/android/system/libhwbinder/include/hwbinder/TextOutput.h"
  mangled_record_name: "_ZN7android8hardware7HexDumpE"
}
records {
  basic_abi {
    type_abi {
      name: "binder_object_header"
      size: 4
      alignment: 4
    }
    name: "binder_object_header"
    access: public_access
    linker_set_key: "_Z20binder_object_header"
  }
  fields {
    basic_abi {
      type_abi {
        name: "unsigned int"
        size: 4
        alignment: 4
      }
      name: "type"
      access: public_access
    }
  }
  source_file: "/home/suhwa.kim/CONA_Proj/android/system/libhwbinder/include/hwbinder/binder_kernel.h"
  mangled_record_name: "_Z20binder_object_header"
}
records {
  basic_abi {
    type_abi {
      name: "binder_fd_object"
      size: 24
      alignment: 8
    }
    name: "binder_fd_object"
    access: public_access
    linker_set_key: "_Z16binder_fd_object"
  }
  fields {
    basic_abi {
      type_abi {
        name: "binder_object_header"
        size: 4
        alignment: 4
      }
      name: "hdr"
      access: public_access
    }
  }
  fields {
    basic_abi {
      type_abi {
        name: "unsigned int"
        size: 4
        alignment: 4
      }
      name: "pad_flags"
      access: public_access
    }
  }
  fields {
    basic_abi {
      type_abi {
        name: "binder_fd_object::(anonymous)"
        size: 8
        alignment: 8
      }
      name: ""
      access: public_access
    }
  }
  fields {
    basic_abi {
      type_abi {
        name: "unsigned long long"
        size: 8
        alignment: 8
      }
      name: "cookie"
      access: public_access
    }
  }
  source_file: "/home/suhwa.kim/CONA_Proj/android/system/libhwbinder/include/hwbinder/binder_kernel.h"
  mangled_record_name: "_Z16binder_fd_object"
}
records {
  basic_abi {
    type_abi {
      name: "binder_fd_object::(anonymous)"
      size: 8
      alignment: 8
    }
    name: "binder_fd_object::(anonymous)"
    access: public_access
    linker_set_key: "_ZN16binder_fd_objectUt_E"
  }
  fields {
    basic_abi {
      type_abi {
        name: "unsigned long long"
        size: 8
        alignment: 8
      }
      name: "pad_binder"
      access: public_access
    }
  }
  fields {
    basic_abi {
      type_abi {
        name: "unsigned int"
        size: 4
        alignment: 4
      }
      name: "fd"
      access: public_access
    }
  }
  source_file: "/home/suhwa.kim/CONA_Proj/android/system/libhwbinder/include/hwbinder/binder_kernel.h"
  mangled_record_name: "_ZN16binder_fd_objectUt_E"
}
records {
  basic_abi {
    type_abi {
      name: "binder_buffer_object"
      size: 40
      alignment: 8
    }
    name: "binder_buffer_object"
    access: public_access
    linker_set_key: "_Z20binder_buffer_object"
  }
  fields {
    basic_abi {
      type_abi {
        name: "binder_object_header"
        size: 4
        alignment: 4
      }
      name: "hdr"
      access: public_access
    }
  }
  fields {
    basic_abi {
      type_abi {
        name: "unsigned int"
        size: 4
        alignment: 4
      }
      name: "flags"
      access: public_access
    }
  }
  fields {
    basic_abi {
      type_abi {
        name: "binder_buffer_object::(anonymous)"
        size: 16
        alignment: 8
      }
      name: ""
      access: public_access
    }
  }
  fields {
    basic_abi {
      type_abi {
        name: "unsigned long long"
        size: 8
        alignment: 8
      }
      name: "parent"
      access: public_access
    }
  }
  fields {
    basic_abi {
      type_abi {
        name: "unsigned long long"
        size: 8
        alignment: 8
      }
      name: "parent_offset"
      access: public_access
    }
  }
  source_file: "/home/suhwa.kim/CONA_Proj/android/system/libhwbinder/include/hwbinder/binder_kernel.h"
  mangled_record_name: "_Z20binder_buffer_object"
}
records {
  basic_abi {
    type_abi {
      name: "binder_buffer_object::(anonymous)"
      size: 16
      alignment: 8
    }
    name: "binder_buffer_object::(anonymous)"
    access: public_access
    linker_set_key: "_ZN20binder_buffer_objectUt_E"
  }
  fields {
    basic_abi {
      type_abi {
        name: "binder_buffer_object::(anonymous)::(anonymous)"
        size: 16
        alignment: 8
      }
      name: ""
      access: public_access
    }
  }
  fields {
    basic_abi {
      type_abi {
        name: "binder_buffer_object::(anonymous)::(anonymous)"
        size: 16
        alignment: 8
      }
      name: ""
      access: public_access
    }
  }
  source_file: "/home/suhwa.kim/CONA_Proj/android/system/libhwbinder/include/hwbinder/binder_kernel.h"
  mangled_record_name: "_ZN20binder_buffer_objectUt_E"
}
records {
  basic_abi {
    type_abi {
      name: "binder_buffer_object::(anonymous)::(anonymous)"
      size: 16
      alignment: 8
    }
    name: "binder_buffer_object::(anonymous union)::(anonymous)"
    access: public_access
    linker_set_key: "_ZN20binder_buffer_objectUt_Ut_E"
  }
  fields {
    basic_abi {
      type_abi {
        name: "unsigned long long"
        size: 8
        alignment: 8
      }
      name: "buffer"
      access: public_access
    }
  }
  fields {
    basic_abi {
      type_abi {
        name: "unsigned long long"
        size: 8
        alignment: 8
      }
      name: "length"
      access: public_access
    }
  }
  source_file: "/home/suhwa.kim/CONA_Proj/android/system/libhwbinder/include/hwbinder/binder_kernel.h"
  mangled_record_name: "_ZN20binder_buffer_objectUt_Ut_E"
}
records {
  basic_abi {
    type_abi {
      name: "binder_buffer_object::(anonymous)::(anonymous)"
      size: 16
      alignment: 8
    }
    name: "binder_buffer_object::(anonymous union)::(anonymous)"
    access: public_access
    linker_set_key: "_ZN20binder_buffer_objectUt_Ut0_E"
  }
  fields {
    basic_abi {
      type_abi {
        name: "unsigned long long"
        size: 8
        alignment: 8
      }
      name: "child"
      access: public_access
    }
  }
  fields {
    basic_abi {
      type_abi {
        name: "unsigned long long"
        size: 8
        alignment: 8
      }
      name: "child_offset"
      access: public_access
    }
  }
  source_file: "/home/suhwa.kim/CONA_Proj/android/system/libhwbinder/include/hwbinder/binder_kernel.h"
  mangled_record_name: "_ZN20binder_buffer_objectUt_Ut0_E"
}
records {
  basic_abi {
    type_abi {
      name: "binder_fd_array_object"
      size: 32
      alignment: 8
    }
    name: "binder_fd_array_object"
    access: public_access
    linker_set_key: "_Z22binder_fd_array_object"
  }
  fields {
    basic_abi {
      type_abi {
        name: "binder_object_header"
        size: 4
        alignment: 4
      }
      name: "hdr"
      access: public_access
    }
  }
  fields {
    basic_abi {
      type_abi {
        name: "unsigned int"
        size: 4
        alignment: 4
      }
      name: "_pad"
      access: public_access
    }
  }
  fields {
    basic_abi {
      type_abi {
        name: "unsigned long long"
        size: 8
        alignment: 8
      }
      name: "num_fds"
      access: public_access
    }
  }
  fields {
    basic_abi {
      type_abi {
        name: "unsigned long long"
        size: 8
        alignment: 8
      }
      name: "parent"
      access: public_access
    }
  }
  fields {
    basic_abi {
      type_abi {
        name: "unsigned long long"
        size: 8
        alignment: 8
      }
      name: "parent_offset"
      access: public_access
    }
  }
  source_file: "/home/suhwa.kim/CONA_Proj/android/system/libhwbinder/include/hwbinder/binder_kernel.h"
  mangled_record_name: "_Z22binder_fd_array_object"
}
records {
  basic_abi {
    type_abi {
      name: "binder_transaction_data_sg"
      size: 72
      alignment: 8
    }
    name: "binder_transaction_data_sg"
    access: public_access
    linker_set_key: "_Z26binder_transaction_data_sg"
  }
  fields {
    basic_abi {
      type_abi {
        name: "binder_transaction_data"
        size: 64
        alignment: 8
      }
      name: "tr"
      access: public_access
    }
  }
  fields {
    basic_abi {
      type_abi {
        name: "unsigned long long"
        size: 8
        alignment: 8
      }
      name: "buffers_size"
      access: public_access
    }
  }
  source_file: "/home/suhwa.kim/CONA_Proj/android/system/libhwbinder/include/hwbinder/binder_kernel.h"
  mangled_record_name: "_Z26binder_transaction_data_sg"
}
functions {
  basic_abi {
    type_abi {
      name: "void"
    }
    name: "android::hardware::IBinder::IBinder"
    access: public_access
    linker_set_key: "_ZN7android8hardware7IBinderC1Ev"
  }
  mangled_function_name: "_ZN7android8hardware7IBinderC1Ev"
  source_file: "/home/suhwa.kim/CONA_Proj/android/system/libhwbinder/include/hwbinder/IBinder.h"
}
functions {
  basic_abi {
    type_abi {
      name: "int"
      size: 4
      alignment: 4
    }
    name: "android::hardware::IBinder::transact"
    access: public_access
    linker_set_key: "_ZN7android8hardware7IBinder8transactEjRKNS0_6ParcelEPS2_jNSt3__18functionIFvRS2_EEE"
  }
  mangled_function_name: "_ZN7android8hardware7IBinder8transactEjRKNS0_6ParcelEPS2_jNSt3__18functionIFvRS2_EEE"
  source_file: "/home/suhwa.kim/CONA_Proj/android/system/libhwbinder/include/hwbinder/IBinder.h"
  parameters {
    basic_abi {
      type_abi {
        name: "unsigned int"
        size: 4
        alignment: 4
      }
      name: "code"
      access: public_access
      linker_set_key: "false"
    }
    default_arg: false
  }
  parameters {
    basic_abi {
      type_abi {
        name: "const android::hardware::Parcel &"
        size: 8
        alignment: 8
      }
      name: "data"
      access: public_access
      linker_set_key: "false"
    }
    default_arg: false
  }
  parameters {
    basic_abi {
      type_abi {
        name: "android::hardware::Parcel *"
        size: 8
        alignment: 8
      }
      name: "reply"
      access: public_access
      linker_set_key: "false"
    }
    default_arg: false
  }
  parameters {
    basic_abi {
      type_abi {
        name: "unsigned int"
        size: 4
        alignment: 4
      }
      name: "flags"
      access: public_access
      linker_set_key: "true"
    }
    default_arg: true
  }
  parameters {
    basic_abi {
      type_abi {
        name: "std::function<void (Parcel &)>"
        size: 48
        alignment: 16
      }
      name: "callback"
      access: public_access
      linker_set_key: "true"
    }
    default_arg: true
  }
}
functions {
  basic_abi {
    type_abi {
      name: "void"
    }
    name: "android::hardware::IBinder::DeathRecipient::binderDied"
    access: public_access
    linker_set_key: "_ZN7android8hardware7IBinder14DeathRecipient10binderDiedERKNS_2wpIS1_EE"
  }
  mangled_function_name: "_ZN7android8hardware7IBinder14DeathRecipient10binderDiedERKNS_2wpIS1_EE"
  source_file: "/home/suhwa.kim/CONA_Proj/android/system/libhwbinder/include/hwbinder/IBinder.h"
  parameters {
    basic_abi {
      type_abi {
        name: "const android::wp<android::hardware::IBinder> &"
        size: 8
        alignment: 8
      }
      name: "who"
      access: public_access
      linker_set_key: "false"
    }
    default_arg: false
  }
}
functions {
  basic_abi {
    type_abi {
      name: "int"
      size: 4
      alignment: 4
    }
    name: "android::hardware::IBinder::linkToDeath"
    access: public_access
    linker_set_key: "_ZN7android8hardware7IBinder11linkToDeathERKNS_2spINS1_14DeathRecipientEEEPvj"
  }
  mangled_function_name: "_ZN7android8hardware7IBinder11linkToDeathERKNS_2spINS1_14DeathRecipientEEEPvj"
  source_file: "/home/suhwa.kim/CONA_Proj/android/system/libhwbinder/include/hwbinder/IBinder.h"
  parameters {
    basic_abi {
      type_abi {
        name: "const android::sp<android::hardware::IBinder::DeathRecipient> &"
        size: 8
        alignment: 8
      }
      name: "recipient"
      access: public_access
      linker_set_key: "false"
    }
    default_arg: false
  }
  parameters {
    basic_abi {
      type_abi {
        name: "void *"
        size: 8
        alignment: 8
      }
      name: "cookie"
      access: public_access
      linker_set_key: "true"
    }
    default_arg: true
  }
  parameters {
    basic_abi {
      type_abi {
        name: "unsigned int"
        size: 4
        alignment: 4
      }
      name: "flags"
      access: public_access
      linker_set_key: "true"
    }
    default_arg: true
  }
}
functions {
  basic_abi {
    type_abi {
      name: "int"
      size: 4
      alignment: 4
    }
    name: "android::hardware::IBinder::unlinkToDeath"
    access: public_access
    linker_set_key: "_ZN7android8hardware7IBinder13unlinkToDeathERKNS_2wpINS1_14DeathRecipientEEEPvjPS4_"
  }
  mangled_function_name: "_ZN7android8hardware7IBinder13unlinkToDeathERKNS_2wpINS1_14DeathRecipientEEEPvjPS4_"
  source_file: "/home/suhwa.kim/CONA_Proj/android/system/libhwbinder/include/hwbinder/IBinder.h"
  parameters {
    basic_abi {
      type_abi {
        name: "const android::wp<android::hardware::IBinder::DeathRecipient> &"
        size: 8
        alignment: 8
      }
      name: "recipient"
      access: public_access
      linker_set_key: "false"
    }
    default_arg: false
  }
  parameters {
    basic_abi {
      type_abi {
        name: "void *"
        size: 8
        alignment: 8
      }
      name: "cookie"
      access: public_access
      linker_set_key: "true"
    }
    default_arg: true
  }
  parameters {
    basic_abi {
      type_abi {
        name: "unsigned int"
        size: 4
        alignment: 4
      }
      name: "flags"
      access: public_access
      linker_set_key: "true"
    }
    default_arg: true
  }
  parameters {
    basic_abi {
      type_abi {
        name: "android::wp<android::hardware::IBinder::DeathRecipient> *"
        size: 8
        alignment: 8
      }
      name: "outRecipient"
      access: public_access
      linker_set_key: "true"
    }
    default_arg: true
  }
}
functions {
  basic_abi {
    type_abi {
      name: "bool"
      size: 1
      alignment: 1
    }
    name: "android::hardware::IBinder::checkSubclass"
    access: public_access
    linker_set_key: "_ZNK7android8hardware7IBinder13checkSubclassEPKv"
  }
  mangled_function_name: "_ZNK7android8hardware7IBinder13checkSubclassEPKv"
  source_file: "/home/suhwa.kim/CONA_Proj/android/system/libhwbinder/include/hwbinder/IBinder.h"
  parameters {
    basic_abi {
      type_abi {
        name: "const void *"
        size: 8
        alignment: 8
      }
      name: "subclassID"
      access: public_access
      linker_set_key: "false"
    }
    default_arg: false
  }
}
functions {
  basic_abi {
    type_abi {
      name: "void"
    }
    name: "android::hardware::IBinder::attachObject"
    access: public_access
    linker_set_key: "_ZN7android8hardware7IBinder12attachObjectEPKvPvS4_PFvS3_S4_S4_E"
  }
  mangled_function_name: "_ZN7android8hardware7IBinder12attachObjectEPKvPvS4_PFvS3_S4_S4_E"
  source_file: "/home/suhwa.kim/CONA_Proj/android/system/libhwbinder/include/hwbinder/IBinder.h"
  parameters {
    basic_abi {
      type_abi {
        name: "const void *"
        size: 8
        alignment: 8
      }
      name: "objectID"
      access: public_access
      linker_set_key: "false"
    }
    default_arg: false
  }
  parameters {
    basic_abi {
      type_abi {
        name: "void *"
        size: 8
        alignment: 8
      }
      name: "object"
      access: public_access
      linker_set_key: "false"
    }
    default_arg: false
  }
  parameters {
    basic_abi {
      type_abi {
        name: "void *"
        size: 8
        alignment: 8
      }
      name: "cleanupCookie"
      access: public_access
      linker_set_key: "false"
    }
    default_arg: false
  }
  parameters {
    basic_abi {
      type_abi {
        name: "void (*)(const void *, void *, void *)"
        size: 8
        alignment: 8
      }
      name: "func"
      access: public_access
      linker_set_key: "false"
    }
    default_arg: false
  }
}
functions {
  basic_abi {
    type_abi {
      name: "void *"
      size: 8
      alignment: 8
    }
    name: "android::hardware::IBinder::findObject"
    access: public_access
    linker_set_key: "_ZNK7android8hardware7IBinder10findObjectEPKv"
  }
  mangled_function_name: "_ZNK7android8hardware7IBinder10findObjectEPKv"
  source_file: "/home/suhwa.kim/CONA_Proj/android/system/libhwbinder/include/hwbinder/IBinder.h"
  parameters {
    basic_abi {
      type_abi {
        name: "const void *"
        size: 8
        alignment: 8
      }
      name: "objectID"
      access: public_access
      linker_set_key: "false"
    }
    default_arg: false
  }
}
functions {
  basic_abi {
    type_abi {
      name: "void"
    }
    name: "android::hardware::IBinder::detachObject"
    access: public_access
    linker_set_key: "_ZN7android8hardware7IBinder12detachObjectEPKv"
  }
  mangled_function_name: "_ZN7android8hardware7IBinder12detachObjectEPKv"
  source_file: "/home/suhwa.kim/CONA_Proj/android/system/libhwbinder/include/hwbinder/IBinder.h"
  parameters {
    basic_abi {
      type_abi {
        name: "const void *"
        size: 8
        alignment: 8
      }
      name: "objectID"
      access: public_access
      linker_set_key: "false"
    }
    default_arg: false
  }
}
functions {
  basic_abi {
    type_abi {
      name: "android::hardware::BHwBinder *"
      size: 8
      alignment: 8
    }
    name: "android::hardware::IBinder::localBinder"
    access: public_access
    linker_set_key: "_ZN7android8hardware7IBinder11localBinderEv"
  }
  mangled_function_name: "_ZN7android8hardware7IBinder11localBinderEv"
  source_file: "/home/suhwa.kim/CONA_Proj/android/system/libhwbinder/include/hwbinder/IBinder.h"
}
functions {
  basic_abi {
    type_abi {
      name: "android::hardware::BpHwBinder *"
      size: 8
      alignment: 8
    }
    name: "android::hardware::IBinder::remoteBinder"
    access: public_access
    linker_set_key: "_ZN7android8hardware7IBinder12remoteBinderEv"
  }
  mangled_function_name: "_ZN7android8hardware7IBinder12remoteBinderEv"
  source_file: "/home/suhwa.kim/CONA_Proj/android/system/libhwbinder/include/hwbinder/IBinder.h"
}
functions {
  basic_abi {
    type_abi {
      name: "void"
    }
    name: "android::hardware::IBinder::~IBinder"
    access: protected_access
    linker_set_key: "_ZN7android8hardware7IBinderD0Ev"
  }
  mangled_function_name: "_ZN7android8hardware7IBinderD0Ev"
  source_file: "/home/suhwa.kim/CONA_Proj/android/system/libhwbinder/include/hwbinder/IBinder.h"
}
functions {
  basic_abi {
    type_abi {
      name: "void"
    }
    name: "android::hardware::BHwBinder::BHwBinder"
    access: public_access
    linker_set_key: "_ZN7android8hardware9BHwBinderC1Ev"
  }
  mangled_function_name: "_ZN7android8hardware9BHwBinderC1Ev"
  source_file: "/home/suhwa.kim/CONA_Proj/android/system/libhwbinder/include/hwbinder/Binder.h"
}
functions {
  basic_abi {
    type_abi {
      name: "int"
      size: 4
      alignment: 4
    }
    name: "android::hardware::BHwBinder::transact"
    access: public_access
    linker_set_key: "_ZN7android8hardware9BHwBinder8transactEjRKNS0_6ParcelEPS2_jNSt3__18functionIFvRS2_EEE"
  }
  mangled_function_name: "_ZN7android8hardware9BHwBinder8transactEjRKNS0_6ParcelEPS2_jNSt3__18functionIFvRS2_EEE"
  source_file: "/home/suhwa.kim/CONA_Proj/android/system/libhwbinder/include/hwbinder/Binder.h"
  parameters {
    basic_abi {
      type_abi {
        name: "unsigned int"
        size: 4
        alignment: 4
      }
      name: "code"
      access: public_access
      linker_set_key: "false"
    }
    default_arg: false
  }
  parameters {
    basic_abi {
      type_abi {
        name: "const android::hardware::Parcel &"
        size: 8
        alignment: 8
      }
      name: "data"
      access: public_access
      linker_set_key: "false"
    }
    default_arg: false
  }
  parameters {
    basic_abi {
      type_abi {
        name: "android::hardware::Parcel *"
        size: 8
        alignment: 8
      }
      name: "reply"
      access: public_access
      linker_set_key: "false"
    }
    default_arg: false
  }
  parameters {
    basic_abi {
      type_abi {
        name: "unsigned int"
        size: 4
        alignment: 4
      }
      name: "flags"
      access: public_access
      linker_set_key: "true"
    }
    default_arg: true
  }
  parameters {
    basic_abi {
      type_abi {
        name: "std::function<void (Parcel &)>"
        size: 48
        alignment: 16
      }
      name: "callback"
      access: public_access
      linker_set_key: "true"
    }
    default_arg: true
  }
}
functions {
  basic_abi {
    type_abi {
      name: "int"
      size: 4
      alignment: 4
    }
    name: "android::hardware::BHwBinder::linkToDeath"
    access: public_access
    linker_set_key: "_ZN7android8hardware9BHwBinder11linkToDeathERKNS_2spINS0_7IBinder14DeathRecipientEEEPvj"
  }
  mangled_function_name: "_ZN7android8hardware9BHwBinder11linkToDeathERKNS_2spINS0_7IBinder14DeathRecipientEEEPvj"
  source_file: "/home/suhwa.kim/CONA_Proj/android/system/libhwbinder/include/hwbinder/Binder.h"
  parameters {
    basic_abi {
      type_abi {
        name: "const android::sp<android::hardware::IBinder::DeathRecipient> &"
        size: 8
        alignment: 8
      }
      name: "recipient"
      access: public_access
      linker_set_key: "false"
    }
    default_arg: false
  }
  parameters {
    basic_abi {
      type_abi {
        name: "void *"
        size: 8
        alignment: 8
      }
      name: "cookie"
      access: public_access
      linker_set_key: "true"
    }
    default_arg: true
  }
  parameters {
    basic_abi {
      type_abi {
        name: "unsigned int"
        size: 4
        alignment: 4
      }
      name: "flags"
      access: public_access
      linker_set_key: "true"
    }
    default_arg: true
  }
}
functions {
  basic_abi {
    type_abi {
      name: "int"
      size: 4
      alignment: 4
    }
    name: "android::hardware::BHwBinder::unlinkToDeath"
    access: public_access
    linker_set_key: "_ZN7android8hardware9BHwBinder13unlinkToDeathERKNS_2wpINS0_7IBinder14DeathRecipientEEEPvjPS5_"
  }
  mangled_function_name: "_ZN7android8hardware9BHwBinder13unlinkToDeathERKNS_2wpINS0_7IBinder14DeathRecipientEEEPvjPS5_"
  source_file: "/home/suhwa.kim/CONA_Proj/android/system/libhwbinder/include/hwbinder/Binder.h"
  parameters {
    basic_abi {
      type_abi {
        name: "const android::wp<android::hardware::IBinder::DeathRecipient> &"
        size: 8
        alignment: 8
      }
      name: "recipient"
      access: public_access
      linker_set_key: "false"
    }
    default_arg: false
  }
  parameters {
    basic_abi {
      type_abi {
        name: "void *"
        size: 8
        alignment: 8
      }
      name: "cookie"
      access: public_access
      linker_set_key: "true"
    }
    default_arg: true
  }
  parameters {
    basic_abi {
      type_abi {
        name: "unsigned int"
        size: 4
        alignment: 4
      }
      name: "flags"
      access: public_access
      linker_set_key: "true"
    }
    default_arg: true
  }
  parameters {
    basic_abi {
      type_abi {
        name: "android::wp<android::hardware::IBinder::DeathRecipient> *"
        size: 8
        alignment: 8
      }
      name: "outRecipient"
      access: public_access
      linker_set_key: "true"
    }
    default_arg: true
  }
}
functions {
  basic_abi {
    type_abi {
      name: "void"
    }
    name: "android::hardware::BHwBinder::attachObject"
    access: public_access
    linker_set_key: "_ZN7android8hardware9BHwBinder12attachObjectEPKvPvS4_PFvS3_S4_S4_E"
  }
  mangled_function_name: "_ZN7android8hardware9BHwBinder12attachObjectEPKvPvS4_PFvS3_S4_S4_E"
  source_file: "/home/suhwa.kim/CONA_Proj/android/system/libhwbinder/include/hwbinder/Binder.h"
  parameters {
    basic_abi {
      type_abi {
        name: "const void *"
        size: 8
        alignment: 8
      }
      name: "objectID"
      access: public_access
      linker_set_key: "false"
    }
    default_arg: false
  }
  parameters {
    basic_abi {
      type_abi {
        name: "void *"
        size: 8
        alignment: 8
      }
      name: "object"
      access: public_access
      linker_set_key: "false"
    }
    default_arg: false
  }
  parameters {
    basic_abi {
      type_abi {
        name: "void *"
        size: 8
        alignment: 8
      }
      name: "cleanupCookie"
      access: public_access
      linker_set_key: "false"
    }
    default_arg: false
  }
  parameters {
    basic_abi {
      type_abi {
        name: "void (*)(const void *, void *, void *)"
        size: 8
        alignment: 8
      }
      name: "func"
      access: public_access
      linker_set_key: "false"
    }
    default_arg: false
  }
}
functions {
  basic_abi {
    type_abi {
      name: "void *"
      size: 8
      alignment: 8
    }
    name: "android::hardware::BHwBinder::findObject"
    access: public_access
    linker_set_key: "_ZNK7android8hardware9BHwBinder10findObjectEPKv"
  }
  mangled_function_name: "_ZNK7android8hardware9BHwBinder10findObjectEPKv"
  source_file: "/home/suhwa.kim/CONA_Proj/android/system/libhwbinder/include/hwbinder/Binder.h"
  parameters {
    basic_abi {
      type_abi {
        name: "const void *"
        size: 8
        alignment: 8
      }
      name: "objectID"
      access: public_access
      linker_set_key: "false"
    }
    default_arg: false
  }
}
functions {
  basic_abi {
    type_abi {
      name: "void"
    }
    name: "android::hardware::BHwBinder::detachObject"
    access: public_access
    linker_set_key: "_ZN7android8hardware9BHwBinder12detachObjectEPKv"
  }
  mangled_function_name: "_ZN7android8hardware9BHwBinder12detachObjectEPKv"
  source_file: "/home/suhwa.kim/CONA_Proj/android/system/libhwbinder/include/hwbinder/Binder.h"
  parameters {
    basic_abi {
      type_abi {
        name: "const void *"
        size: 8
        alignment: 8
      }
      name: "objectID"
      access: public_access
      linker_set_key: "false"
    }
    default_arg: false
  }
}
functions {
  basic_abi {
    type_abi {
      name: "android::hardware::BHwBinder *"
      size: 8
      alignment: 8
    }
    name: "android::hardware::BHwBinder::localBinder"
    access: public_access
    linker_set_key: "_ZN7android8hardware9BHwBinder11localBinderEv"
  }
  mangled_function_name: "_ZN7android8hardware9BHwBinder11localBinderEv"
  source_file: "/home/suhwa.kim/CONA_Proj/android/system/libhwbinder/include/hwbinder/Binder.h"
}
functions {
  basic_abi {
    type_abi {
      name: "int"
      size: 4
      alignment: 4
    }
    name: "android::hardware::BHwBinder::getMinSchedulingPolicy"
    access: public_access
    linker_set_key: "_ZN7android8hardware9BHwBinder22getMinSchedulingPolicyEv"
  }
  mangled_function_name: "_ZN7android8hardware9BHwBinder22getMinSchedulingPolicyEv"
  source_file: "/home/suhwa.kim/CONA_Proj/android/system/libhwbinder/include/hwbinder/Binder.h"
}
functions {
  basic_abi {
    type_abi {
      name: "int"
      size: 4
      alignment: 4
    }
    name: "android::hardware::BHwBinder::getMinSchedulingPriority"
    access: public_access
    linker_set_key: "_ZN7android8hardware9BHwBinder24getMinSchedulingPriorityEv"
  }
  mangled_function_name: "_ZN7android8hardware9BHwBinder24getMinSchedulingPriorityEv"
  source_file: "/home/suhwa.kim/CONA_Proj/android/system/libhwbinder/include/hwbinder/Binder.h"
}
functions {
  basic_abi {
    type_abi {
      name: "void"
    }
    name: "android::hardware::BHwBinder::~BHwBinder"
    access: protected_access
    linker_set_key: "_ZN7android8hardware9BHwBinderD0Ev"
  }
  mangled_function_name: "_ZN7android8hardware9BHwBinderD0Ev"
  source_file: "/home/suhwa.kim/CONA_Proj/android/system/libhwbinder/include/hwbinder/Binder.h"
}
functions {
  basic_abi {
    type_abi {
      name: "int"
      size: 4
      alignment: 4
    }
    name: "android::hardware::BHwBinder::onTransact"
    access: protected_access
    linker_set_key: "_ZN7android8hardware9BHwBinder10onTransactEjRKNS0_6ParcelEPS2_jNSt3__18functionIFvRS2_EEE"
  }
  mangled_function_name: "_ZN7android8hardware9BHwBinder10onTransactEjRKNS0_6ParcelEPS2_jNSt3__18functionIFvRS2_EEE"
  source_file: "/home/suhwa.kim/CONA_Proj/android/system/libhwbinder/include/hwbinder/Binder.h"
  parameters {
    basic_abi {
      type_abi {
        name: "unsigned int"
        size: 4
        alignment: 4
      }
      name: "code"
      access: public_access
      linker_set_key: "false"
    }
    default_arg: false
  }
  parameters {
    basic_abi {
      type_abi {
        name: "const android::hardware::Parcel &"
        size: 8
        alignment: 8
      }
      name: "data"
      access: public_access
      linker_set_key: "false"
    }
    default_arg: false
  }
  parameters {
    basic_abi {
      type_abi {
        name: "android::hardware::Parcel *"
        size: 8
        alignment: 8
      }
      name: "reply"
      access: public_access
      linker_set_key: "false"
    }
    default_arg: false
  }
  parameters {
    basic_abi {
      type_abi {
        name: "unsigned int"
        size: 4
        alignment: 4
      }
      name: "flags"
      access: public_access
      linker_set_key: "true"
    }
    default_arg: true
  }
  parameters {
    basic_abi {
      type_abi {
        name: "std::function<void (Parcel &)>"
        size: 48
        alignment: 16
      }
      name: "callback"
      access: public_access
      linker_set_key: "true"
    }
    default_arg: true
  }
}
functions {
  basic_abi {
    type_abi {
      name: "void"
    }
    name: "android::hardware::BHwBinder::BHwBinder"
    access: private_access
    linker_set_key: "_ZN7android8hardware9BHwBinderC1ERKS1_"
  }
  mangled_function_name: "_ZN7android8hardware9BHwBinderC1ERKS1_"
  source_file: "/home/suhwa.kim/CONA_Proj/android/system/libhwbinder/include/hwbinder/Binder.h"
  parameters {
    basic_abi {
      type_abi {
        name: "const android::hardware::BHwBinder &"
        size: 8
        alignment: 8
      }
      name: "o"
      access: public_access
      linker_set_key: "false"
    }
    default_arg: false
  }
}
functions {
  basic_abi {
    type_abi {
      name: "android::hardware::BHwBinder &"
      size: 8
      alignment: 8
    }
    name: "android::hardware::BHwBinder::operator="
    access: private_access
    linker_set_key: "_ZN7android8hardware9BHwBinderaSERKS1_"
  }
  mangled_function_name: "_ZN7android8hardware9BHwBinderaSERKS1_"
  source_file: "/home/suhwa.kim/CONA_Proj/android/system/libhwbinder/include/hwbinder/Binder.h"
  parameters {
    basic_abi {
      type_abi {
        name: "const android::hardware::BHwBinder &"
        size: 8
        alignment: 8
      }
      name: "o"
      access: public_access
      linker_set_key: "false"
    }
    default_arg: false
  }
}
functions {
  basic_abi {
    type_abi {
      name: "void"
    }
    name: "android::hardware::BpHwRefBase::BpHwRefBase"
    access: protected_access
    linker_set_key: "_ZN7android8hardware11BpHwRefBaseC1ERKNS_2spINS0_7IBinderEEE"
  }
  mangled_function_name: "_ZN7android8hardware11BpHwRefBaseC1ERKNS_2spINS0_7IBinderEEE"
  source_file: "/home/suhwa.kim/CONA_Proj/android/system/libhwbinder/include/hwbinder/Binder.h"
  parameters {
    basic_abi {
      type_abi {
        name: "const android::sp<android::hardware::IBinder> &"
        size: 8
        alignment: 8
      }
      name: "o"
      access: public_access
      linker_set_key: "false"
    }
    default_arg: false
  }
}
functions {
  basic_abi {
    type_abi {
      name: "void"
    }
    name: "android::hardware::BpHwRefBase::~BpHwRefBase"
    access: protected_access
    linker_set_key: "_ZN7android8hardware11BpHwRefBaseD0Ev"
  }
  mangled_function_name: "_ZN7android8hardware11BpHwRefBaseD0Ev"
  source_file: "/home/suhwa.kim/CONA_Proj/android/system/libhwbinder/include/hwbinder/Binder.h"
}
functions {
  basic_abi {
    type_abi {
      name: "void"
    }
    name: "android::hardware::BpHwRefBase::onFirstRef"
    access: protected_access
    linker_set_key: "_ZN7android8hardware11BpHwRefBase10onFirstRefEv"
  }
  mangled_function_name: "_ZN7android8hardware11BpHwRefBase10onFirstRefEv"
  source_file: "/home/suhwa.kim/CONA_Proj/android/system/libhwbinder/include/hwbinder/Binder.h"
}
functions {
  basic_abi {
    type_abi {
      name: "void"
    }
    name: "android::hardware::BpHwRefBase::onLastStrongRef"
    access: protected_access
    linker_set_key: "_ZN7android8hardware11BpHwRefBase15onLastStrongRefEPKv"
  }
  mangled_function_name: "_ZN7android8hardware11BpHwRefBase15onLastStrongRefEPKv"
  source_file: "/home/suhwa.kim/CONA_Proj/android/system/libhwbinder/include/hwbinder/Binder.h"
  parameters {
    basic_abi {
      type_abi {
        name: "const void *"
        size: 8
        alignment: 8
      }
      name: "id"
      access: public_access
      linker_set_key: "false"
    }
    default_arg: false
  }
}
functions {
  basic_abi {
    type_abi {
      name: "bool"
      size: 1
      alignment: 1
    }
    name: "android::hardware::BpHwRefBase::onIncStrongAttempted"
    access: protected_access
    linker_set_key: "_ZN7android8hardware11BpHwRefBase20onIncStrongAttemptedEjPKv"
  }
  mangled_function_name: "_ZN7android8hardware11BpHwRefBase20onIncStrongAttemptedEjPKv"
  source_file: "/home/suhwa.kim/CONA_Proj/android/system/libhwbinder/include/hwbinder/Binder.h"
  parameters {
    basic_abi {
      type_abi {
        name: "unsigned int"
        size: 4
        alignment: 4
      }
      name: "flags"
      access: public_access
      linker_set_key: "false"
    }
    default_arg: false
  }
  parameters {
    basic_abi {
      type_abi {
        name: "const void *"
        size: 8
        alignment: 8
      }
      name: "id"
      access: public_access
      linker_set_key: "false"
    }
    default_arg: false
  }
}
functions {
  basic_abi {
    type_abi {
      name: "android::hardware::IBinder *"
      size: 8
      alignment: 8
    }
    name: "android::hardware::BpHwRefBase::remote"
    access: protected_access
    linker_set_key: "_ZN7android8hardware11BpHwRefBase6remoteEv"
  }
  mangled_function_name: "_ZN7android8hardware11BpHwRefBase6remoteEv"
  source_file: "/home/suhwa.kim/CONA_Proj/android/system/libhwbinder/include/hwbinder/Binder.h"
}
functions {
  basic_abi {
    type_abi {
      name: "android::hardware::IBinder *"
      size: 8
      alignment: 8
    }
    name: "android::hardware::BpHwRefBase::remote"
    access: protected_access
    linker_set_key: "_ZNK7android8hardware11BpHwRefBase6remoteEv"
  }
  mangled_function_name: "_ZNK7android8hardware11BpHwRefBase6remoteEv"
  source_file: "/home/suhwa.kim/CONA_Proj/android/system/libhwbinder/include/hwbinder/Binder.h"
}
functions {
  basic_abi {
    type_abi {
      name: "void"
    }
    name: "android::hardware::BpHwRefBase::BpHwRefBase"
    access: private_access
    linker_set_key: "_ZN7android8hardware11BpHwRefBaseC1ERKS1_"
  }
  mangled_function_name: "_ZN7android8hardware11BpHwRefBaseC1ERKS1_"
  source_file: "/home/suhwa.kim/CONA_Proj/android/system/libhwbinder/include/hwbinder/Binder.h"
  parameters {
    basic_abi {
      type_abi {
        name: "const android::hardware::BpHwRefBase &"
        size: 8
        alignment: 8
      }
      name: "o"
      access: public_access
      linker_set_key: "false"
    }
    default_arg: false
  }
}
functions {
  basic_abi {
    type_abi {
      name: "android::hardware::BpHwRefBase &"
      size: 8
      alignment: 8
    }
    name: "android::hardware::BpHwRefBase::operator="
    access: private_access
    linker_set_key: "_ZN7android8hardware11BpHwRefBaseaSERKS1_"
  }
  mangled_function_name: "_ZN7android8hardware11BpHwRefBaseaSERKS1_"
  source_file: "/home/suhwa.kim/CONA_Proj/android/system/libhwbinder/include/hwbinder/Binder.h"
  parameters {
    basic_abi {
      type_abi {
        name: "const android::hardware::BpHwRefBase &"
        size: 8
        alignment: 8
      }
      name: "o"
      access: public_access
      linker_set_key: "false"
    }
    default_arg: false
  }
}
functions {
  basic_abi {
    type_abi {
      name: "void"
    }
    name: "android::hardware::IInterface::IInterface"
    access: public_access
    linker_set_key: "_ZN7android8hardware10IInterfaceC1Ev"
  }
  mangled_function_name: "_ZN7android8hardware10IInterfaceC1Ev"
  source_file: "/home/suhwa.kim/CONA_Proj/android/system/libhwbinder/include/hwbinder/IInterface.h"
}
functions {
  basic_abi {
    type_abi {
      name: "android::sp<android::hardware::IBinder>"
      size: 8
      alignment: 8
    }
    name: "android::hardware::IInterface::asBinder"
    access: public_access
    linker_set_key: "_ZN7android8hardware10IInterface8asBinderEPKS1_"
  }
  mangled_function_name: "_ZN7android8hardware10IInterface8asBinderEPKS1_"
  source_file: "/home/suhwa.kim/CONA_Proj/android/system/libhwbinder/include/hwbinder/IInterface.h"
  parameters {
    basic_abi {
      type_abi {
        name: "const android::hardware::IInterface *"
        size: 8
        alignment: 8
      }
      name: ""
      access: public_access
      linker_set_key: "false"
    }
    default_arg: false
  }
}
functions {
  basic_abi {
    type_abi {
      name: "android::sp<android::hardware::IBinder>"
      size: 8
      alignment: 8
    }
    name: "android::hardware::IInterface::asBinder"
    access: public_access
    linker_set_key: "_ZN7android8hardware10IInterface8asBinderERKNS_2spIS1_EE"
  }
  mangled_function_name: "_ZN7android8hardware10IInterface8asBinderERKNS_2spIS1_EE"
  source_file: "/home/suhwa.kim/CONA_Proj/android/system/libhwbinder/include/hwbinder/IInterface.h"
  parameters {
    basic_abi {
      type_abi {
        name: "const android::sp<android::hardware::IInterface> &"
        size: 8
        alignment: 8
      }
      name: ""
      access: public_access
      linker_set_key: "false"
    }
    default_arg: false
  }
}
functions {
  basic_abi {
    type_abi {
      name: "void"
    }
    name: "android::hardware::IInterface::~IInterface"
    access: protected_access
    linker_set_key: "_ZN7android8hardware10IInterfaceD0Ev"
  }
  mangled_function_name: "_ZN7android8hardware10IInterfaceD0Ev"
  source_file: "/home/suhwa.kim/CONA_Proj/android/system/libhwbinder/include/hwbinder/IInterface.h"
}
functions {
  basic_abi {
    type_abi {
      name: "android::hardware::IBinder *"
      size: 8
      alignment: 8
    }
    name: "android::hardware::IInterface::onAsBinder"
    access: protected_access
    linker_set_key: "_ZN7android8hardware10IInterface10onAsBinderEv"
  }
  mangled_function_name: "_ZN7android8hardware10IInterface10onAsBinderEv"
  source_file: "/home/suhwa.kim/CONA_Proj/android/system/libhwbinder/include/hwbinder/IInterface.h"
}
functions {
  basic_abi {
    type_abi {
      name: "void"
    }
    name: "android::hardware::BnInterface::BnInterface<INTERFACE>"
    access: public_access
    linker_set_key: "_ZN7android8hardware11BnInterfaceC1ERKNS_2spIT_EE"
  }
  mangled_function_name: "_ZN7android8hardware11BnInterfaceC1ERKNS_2spIT_EE"
  source_file: "/home/suhwa.kim/CONA_Proj/android/system/libhwbinder/include/hwbinder/IInterface.h"
  parameters {
    basic_abi {
      type_abi {
        name: "const sp<type-parameter-0-0> &"
      }
      name: "impl"
      access: public_access
      linker_set_key: "false"
    }
    default_arg: false
  }
}
functions {
  basic_abi {
    type_abi {
      name: "android::hardware::IBinder *"
      size: 8
      alignment: 8
    }
    name: "android::hardware::BnInterface::onAsBinder"
    access: protected_access
    linker_set_key: "_ZN7android8hardware11BnInterface10onAsBinderEv"
  }
  mangled_function_name: "_ZN7android8hardware11BnInterface10onAsBinderEv"
  source_file: "/home/suhwa.kim/CONA_Proj/android/system/libhwbinder/include/hwbinder/IInterface.h"
}
functions {
  basic_abi {
    type_abi {
      name: "void"
    }
    name: "android::hardware::BnInterface::BnInterface<INTERFACE>"
    access: public_access
    linker_set_key: "_ZN7android8hardware11BnInterfaceC1ERKNS_2spIT_EE"
  }
  mangled_function_name: "_ZN7android8hardware11BnInterfaceC1ERKNS_2spIT_EE"
  source_file: "/home/suhwa.kim/CONA_Proj/android/system/libhwbinder/include/hwbinder/IInterface.h"
  parameters {
    basic_abi {
      type_abi {
        name: "const sp<type-parameter-0-0> &"
      }
      name: "impl"
      access: public_access
      linker_set_key: "false"
    }
    default_arg: false
  }
}
functions {
  basic_abi {
    type_abi {
      name: "void"
    }
    name: "android::hardware::BpInterface::BpInterface<INTERFACE>"
    access: public_access
    linker_set_key: "_ZN7android8hardware11BpInterfaceC1ERKNS_2spINS0_7IBinderEEE"
  }
  mangled_function_name: "_ZN7android8hardware11BpInterfaceC1ERKNS_2spINS0_7IBinderEEE"
  source_file: "/home/suhwa.kim/CONA_Proj/android/system/libhwbinder/include/hwbinder/IInterface.h"
  parameters {
    basic_abi {
      type_abi {
        name: "const android::sp<android::hardware::IBinder> &"
        size: 8
        alignment: 8
      }
      name: "remote"
      access: public_access
      linker_set_key: "false"
    }
    default_arg: false
  }
}
functions {
  basic_abi {
    type_abi {
      name: "android::hardware::IBinder *"
      size: 8
      alignment: 8
    }
    name: "android::hardware::BpInterface::onAsBinder"
    access: public_access
    linker_set_key: "_ZN7android8hardware11BpInterface10onAsBinderEv"
  }
  mangled_function_name: "_ZN7android8hardware11BpInterface10onAsBinderEv"
  source_file: "/home/suhwa.kim/CONA_Proj/android/system/libhwbinder/include/hwbinder/IInterface.h"
}
functions {
  basic_abi {
    type_abi {
      name: "android::hardware::IBinder *"
      size: 8
      alignment: 8
    }
    name: "android::hardware::BnInterface::onAsBinder"
    access: protected_access
    linker_set_key: "_ZN7android8hardware11BnInterface10onAsBinderEv"
  }
  mangled_function_name: "_ZN7android8hardware11BnInterface10onAsBinderEv"
  source_file: "/home/suhwa.kim/CONA_Proj/android/system/libhwbinder/include/hwbinder/IInterface.h"
}
functions {
  basic_abi {
    type_abi {
      name: "void"
    }
    name: "android::hardware::BpInterface::BpInterface<INTERFACE>"
    access: public_access
    linker_set_key: "_ZN7android8hardware11BpInterfaceC1ERKNS_2spINS0_7IBinderEEE"
  }
  mangled_function_name: "_ZN7android8hardware11BpInterfaceC1ERKNS_2spINS0_7IBinderEEE"
  source_file: "/home/suhwa.kim/CONA_Proj/android/system/libhwbinder/include/hwbinder/IInterface.h"
  parameters {
    basic_abi {
      type_abi {
        name: "const android::sp<android::hardware::IBinder> &"
        size: 8
        alignment: 8
      }
      name: "remote"
      access: public_access
      linker_set_key: "false"
    }
    default_arg: false
  }
}
functions {
  basic_abi {
    type_abi {
      name: "android::hardware::IBinder *"
      size: 8
      alignment: 8
    }
    name: "android::hardware::BpInterface::onAsBinder"
    access: public_access
    linker_set_key: "_ZN7android8hardware11BpInterface10onAsBinderEv"
  }
  mangled_function_name: "_ZN7android8hardware11BpInterface10onAsBinderEv"
  source_file: "/home/suhwa.kim/CONA_Proj/android/system/libhwbinder/include/hwbinder/IInterface.h"
}
functions {
  basic_abi {
    type_abi {
      name: "void"
    }
    name: "android::hardware::Parcel::Parcel"
    access: public_access
    linker_set_key: "_ZN7android8hardware6ParcelC1Ev"
  }
  mangled_function_name: "_ZN7android8hardware6ParcelC1Ev"
  source_file: "/home/suhwa.kim/CONA_Proj/android/system/libhwbinder/include/hwbinder/Parcel.h"
}
functions {
  basic_abi {
    type_abi {
      name: "void"
    }
    name: "android::hardware::Parcel::~Parcel"
    access: public_access
    linker_set_key: "_ZN7android8hardware6ParcelD0Ev"
  }
  mangled_function_name: "_ZN7android8hardware6ParcelD0Ev"
  source_file: "/home/suhwa.kim/CONA_Proj/android/system/libhwbinder/include/hwbinder/Parcel.h"
}
functions {
  basic_abi {
    type_abi {
      name: "const unsigned char *"
      size: 8
      alignment: 8
    }
    name: "android::hardware::Parcel::data"
    access: public_access
    linker_set_key: "_ZNK7android8hardware6Parcel4dataEv"
  }
  mangled_function_name: "_ZNK7android8hardware6Parcel4dataEv"
  source_file: "/home/suhwa.kim/CONA_Proj/android/system/libhwbinder/include/hwbinder/Parcel.h"
}
functions {
  basic_abi {
    type_abi {
      name: "unsigned long"
      size: 8
      alignment: 8
    }
    name: "android::hardware::Parcel::dataSize"
    access: public_access
    linker_set_key: "_ZNK7android8hardware6Parcel8dataSizeEv"
  }
  mangled_function_name: "_ZNK7android8hardware6Parcel8dataSizeEv"
  source_file: "/home/suhwa.kim/CONA_Proj/android/system/libhwbinder/include/hwbinder/Parcel.h"
}
functions {
  basic_abi {
    type_abi {
      name: "unsigned long"
      size: 8
      alignment: 8
    }
    name: "android::hardware::Parcel::dataAvail"
    access: public_access
    linker_set_key: "_ZNK7android8hardware6Parcel9dataAvailEv"
  }
  mangled_function_name: "_ZNK7android8hardware6Parcel9dataAvailEv"
  source_file: "/home/suhwa.kim/CONA_Proj/android/system/libhwbinder/include/hwbinder/Parcel.h"
}
functions {
  basic_abi {
    type_abi {
      name: "unsigned long"
      size: 8
      alignment: 8
    }
    name: "android::hardware::Parcel::dataPosition"
    access: public_access
    linker_set_key: "_ZNK7android8hardware6Parcel12dataPositionEv"
  }
  mangled_function_name: "_ZNK7android8hardware6Parcel12dataPositionEv"
  source_file: "/home/suhwa.kim/CONA_Proj/android/system/libhwbinder/include/hwbinder/Parcel.h"
}
functions {
  basic_abi {
    type_abi {
      name: "unsigned long"
      size: 8
      alignment: 8
    }
    name: "android::hardware::Parcel::dataCapacity"
    access: public_access
    linker_set_key: "_ZNK7android8hardware6Parcel12dataCapacityEv"
  }
  mangled_function_name: "_ZNK7android8hardware6Parcel12dataCapacityEv"
  source_file: "/home/suhwa.kim/CONA_Proj/android/system/libhwbinder/include/hwbinder/Parcel.h"
}
functions {
  basic_abi {
    type_abi {
      name: "int"
      size: 4
      alignment: 4
    }
    name: "android::hardware::Parcel::setDataSize"
    access: public_access
    linker_set_key: "_ZN7android8hardware6Parcel11setDataSizeEm"
  }
  mangled_function_name: "_ZN7android8hardware6Parcel11setDataSizeEm"
  source_file: "/home/suhwa.kim/CONA_Proj/android/system/libhwbinder/include/hwbinder/Parcel.h"
  parameters {
    basic_abi {
      type_abi {
        name: "unsigned long"
        size: 8
        alignment: 8
      }
      name: "size"
      access: public_access
      linker_set_key: "false"
    }
    default_arg: false
  }
}
functions {
  basic_abi {
    type_abi {
      name: "void"
    }
    name: "android::hardware::Parcel::setDataPosition"
    access: public_access
    linker_set_key: "_ZNK7android8hardware6Parcel15setDataPositionEm"
  }
  mangled_function_name: "_ZNK7android8hardware6Parcel15setDataPositionEm"
  source_file: "/home/suhwa.kim/CONA_Proj/android/system/libhwbinder/include/hwbinder/Parcel.h"
  parameters {
    basic_abi {
      type_abi {
        name: "unsigned long"
        size: 8
        alignment: 8
      }
      name: "pos"
      access: public_access
      linker_set_key: "false"
    }
    default_arg: false
  }
}
functions {
  basic_abi {
    type_abi {
      name: "int"
      size: 4
      alignment: 4
    }
    name: "android::hardware::Parcel::setDataCapacity"
    access: public_access
    linker_set_key: "_ZN7android8hardware6Parcel15setDataCapacityEm"
  }
  mangled_function_name: "_ZN7android8hardware6Parcel15setDataCapacityEm"
  source_file: "/home/suhwa.kim/CONA_Proj/android/system/libhwbinder/include/hwbinder/Parcel.h"
  parameters {
    basic_abi {
      type_abi {
        name: "unsigned long"
        size: 8
        alignment: 8
      }
      name: "size"
      access: public_access
      linker_set_key: "false"
    }
    default_arg: false
  }
}
functions {
  basic_abi {
    type_abi {
      name: "int"
      size: 4
      alignment: 4
    }
    name: "android::hardware::Parcel::setData"
    access: public_access
    linker_set_key: "_ZN7android8hardware6Parcel7setDataEPKhm"
  }
  mangled_function_name: "_ZN7android8hardware6Parcel7setDataEPKhm"
  source_file: "/home/suhwa.kim/CONA_Proj/android/system/libhwbinder/include/hwbinder/Parcel.h"
  parameters {
    basic_abi {
      type_abi {
        name: "const unsigned char *"
        size: 8
        alignment: 8
      }
      name: "buffer"
      access: public_access
      linker_set_key: "false"
    }
    default_arg: false
  }
  parameters {
    basic_abi {
      type_abi {
        name: "unsigned long"
        size: 8
        alignment: 8
      }
      name: "len"
      access: public_access
      linker_set_key: "false"
    }
    default_arg: false
  }
}
functions {
  basic_abi {
    type_abi {
      name: "int"
      size: 4
      alignment: 4
    }
    name: "android::hardware::Parcel::writeInterfaceToken"
    access: public_access
    linker_set_key: "_ZN7android8hardware6Parcel19writeInterfaceTokenEPKc"
  }
  mangled_function_name: "_ZN7android8hardware6Parcel19writeInterfaceTokenEPKc"
  source_file: "/home/suhwa.kim/CONA_Proj/android/system/libhwbinder/include/hwbinder/Parcel.h"
  parameters {
    basic_abi {
      type_abi {
        name: "const char *"
        size: 8
        alignment: 8
      }
      name: "interface"
      access: public_access
      linker_set_key: "false"
    }
    default_arg: false
  }
}
functions {
  basic_abi {
    type_abi {
      name: "bool"
      size: 1
      alignment: 1
    }
    name: "android::hardware::Parcel::enforceInterface"
    access: public_access
    linker_set_key: "_ZNK7android8hardware6Parcel16enforceInterfaceEPKc"
  }
  mangled_function_name: "_ZNK7android8hardware6Parcel16enforceInterfaceEPKc"
  source_file: "/home/suhwa.kim/CONA_Proj/android/system/libhwbinder/include/hwbinder/Parcel.h"
  parameters {
    basic_abi {
      type_abi {
        name: "const char *"
        size: 8
        alignment: 8
      }
      name: "interface"
      access: public_access
      linker_set_key: "false"
    }
    default_arg: false
  }
}
functions {
  basic_abi {
    type_abi {
      name: "bool"
      size: 1
      alignment: 1
    }
    name: "android::hardware::Parcel::checkInterface"
    access: public_access
    linker_set_key: "_ZNK7android8hardware6Parcel14checkInterfaceEPNS0_7IBinderE"
  }
  mangled_function_name: "_ZNK7android8hardware6Parcel14checkInterfaceEPNS0_7IBinderE"
  source_file: "/home/suhwa.kim/CONA_Proj/android/system/libhwbinder/include/hwbinder/Parcel.h"
  parameters {
    basic_abi {
      type_abi {
        name: "android::hardware::IBinder *"
        size: 8
        alignment: 8
      }
      name: ""
      access: public_access
      linker_set_key: "false"
    }
    default_arg: false
  }
}
functions {
  basic_abi {
    type_abi {
      name: "void"
    }
    name: "android::hardware::Parcel::freeData"
    access: public_access
    linker_set_key: "_ZN7android8hardware6Parcel8freeDataEv"
  }
  mangled_function_name: "_ZN7android8hardware6Parcel8freeDataEv"
  source_file: "/home/suhwa.kim/CONA_Proj/android/system/libhwbinder/include/hwbinder/Parcel.h"
}
functions {
  basic_abi {
    type_abi {
      name: "const unsigned long long *"
      size: 8
      alignment: 8
    }
    name: "android::hardware::Parcel::objects"
    access: private_access
    linker_set_key: "_ZNK7android8hardware6Parcel7objectsEv"
  }
  mangled_function_name: "_ZNK7android8hardware6Parcel7objectsEv"
  source_file: "/home/suhwa.kim/CONA_Proj/android/system/libhwbinder/include/hwbinder/Parcel.h"
}
functions {
  basic_abi {
    type_abi {
      name: "unsigned long"
      size: 8
      alignment: 8
    }
    name: "android::hardware::Parcel::objectsCount"
    access: public_access
    linker_set_key: "_ZNK7android8hardware6Parcel12objectsCountEv"
  }
  mangled_function_name: "_ZNK7android8hardware6Parcel12objectsCountEv"
  source_file: "/home/suhwa.kim/CONA_Proj/android/system/libhwbinder/include/hwbinder/Parcel.h"
}
functions {
  basic_abi {
    type_abi {
      name: "int"
      size: 4
      alignment: 4
    }
    name: "android::hardware::Parcel::errorCheck"
    access: public_access
    linker_set_key: "_ZNK7android8hardware6Parcel10errorCheckEv"
  }
  mangled_function_name: "_ZNK7android8hardware6Parcel10errorCheckEv"
  source_file: "/home/suhwa.kim/CONA_Proj/android/system/libhwbinder/include/hwbinder/Parcel.h"
}
functions {
  basic_abi {
    type_abi {
      name: "void"
    }
    name: "android::hardware::Parcel::setError"
    access: public_access
    linker_set_key: "_ZN7android8hardware6Parcel8setErrorEi"
  }
  mangled_function_name: "_ZN7android8hardware6Parcel8setErrorEi"
  source_file: "/home/suhwa.kim/CONA_Proj/android/system/libhwbinder/include/hwbinder/Parcel.h"
  parameters {
    basic_abi {
      type_abi {
        name: "int"
        size: 4
        alignment: 4
      }
      name: "err"
      access: public_access
      linker_set_key: "false"
    }
    default_arg: false
  }
}
functions {
  basic_abi {
    type_abi {
      name: "int"
      size: 4
      alignment: 4
    }
    name: "android::hardware::Parcel::write"
    access: public_access
    linker_set_key: "_ZN7android8hardware6Parcel5writeEPKvm"
  }
  mangled_function_name: "_ZN7android8hardware6Parcel5writeEPKvm"
  source_file: "/home/suhwa.kim/CONA_Proj/android/system/libhwbinder/include/hwbinder/Parcel.h"
  parameters {
    basic_abi {
      type_abi {
        name: "const void *"
        size: 8
        alignment: 8
      }
      name: "data"
      access: public_access
      linker_set_key: "false"
    }
    default_arg: false
  }
  parameters {
    basic_abi {
      type_abi {
        name: "unsigned long"
        size: 8
        alignment: 8
      }
      name: "len"
      access: public_access
      linker_set_key: "false"
    }
    default_arg: false
  }
}
functions {
  basic_abi {
    type_abi {
      name: "void *"
      size: 8
      alignment: 8
    }
    name: "android::hardware::Parcel::writeInplace"
    access: public_access
    linker_set_key: "_ZN7android8hardware6Parcel12writeInplaceEm"
  }
  mangled_function_name: "_ZN7android8hardware6Parcel12writeInplaceEm"
  source_file: "/home/suhwa.kim/CONA_Proj/android/system/libhwbinder/include/hwbinder/Parcel.h"
  parameters {
    basic_abi {
      type_abi {
        name: "unsigned long"
        size: 8
        alignment: 8
      }
      name: "len"
      access: public_access
      linker_set_key: "false"
    }
    default_arg: false
  }
}
functions {
  basic_abi {
    type_abi {
      name: "int"
      size: 4
      alignment: 4
    }
    name: "android::hardware::Parcel::writeUnpadded"
    access: public_access
    linker_set_key: "_ZN7android8hardware6Parcel13writeUnpaddedEPKvm"
  }
  mangled_function_name: "_ZN7android8hardware6Parcel13writeUnpaddedEPKvm"
  source_file: "/home/suhwa.kim/CONA_Proj/android/system/libhwbinder/include/hwbinder/Parcel.h"
  parameters {
    basic_abi {
      type_abi {
        name: "const void *"
        size: 8
        alignment: 8
      }
      name: "data"
      access: public_access
      linker_set_key: "false"
    }
    default_arg: false
  }
  parameters {
    basic_abi {
      type_abi {
        name: "unsigned long"
        size: 8
        alignment: 8
      }
      name: "len"
      access: public_access
      linker_set_key: "false"
    }
    default_arg: false
  }
}
functions {
  basic_abi {
    type_abi {
      name: "int"
      size: 4
      alignment: 4
    }
    name: "android::hardware::Parcel::writeInt8"
    access: public_access
    linker_set_key: "_ZN7android8hardware6Parcel9writeInt8Ea"
  }
  mangled_function_name: "_ZN7android8hardware6Parcel9writeInt8Ea"
  source_file: "/home/suhwa.kim/CONA_Proj/android/system/libhwbinder/include/hwbinder/Parcel.h"
  parameters {
    basic_abi {
      type_abi {
        name: "signed char"
        size: 1
        alignment: 1
      }
      name: "val"
      access: public_access
      linker_set_key: "false"
    }
    default_arg: false
  }
}
functions {
  basic_abi {
    type_abi {
      name: "int"
      size: 4
      alignment: 4
    }
    name: "android::hardware::Parcel::writeUint8"
    access: public_access
    linker_set_key: "_ZN7android8hardware6Parcel10writeUint8Eh"
  }
  mangled_function_name: "_ZN7android8hardware6Parcel10writeUint8Eh"
  source_file: "/home/suhwa.kim/CONA_Proj/android/system/libhwbinder/include/hwbinder/Parcel.h"
  parameters {
    basic_abi {
      type_abi {
        name: "unsigned char"
        size: 1
        alignment: 1
      }
      name: "val"
      access: public_access
      linker_set_key: "false"
    }
    default_arg: false
  }
}
functions {
  basic_abi {
    type_abi {
      name: "int"
      size: 4
      alignment: 4
    }
    name: "android::hardware::Parcel::writeInt16"
    access: public_access
    linker_set_key: "_ZN7android8hardware6Parcel10writeInt16Es"
  }
  mangled_function_name: "_ZN7android8hardware6Parcel10writeInt16Es"
  source_file: "/home/suhwa.kim/CONA_Proj/android/system/libhwbinder/include/hwbinder/Parcel.h"
  parameters {
    basic_abi {
      type_abi {
        name: "short"
        size: 2
        alignment: 2
      }
      name: "val"
      access: public_access
      linker_set_key: "false"
    }
    default_arg: false
  }
}
functions {
  basic_abi {
    type_abi {
      name: "int"
      size: 4
      alignment: 4
    }
    name: "android::hardware::Parcel::writeUint16"
    access: public_access
    linker_set_key: "_ZN7android8hardware6Parcel11writeUint16Et"
  }
  mangled_function_name: "_ZN7android8hardware6Parcel11writeUint16Et"
  source_file: "/home/suhwa.kim/CONA_Proj/android/system/libhwbinder/include/hwbinder/Parcel.h"
  parameters {
    basic_abi {
      type_abi {
        name: "unsigned short"
        size: 2
        alignment: 2
      }
      name: "val"
      access: public_access
      linker_set_key: "false"
    }
    default_arg: false
  }
}
functions {
  basic_abi {
    type_abi {
      name: "int"
      size: 4
      alignment: 4
    }
    name: "android::hardware::Parcel::writeInt32"
    access: public_access
    linker_set_key: "_ZN7android8hardware6Parcel10writeInt32Ei"
  }
  mangled_function_name: "_ZN7android8hardware6Parcel10writeInt32Ei"
  source_file: "/home/suhwa.kim/CONA_Proj/android/system/libhwbinder/include/hwbinder/Parcel.h"
  parameters {
    basic_abi {
      type_abi {
        name: "int"
        size: 4
        alignment: 4
      }
      name: "val"
      access: public_access
      linker_set_key: "false"
    }
    default_arg: false
  }
}
functions {
  basic_abi {
    type_abi {
      name: "int"
      size: 4
      alignment: 4
    }
    name: "android::hardware::Parcel::writeUint32"
    access: public_access
    linker_set_key: "_ZN7android8hardware6Parcel11writeUint32Ej"
  }
  mangled_function_name: "_ZN7android8hardware6Parcel11writeUint32Ej"
  source_file: "/home/suhwa.kim/CONA_Proj/android/system/libhwbinder/include/hwbinder/Parcel.h"
  parameters {
    basic_abi {
      type_abi {
        name: "unsigned int"
        size: 4
        alignment: 4
      }
      name: "val"
      access: public_access
      linker_set_key: "false"
    }
    default_arg: false
  }
}
functions {
  basic_abi {
    type_abi {
      name: "int"
      size: 4
      alignment: 4
    }
    name: "android::hardware::Parcel::writeInt64"
    access: public_access
    linker_set_key: "_ZN7android8hardware6Parcel10writeInt64El"
  }
  mangled_function_name: "_ZN7android8hardware6Parcel10writeInt64El"
  source_file: "/home/suhwa.kim/CONA_Proj/android/system/libhwbinder/include/hwbinder/Parcel.h"
  parameters {
    basic_abi {
      type_abi {
        name: "long"
        size: 8
        alignment: 8
      }
      name: "val"
      access: public_access
      linker_set_key: "false"
    }
    default_arg: false
  }
}
functions {
  basic_abi {
    type_abi {
      name: "int"
      size: 4
      alignment: 4
    }
    name: "android::hardware::Parcel::writeUint64"
    access: public_access
    linker_set_key: "_ZN7android8hardware6Parcel11writeUint64Em"
  }
  mangled_function_name: "_ZN7android8hardware6Parcel11writeUint64Em"
  source_file: "/home/suhwa.kim/CONA_Proj/android/system/libhwbinder/include/hwbinder/Parcel.h"
  parameters {
    basic_abi {
      type_abi {
        name: "unsigned long"
        size: 8
        alignment: 8
      }
      name: "val"
      access: public_access
      linker_set_key: "false"
    }
    default_arg: false
  }
}
functions {
  basic_abi {
    type_abi {
      name: "int"
      size: 4
      alignment: 4
    }
    name: "android::hardware::Parcel::writeFloat"
    access: public_access
    linker_set_key: "_ZN7android8hardware6Parcel10writeFloatEf"
  }
  mangled_function_name: "_ZN7android8hardware6Parcel10writeFloatEf"
  source_file: "/home/suhwa.kim/CONA_Proj/android/system/libhwbinder/include/hwbinder/Parcel.h"
  parameters {
    basic_abi {
      type_abi {
        name: "float"
        size: 4
        alignment: 4
      }
      name: "val"
      access: public_access
      linker_set_key: "false"
    }
    default_arg: false
  }
}
functions {
  basic_abi {
    type_abi {
      name: "int"
      size: 4
      alignment: 4
    }
    name: "android::hardware::Parcel::writeDouble"
    access: public_access
    linker_set_key: "_ZN7android8hardware6Parcel11writeDoubleEd"
  }
  mangled_function_name: "_ZN7android8hardware6Parcel11writeDoubleEd"
  source_file: "/home/suhwa.kim/CONA_Proj/android/system/libhwbinder/include/hwbinder/Parcel.h"
  parameters {
    basic_abi {
      type_abi {
        name: "double"
        size: 8
        alignment: 8
      }
      name: "val"
      access: public_access
      linker_set_key: "false"
    }
    default_arg: false
  }
}
functions {
  basic_abi {
    type_abi {
      name: "int"
      size: 4
      alignment: 4
    }
    name: "android::hardware::Parcel::writeCString"
    access: public_access
    linker_set_key: "_ZN7android8hardware6Parcel12writeCStringEPKc"
  }
  mangled_function_name: "_ZN7android8hardware6Parcel12writeCStringEPKc"
  source_file: "/home/suhwa.kim/CONA_Proj/android/system/libhwbinder/include/hwbinder/Parcel.h"
  parameters {
    basic_abi {
      type_abi {
        name: "const char *"
        size: 8
        alignment: 8
      }
      name: "str"
      access: public_access
      linker_set_key: "false"
    }
    default_arg: false
  }
}
functions {
  basic_abi {
    type_abi {
      name: "int"
      size: 4
      alignment: 4
    }
    name: "android::hardware::Parcel::writeString16"
    access: public_access
    linker_set_key: "_ZN7android8hardware6Parcel13writeString16ERKNS_8String16E"
  }
  mangled_function_name: "_ZN7android8hardware6Parcel13writeString16ERKNS_8String16E"
  source_file: "/home/suhwa.kim/CONA_Proj/android/system/libhwbinder/include/hwbinder/Parcel.h"
  parameters {
    basic_abi {
      type_abi {
        name: "const android::String16 &"
        size: 8
        alignment: 8
      }
      name: "str"
      access: public_access
      linker_set_key: "false"
    }
    default_arg: false
  }
}
functions {
  basic_abi {
    type_abi {
      name: "int"
      size: 4
      alignment: 4
    }
    name: "android::hardware::Parcel::writeString16"
    access: public_access
    linker_set_key: "_ZN7android8hardware6Parcel13writeString16ERKNSt3__110unique_ptrINS_8String16ENS2_14default_deleteIS4_EEEE"
  }
  mangled_function_name: "_ZN7android8hardware6Parcel13writeString16ERKNSt3__110unique_ptrINS_8String16ENS2_14default_deleteIS4_EEEE"
  source_file: "/home/suhwa.kim/CONA_Proj/android/system/libhwbinder/include/hwbinder/Parcel.h"
  parameters {
    basic_abi {
      type_abi {
        name: "const std::unique_ptr<android::String16, std::default_delete<android::String16> > &"
        size: 8
        alignment: 8
      }
      name: "str"
      access: public_access
      linker_set_key: "false"
    }
    default_arg: false
  }
}
functions {
  basic_abi {
    type_abi {
      name: "int"
      size: 4
      alignment: 4
    }
    name: "android::hardware::Parcel::writeString16"
    access: public_access
    linker_set_key: "_ZN7android8hardware6Parcel13writeString16EPKDsm"
  }
  mangled_function_name: "_ZN7android8hardware6Parcel13writeString16EPKDsm"
  source_file: "/home/suhwa.kim/CONA_Proj/android/system/libhwbinder/include/hwbinder/Parcel.h"
  parameters {
    basic_abi {
      type_abi {
        name: "const char16_t *"
        size: 8
        alignment: 8
      }
      name: "str"
      access: public_access
      linker_set_key: "false"
    }
    default_arg: false
  }
  parameters {
    basic_abi {
      type_abi {
        name: "unsigned long"
        size: 8
        alignment: 8
      }
      name: "len"
      access: public_access
      linker_set_key: "false"
    }
    default_arg: false
  }
}
functions {
  basic_abi {
    type_abi {
      name: "int"
      size: 4
      alignment: 4
    }
    name: "android::hardware::Parcel::writeStrongBinder"
    access: public_access
    linker_set_key: "_ZN7android8hardware6Parcel17writeStrongBinderERKNS_2spINS0_7IBinderEEE"
  }
  mangled_function_name: "_ZN7android8hardware6Parcel17writeStrongBinderERKNS_2spINS0_7IBinderEEE"
  source_file: "/home/suhwa.kim/CONA_Proj/android/system/libhwbinder/include/hwbinder/Parcel.h"
  parameters {
    basic_abi {
      type_abi {
        name: "const android::sp<android::hardware::IBinder> &"
        size: 8
        alignment: 8
      }
      name: "val"
      access: public_access
      linker_set_key: "false"
    }
    default_arg: false
  }
}
functions {
  basic_abi {
    type_abi {
      name: "int"
      size: 4
      alignment: 4
    }
    name: "android::hardware::Parcel::writeWeakBinder"
    access: public_access
    linker_set_key: "_ZN7android8hardware6Parcel15writeWeakBinderERKNS_2wpINS0_7IBinderEEE"
  }
  mangled_function_name: "_ZN7android8hardware6Parcel15writeWeakBinderERKNS_2wpINS0_7IBinderEEE"
  source_file: "/home/suhwa.kim/CONA_Proj/android/system/libhwbinder/include/hwbinder/Parcel.h"
  parameters {
    basic_abi {
      type_abi {
        name: "const android::wp<android::hardware::IBinder> &"
        size: 8
        alignment: 8
      }
      name: "val"
      access: public_access
      linker_set_key: "false"
    }
    default_arg: false
  }
}
functions {
  basic_abi {
    type_abi {
      name: "int"
      size: 4
      alignment: 4
    }
    name: "android::hardware::Parcel::writeBool"
    access: public_access
    linker_set_key: "_ZN7android8hardware6Parcel9writeBoolEb"
  }
  mangled_function_name: "_ZN7android8hardware6Parcel9writeBoolEb"
  source_file: "/home/suhwa.kim/CONA_Proj/android/system/libhwbinder/include/hwbinder/Parcel.h"
  parameters {
    basic_abi {
      type_abi {
        name: "bool"
        size: 1
        alignment: 1
      }
      name: "val"
      access: public_access
      linker_set_key: "false"
    }
    default_arg: false
  }
}
functions {
  basic_abi {
    type_abi {
      name: "int"
      size: 4
      alignment: 4
    }
    name: "android::hardware::Parcel::writeObject"
    access: public_access
    linker_set_key: "_ZN7android8hardware6Parcel11writeObjectERKT_"
  }
  mangled_function_name: "_ZN7android8hardware6Parcel11writeObjectERKT_"
  source_file: "/home/suhwa.kim/CONA_Proj/android/system/libhwbinder/include/hwbinder/Parcel.h"
  parameters {
    basic_abi {
      type_abi {
        name: "const type-parameter-0-0 &"
      }
      name: "val"
      access: public_access
      linker_set_key: "false"
    }
    default_arg: false
  }
  template_info {
    elements {
      basic_abi {
        name: "T"
        linker_set_key: "T"
      }
    }
  }
}
functions {
  basic_abi {
    type_abi {
      name: "int"
      size: 4
      alignment: 4
    }
    name: "android::hardware::Parcel::writeBuffer"
    access: public_access
    linker_set_key: "_ZN7android8hardware6Parcel11writeBufferEPKvmPm"
  }
  mangled_function_name: "_ZN7android8hardware6Parcel11writeBufferEPKvmPm"
  source_file: "/home/suhwa.kim/CONA_Proj/android/system/libhwbinder/include/hwbinder/Parcel.h"
  parameters {
    basic_abi {
      type_abi {
        name: "const void *"
        size: 8
        alignment: 8
      }
      name: "buffer"
      access: public_access
      linker_set_key: "false"
    }
    default_arg: false
  }
  parameters {
    basic_abi {
      type_abi {
        name: "unsigned long"
        size: 8
        alignment: 8
      }
      name: "length"
      access: public_access
      linker_set_key: "false"
    }
    default_arg: false
  }
  parameters {
    basic_abi {
      type_abi {
        name: "unsigned long *"
        size: 8
        alignment: 8
      }
      name: "handle"
      access: public_access
      linker_set_key: "false"
    }
    default_arg: false
  }
}
functions {
  basic_abi {
    type_abi {
      name: "int"
      size: 4
      alignment: 4
    }
    name: "android::hardware::Parcel::writeEmbeddedBuffer"
    access: public_access
    linker_set_key: "_ZN7android8hardware6Parcel19writeEmbeddedBufferEPKvmPmmm"
  }
  mangled_function_name: "_ZN7android8hardware6Parcel19writeEmbeddedBufferEPKvmPmmm"
  source_file: "/home/suhwa.kim/CONA_Proj/android/system/libhwbinder/include/hwbinder/Parcel.h"
  parameters {
    basic_abi {
      type_abi {
        name: "const void *"
        size: 8
        alignment: 8
      }
      name: "buffer"
      access: public_access
      linker_set_key: "false"
    }
    default_arg: false
  }
  parameters {
    basic_abi {
      type_abi {
        name: "unsigned long"
        size: 8
        alignment: 8
      }
      name: "length"
      access: public_access
      linker_set_key: "false"
    }
    default_arg: false
  }
  parameters {
    basic_abi {
      type_abi {
        name: "unsigned long *"
        size: 8
        alignment: 8
      }
      name: "handle"
      access: public_access
      linker_set_key: "false"
    }
    default_arg: false
  }
  parameters {
    basic_abi {
      type_abi {
        name: "unsigned long"
        size: 8
        alignment: 8
      }
      name: "parent_buffer_handle"
      access: public_access
      linker_set_key: "false"
    }
    default_arg: false
  }
  parameters {
    basic_abi {
      type_abi {
        name: "unsigned long"
        size: 8
        alignment: 8
      }
      name: "parent_offset"
      access: public_access
      linker_set_key: "false"
    }
    default_arg: false
  }
}
functions {
  basic_abi {
    type_abi {
      name: "int"
      size: 4
      alignment: 4
    }
    name: "android::hardware::Parcel::writeReference"
    access: public_access
    linker_set_key: "_ZN7android8hardware6Parcel14writeReferenceEPmmm"
  }
  mangled_function_name: "_ZN7android8hardware6Parcel14writeReferenceEPmmm"
  source_file: "/home/suhwa.kim/CONA_Proj/android/system/libhwbinder/include/hwbinder/Parcel.h"
  parameters {
    basic_abi {
      type_abi {
        name: "unsigned long *"
        size: 8
        alignment: 8
      }
      name: "handle"
      access: public_access
      linker_set_key: "false"
    }
    default_arg: false
  }
  parameters {
    basic_abi {
      type_abi {
        name: "unsigned long"
        size: 8
        alignment: 8
      }
      name: "child_buffer_handle"
      access: public_access
      linker_set_key: "false"
    }
    default_arg: false
  }
  parameters {
    basic_abi {
      type_abi {
        name: "unsigned long"
        size: 8
        alignment: 8
      }
      name: "child_offset"
      access: public_access
      linker_set_key: "false"
    }
    default_arg: false
  }
}
functions {
  basic_abi {
    type_abi {
      name: "int"
      size: 4
      alignment: 4
    }
    name: "android::hardware::Parcel::writeEmbeddedReference"
    access: public_access
    linker_set_key: "_ZN7android8hardware6Parcel22writeEmbeddedReferenceEPmmmmm"
  }
  mangled_function_name: "_ZN7android8hardware6Parcel22writeEmbeddedReferenceEPmmmmm"
  source_file: "/home/suhwa.kim/CONA_Proj/android/system/libhwbinder/include/hwbinder/Parcel.h"
  parameters {
    basic_abi {
      type_abi {
        name: "unsigned long *"
        size: 8
        alignment: 8
      }
      name: "handle"
      access: public_access
      linker_set_key: "false"
    }
    default_arg: false
  }
  parameters {
    basic_abi {
      type_abi {
        name: "unsigned long"
        size: 8
        alignment: 8
      }
      name: "child_buffer_handle"
      access: public_access
      linker_set_key: "false"
    }
    default_arg: false
  }
  parameters {
    basic_abi {
      type_abi {
        name: "unsigned long"
        size: 8
        alignment: 8
      }
      name: "child_offset"
      access: public_access
      linker_set_key: "false"
    }
    default_arg: false
  }
  parameters {
    basic_abi {
      type_abi {
        name: "unsigned long"
        size: 8
        alignment: 8
      }
      name: "parent_buffer_handle"
      access: public_access
      linker_set_key: "false"
    }
    default_arg: false
  }
  parameters {
    basic_abi {
      type_abi {
        name: "unsigned long"
        size: 8
        alignment: 8
      }
      name: "parent_offset"
      access: public_access
      linker_set_key: "false"
    }
    default_arg: false
  }
}
functions {
  basic_abi {
    type_abi {
      name: "int"
      size: 4
      alignment: 4
    }
    name: "android::hardware::Parcel::writeNullReference"
    access: public_access
    linker_set_key: "_ZN7android8hardware6Parcel18writeNullReferenceEPm"
  }
  mangled_function_name: "_ZN7android8hardware6Parcel18writeNullReferenceEPm"
  source_file: "/home/suhwa.kim/CONA_Proj/android/system/libhwbinder/include/hwbinder/Parcel.h"
  parameters {
    basic_abi {
      type_abi {
        name: "unsigned long *"
        size: 8
        alignment: 8
      }
      name: "handle"
      access: public_access
      linker_set_key: "false"
    }
    default_arg: false
  }
}
functions {
  basic_abi {
    type_abi {
      name: "int"
      size: 4
      alignment: 4
    }
    name: "android::hardware::Parcel::writeEmbeddedNullReference"
    access: public_access
    linker_set_key: "_ZN7android8hardware6Parcel26writeEmbeddedNullReferenceEPmmm"
  }
  mangled_function_name: "_ZN7android8hardware6Parcel26writeEmbeddedNullReferenceEPmmm"
  source_file: "/home/suhwa.kim/CONA_Proj/android/system/libhwbinder/include/hwbinder/Parcel.h"
  parameters {
    basic_abi {
      type_abi {
        name: "unsigned long *"
        size: 8
        alignment: 8
      }
      name: "handle"
      access: public_access
      linker_set_key: "false"
    }
    default_arg: false
  }
  parameters {
    basic_abi {
      type_abi {
        name: "unsigned long"
        size: 8
        alignment: 8
      }
      name: "parent_buffer_handle"
      access: public_access
      linker_set_key: "false"
    }
    default_arg: false
  }
  parameters {
    basic_abi {
      type_abi {
        name: "unsigned long"
        size: 8
        alignment: 8
      }
      name: "parent_offset"
      access: public_access
      linker_set_key: "false"
    }
    default_arg: false
  }
}
functions {
  basic_abi {
    type_abi {
      name: "int"
      size: 4
      alignment: 4
    }
    name: "android::hardware::Parcel::writeEmbeddedNativeHandle"
    access: public_access
    linker_set_key: "_ZN7android8hardware6Parcel25writeEmbeddedNativeHandleEPK13native_handlemm"
  }
  mangled_function_name: "_ZN7android8hardware6Parcel25writeEmbeddedNativeHandleEPK13native_handlemm"
  source_file: "/home/suhwa.kim/CONA_Proj/android/system/libhwbinder/include/hwbinder/Parcel.h"
  parameters {
    basic_abi {
      type_abi {
        name: "const native_handle *"
        size: 8
        alignment: 8
      }
      name: "handle"
      access: public_access
      linker_set_key: "false"
    }
    default_arg: false
  }
  parameters {
    basic_abi {
      type_abi {
        name: "unsigned long"
        size: 8
        alignment: 8
      }
      name: "parent_buffer_handle"
      access: public_access
      linker_set_key: "false"
    }
    default_arg: false
  }
  parameters {
    basic_abi {
      type_abi {
        name: "unsigned long"
        size: 8
        alignment: 8
      }
      name: "parent_offset"
      access: public_access
      linker_set_key: "false"
    }
    default_arg: false
  }
}
functions {
  basic_abi {
    type_abi {
      name: "int"
      size: 4
      alignment: 4
    }
    name: "android::hardware::Parcel::writeNativeHandleNoDup"
    access: public_access
    linker_set_key: "_ZN7android8hardware6Parcel22writeNativeHandleNoDupEPK13native_handlebmm"
  }
  mangled_function_name: "_ZN7android8hardware6Parcel22writeNativeHandleNoDupEPK13native_handlebmm"
  source_file: "/home/suhwa.kim/CONA_Proj/android/system/libhwbinder/include/hwbinder/Parcel.h"
  parameters {
    basic_abi {
      type_abi {
        name: "const native_handle *"
        size: 8
        alignment: 8
      }
      name: "handle"
      access: public_access
      linker_set_key: "false"
    }
    default_arg: false
  }
  parameters {
    basic_abi {
      type_abi {
        name: "bool"
        size: 1
        alignment: 1
      }
      name: "embedded"
      access: public_access
      linker_set_key: "false"
    }
    default_arg: false
  }
  parameters {
    basic_abi {
      type_abi {
        name: "unsigned long"
        size: 8
        alignment: 8
      }
      name: "parent_buffer_handle"
      access: public_access
      linker_set_key: "true"
    }
    default_arg: true
  }
  parameters {
    basic_abi {
      type_abi {
        name: "unsigned long"
        size: 8
        alignment: 8
      }
      name: "parent_offset"
      access: public_access
      linker_set_key: "true"
    }
    default_arg: true
  }
}
functions {
  basic_abi {
    type_abi {
      name: "int"
      size: 4
      alignment: 4
    }
    name: "android::hardware::Parcel::writeNativeHandleNoDup"
    access: public_access
    linker_set_key: "_ZN7android8hardware6Parcel22writeNativeHandleNoDupEPK13native_handle"
  }
  mangled_function_name: "_ZN7android8hardware6Parcel22writeNativeHandleNoDupEPK13native_handle"
  source_file: "/home/suhwa.kim/CONA_Proj/android/system/libhwbinder/include/hwbinder/Parcel.h"
  parameters {
    basic_abi {
      type_abi {
        name: "const native_handle *"
        size: 8
        alignment: 8
      }
      name: "handle"
      access: public_access
      linker_set_key: "false"
    }
    default_arg: false
  }
}
functions {
  basic_abi {
    type_abi {
      name: "void"
    }
    name: "android::hardware::Parcel::remove"
    access: public_access
    linker_set_key: "_ZN7android8hardware6Parcel6removeEmm"
  }
  mangled_function_name: "_ZN7android8hardware6Parcel6removeEmm"
  source_file: "/home/suhwa.kim/CONA_Proj/android/system/libhwbinder/include/hwbinder/Parcel.h"
  parameters {
    basic_abi {
      type_abi {
        name: "unsigned long"
        size: 8
        alignment: 8
      }
      name: "start"
      access: public_access
      linker_set_key: "false"
    }
    default_arg: false
  }
  parameters {
    basic_abi {
      type_abi {
        name: "unsigned long"
        size: 8
        alignment: 8
      }
      name: "amt"
      access: public_access
      linker_set_key: "false"
    }
    default_arg: false
  }
}
functions {
  basic_abi {
    type_abi {
      name: "int"
      size: 4
      alignment: 4
    }
    name: "android::hardware::Parcel::read"
    access: public_access
    linker_set_key: "_ZNK7android8hardware6Parcel4readEPvm"
  }
  mangled_function_name: "_ZNK7android8hardware6Parcel4readEPvm"
  source_file: "/home/suhwa.kim/CONA_Proj/android/system/libhwbinder/include/hwbinder/Parcel.h"
  parameters {
    basic_abi {
      type_abi {
        name: "void *"
        size: 8
        alignment: 8
      }
      name: "outData"
      access: public_access
      linker_set_key: "false"
    }
    default_arg: false
  }
  parameters {
    basic_abi {
      type_abi {
        name: "unsigned long"
        size: 8
        alignment: 8
      }
      name: "len"
      access: public_access
      linker_set_key: "false"
    }
    default_arg: false
  }
}
functions {
  basic_abi {
    type_abi {
      name: "const void *"
      size: 8
      alignment: 8
    }
    name: "android::hardware::Parcel::readInplace"
    access: public_access
    linker_set_key: "_ZNK7android8hardware6Parcel11readInplaceEm"
  }
  mangled_function_name: "_ZNK7android8hardware6Parcel11readInplaceEm"
  source_file: "/home/suhwa.kim/CONA_Proj/android/system/libhwbinder/include/hwbinder/Parcel.h"
  parameters {
    basic_abi {
      type_abi {
        name: "unsigned long"
        size: 8
        alignment: 8
      }
      name: "len"
      access: public_access
      linker_set_key: "false"
    }
    default_arg: false
  }
}
functions {
  basic_abi {
    type_abi {
      name: "int"
      size: 4
      alignment: 4
    }
    name: "android::hardware::Parcel::readInt8"
    access: public_access
    linker_set_key: "_ZNK7android8hardware6Parcel8readInt8EPa"
  }
  mangled_function_name: "_ZNK7android8hardware6Parcel8readInt8EPa"
  source_file: "/home/suhwa.kim/CONA_Proj/android/system/libhwbinder/include/hwbinder/Parcel.h"
  parameters {
    basic_abi {
      type_abi {
        name: "signed char *"
        size: 8
        alignment: 8
      }
      name: "pArg"
      access: public_access
      linker_set_key: "false"
    }
    default_arg: false
  }
}
functions {
  basic_abi {
    type_abi {
      name: "int"
      size: 4
      alignment: 4
    }
    name: "android::hardware::Parcel::readUint8"
    access: public_access
    linker_set_key: "_ZNK7android8hardware6Parcel9readUint8EPh"
  }
  mangled_function_name: "_ZNK7android8hardware6Parcel9readUint8EPh"
  source_file: "/home/suhwa.kim/CONA_Proj/android/system/libhwbinder/include/hwbinder/Parcel.h"
  parameters {
    basic_abi {
      type_abi {
        name: "unsigned char *"
        size: 8
        alignment: 8
      }
      name: "pArg"
      access: public_access
      linker_set_key: "false"
    }
    default_arg: false
  }
}
functions {
  basic_abi {
    type_abi {
      name: "int"
      size: 4
      alignment: 4
    }
    name: "android::hardware::Parcel::readInt16"
    access: public_access
    linker_set_key: "_ZNK7android8hardware6Parcel9readInt16EPs"
  }
  mangled_function_name: "_ZNK7android8hardware6Parcel9readInt16EPs"
  source_file: "/home/suhwa.kim/CONA_Proj/android/system/libhwbinder/include/hwbinder/Parcel.h"
  parameters {
    basic_abi {
      type_abi {
        name: "short *"
        size: 8
        alignment: 8
      }
      name: "pArg"
      access: public_access
      linker_set_key: "false"
    }
    default_arg: false
  }
}
functions {
  basic_abi {
    type_abi {
      name: "int"
      size: 4
      alignment: 4
    }
    name: "android::hardware::Parcel::readUint16"
    access: public_access
    linker_set_key: "_ZNK7android8hardware6Parcel10readUint16EPt"
  }
  mangled_function_name: "_ZNK7android8hardware6Parcel10readUint16EPt"
  source_file: "/home/suhwa.kim/CONA_Proj/android/system/libhwbinder/include/hwbinder/Parcel.h"
  parameters {
    basic_abi {
      type_abi {
        name: "unsigned short *"
        size: 8
        alignment: 8
      }
      name: "pArg"
      access: public_access
      linker_set_key: "false"
    }
    default_arg: false
  }
}
functions {
  basic_abi {
    type_abi {
      name: "int"
      size: 4
      alignment: 4
    }
    name: "android::hardware::Parcel::readInt32"
    access: public_access
    linker_set_key: "_ZNK7android8hardware6Parcel9readInt32Ev"
  }
  mangled_function_name: "_ZNK7android8hardware6Parcel9readInt32Ev"
  source_file: "/home/suhwa.kim/CONA_Proj/android/system/libhwbinder/include/hwbinder/Parcel.h"
}
functions {
  basic_abi {
    type_abi {
      name: "int"
      size: 4
      alignment: 4
    }
    name: "android::hardware::Parcel::readInt32"
    access: public_access
    linker_set_key: "_ZNK7android8hardware6Parcel9readInt32EPi"
  }
  mangled_function_name: "_ZNK7android8hardware6Parcel9readInt32EPi"
  source_file: "/home/suhwa.kim/CONA_Proj/android/system/libhwbinder/include/hwbinder/Parcel.h"
  parameters {
    basic_abi {
      type_abi {
        name: "int *"
        size: 8
        alignment: 8
      }
      name: "pArg"
      access: public_access
      linker_set_key: "false"
    }
    default_arg: false
  }
}
functions {
  basic_abi {
    type_abi {
      name: "unsigned int"
      size: 4
      alignment: 4
    }
    name: "android::hardware::Parcel::readUint32"
    access: public_access
    linker_set_key: "_ZNK7android8hardware6Parcel10readUint32Ev"
  }
  mangled_function_name: "_ZNK7android8hardware6Parcel10readUint32Ev"
  source_file: "/home/suhwa.kim/CONA_Proj/android/system/libhwbinder/include/hwbinder/Parcel.h"
}
functions {
  basic_abi {
    type_abi {
      name: "int"
      size: 4
      alignment: 4
    }
    name: "android::hardware::Parcel::readUint32"
    access: public_access
    linker_set_key: "_ZNK7android8hardware6Parcel10readUint32EPj"
  }
  mangled_function_name: "_ZNK7android8hardware6Parcel10readUint32EPj"
  source_file: "/home/suhwa.kim/CONA_Proj/android/system/libhwbinder/include/hwbinder/Parcel.h"
  parameters {
    basic_abi {
      type_abi {
        name: "unsigned int *"
        size: 8
        alignment: 8
      }
      name: "pArg"
      access: public_access
      linker_set_key: "false"
    }
    default_arg: false
  }
}
functions {
  basic_abi {
    type_abi {
      name: "long"
      size: 8
      alignment: 8
    }
    name: "android::hardware::Parcel::readInt64"
    access: public_access
    linker_set_key: "_ZNK7android8hardware6Parcel9readInt64Ev"
  }
  mangled_function_name: "_ZNK7android8hardware6Parcel9readInt64Ev"
  source_file: "/home/suhwa.kim/CONA_Proj/android/system/libhwbinder/include/hwbinder/Parcel.h"
}
functions {
  basic_abi {
    type_abi {
      name: "int"
      size: 4
      alignment: 4
    }
    name: "android::hardware::Parcel::readInt64"
    access: public_access
    linker_set_key: "_ZNK7android8hardware6Parcel9readInt64EPl"
  }
  mangled_function_name: "_ZNK7android8hardware6Parcel9readInt64EPl"
  source_file: "/home/suhwa.kim/CONA_Proj/android/system/libhwbinder/include/hwbinder/Parcel.h"
  parameters {
    basic_abi {
      type_abi {
        name: "long *"
        size: 8
        alignment: 8
      }
      name: "pArg"
      access: public_access
      linker_set_key: "false"
    }
    default_arg: false
  }
}
functions {
  basic_abi {
    type_abi {
      name: "unsigned long"
      size: 8
      alignment: 8
    }
    name: "android::hardware::Parcel::readUint64"
    access: public_access
    linker_set_key: "_ZNK7android8hardware6Parcel10readUint64Ev"
  }
  mangled_function_name: "_ZNK7android8hardware6Parcel10readUint64Ev"
  source_file: "/home/suhwa.kim/CONA_Proj/android/system/libhwbinder/include/hwbinder/Parcel.h"
}
functions {
  basic_abi {
    type_abi {
      name: "int"
      size: 4
      alignment: 4
    }
    name: "android::hardware::Parcel::readUint64"
    access: public_access
    linker_set_key: "_ZNK7android8hardware6Parcel10readUint64EPm"
  }
  mangled_function_name: "_ZNK7android8hardware6Parcel10readUint64EPm"
  source_file: "/home/suhwa.kim/CONA_Proj/android/system/libhwbinder/include/hwbinder/Parcel.h"
  parameters {
    basic_abi {
      type_abi {
        name: "unsigned long *"
        size: 8
        alignment: 8
      }
      name: "pArg"
      access: public_access
      linker_set_key: "false"
    }
    default_arg: false
  }
}
functions {
  basic_abi {
    type_abi {
      name: "float"
      size: 4
      alignment: 4
    }
    name: "android::hardware::Parcel::readFloat"
    access: public_access
    linker_set_key: "_ZNK7android8hardware6Parcel9readFloatEv"
  }
  mangled_function_name: "_ZNK7android8hardware6Parcel9readFloatEv"
  source_file: "/home/suhwa.kim/CONA_Proj/android/system/libhwbinder/include/hwbinder/Parcel.h"
}
functions {
  basic_abi {
    type_abi {
      name: "int"
      size: 4
      alignment: 4
    }
    name: "android::hardware::Parcel::readFloat"
    access: public_access
    linker_set_key: "_ZNK7android8hardware6Parcel9readFloatEPf"
  }
  mangled_function_name: "_ZNK7android8hardware6Parcel9readFloatEPf"
  source_file: "/home/suhwa.kim/CONA_Proj/android/system/libhwbinder/include/hwbinder/Parcel.h"
  parameters {
    basic_abi {
      type_abi {
        name: "float *"
        size: 8
        alignment: 8
      }
      name: "pArg"
      access: public_access
      linker_set_key: "false"
    }
    default_arg: false
  }
}
functions {
  basic_abi {
    type_abi {
      name: "double"
      size: 8
      alignment: 8
    }
    name: "android::hardware::Parcel::readDouble"
    access: public_access
    linker_set_key: "_ZNK7android8hardware6Parcel10readDoubleEv"
  }
  mangled_function_name: "_ZNK7android8hardware6Parcel10readDoubleEv"
  source_file: "/home/suhwa.kim/CONA_Proj/android/system/libhwbinder/include/hwbinder/Parcel.h"
}
functions {
  basic_abi {
    type_abi {
      name: "int"
      size: 4
      alignment: 4
    }
    name: "android::hardware::Parcel::readDouble"
    access: public_access
    linker_set_key: "_ZNK7android8hardware6Parcel10readDoubleEPd"
  }
  mangled_function_name: "_ZNK7android8hardware6Parcel10readDoubleEPd"
  source_file: "/home/suhwa.kim/CONA_Proj/android/system/libhwbinder/include/hwbinder/Parcel.h"
  parameters {
    basic_abi {
      type_abi {
        name: "double *"
        size: 8
        alignment: 8
      }
      name: "pArg"
      access: public_access
      linker_set_key: "false"
    }
    default_arg: false
  }
}
functions {
  basic_abi {
    type_abi {
      name: "bool"
      size: 1
      alignment: 1
    }
    name: "android::hardware::Parcel::readBool"
    access: public_access
    linker_set_key: "_ZNK7android8hardware6Parcel8readBoolEv"
  }
  mangled_function_name: "_ZNK7android8hardware6Parcel8readBoolEv"
  source_file: "/home/suhwa.kim/CONA_Proj/android/system/libhwbinder/include/hwbinder/Parcel.h"
}
functions {
  basic_abi {
    type_abi {
      name: "int"
      size: 4
      alignment: 4
    }
    name: "android::hardware::Parcel::readBool"
    access: public_access
    linker_set_key: "_ZNK7android8hardware6Parcel8readBoolEPb"
  }
  mangled_function_name: "_ZNK7android8hardware6Parcel8readBoolEPb"
  source_file: "/home/suhwa.kim/CONA_Proj/android/system/libhwbinder/include/hwbinder/Parcel.h"
  parameters {
    basic_abi {
      type_abi {
        name: "bool *"
        size: 8
        alignment: 8
      }
      name: "pArg"
      access: public_access
      linker_set_key: "false"
    }
    default_arg: false
  }
}
functions {
  basic_abi {
    type_abi {
      name: "const char *"
      size: 8
      alignment: 8
    }
    name: "android::hardware::Parcel::readCString"
    access: public_access
    linker_set_key: "_ZNK7android8hardware6Parcel11readCStringEv"
  }
  mangled_function_name: "_ZNK7android8hardware6Parcel11readCStringEv"
  source_file: "/home/suhwa.kim/CONA_Proj/android/system/libhwbinder/include/hwbinder/Parcel.h"
}
functions {
  basic_abi {
    type_abi {
      name: "android::String16"
      size: 8
      alignment: 8
    }
    name: "android::hardware::Parcel::readString16"
    access: public_access
    linker_set_key: "_ZNK7android8hardware6Parcel12readString16Ev"
  }
  mangled_function_name: "_ZNK7android8hardware6Parcel12readString16Ev"
  source_file: "/home/suhwa.kim/CONA_Proj/android/system/libhwbinder/include/hwbinder/Parcel.h"
}
functions {
  basic_abi {
    type_abi {
      name: "int"
      size: 4
      alignment: 4
    }
    name: "android::hardware::Parcel::readString16"
    access: public_access
    linker_set_key: "_ZNK7android8hardware6Parcel12readString16EPNS_8String16E"
  }
  mangled_function_name: "_ZNK7android8hardware6Parcel12readString16EPNS_8String16E"
  source_file: "/home/suhwa.kim/CONA_Proj/android/system/libhwbinder/include/hwbinder/Parcel.h"
  parameters {
    basic_abi {
      type_abi {
        name: "android::String16 *"
        size: 8
        alignment: 8
      }
      name: "pArg"
      access: public_access
      linker_set_key: "false"
    }
    default_arg: false
  }
}
functions {
  basic_abi {
    type_abi {
      name: "int"
      size: 4
      alignment: 4
    }
    name: "android::hardware::Parcel::readString16"
    access: public_access
    linker_set_key: "_ZNK7android8hardware6Parcel12readString16EPNSt3__110unique_ptrINS_8String16ENS2_14default_deleteIS4_EEEE"
  }
  mangled_function_name: "_ZNK7android8hardware6Parcel12readString16EPNSt3__110unique_ptrINS_8String16ENS2_14default_deleteIS4_EEEE"
  source_file: "/home/suhwa.kim/CONA_Proj/android/system/libhwbinder/include/hwbinder/Parcel.h"
  parameters {
    basic_abi {
      type_abi {
        name: "std::unique_ptr<android::String16, std::default_delete<android::String16> > *"
        size: 8
        alignment: 8
      }
      name: "pArg"
      access: public_access
      linker_set_key: "false"
    }
    default_arg: false
  }
}
functions {
  basic_abi {
    type_abi {
      name: "const char16_t *"
      size: 8
      alignment: 8
    }
    name: "android::hardware::Parcel::readString16Inplace"
    access: public_access
    linker_set_key: "_ZNK7android8hardware6Parcel19readString16InplaceEPm"
  }
  mangled_function_name: "_ZNK7android8hardware6Parcel19readString16InplaceEPm"
  source_file: "/home/suhwa.kim/CONA_Proj/android/system/libhwbinder/include/hwbinder/Parcel.h"
  parameters {
    basic_abi {
      type_abi {
        name: "unsigned long *"
        size: 8
        alignment: 8
      }
      name: "outLen"
      access: public_access
      linker_set_key: "false"
    }
    default_arg: false
  }
}
functions {
  basic_abi {
    type_abi {
      name: "android::sp<android::hardware::IBinder>"
      size: 8
      alignment: 8
    }
    name: "android::hardware::Parcel::readStrongBinder"
    access: public_access
    linker_set_key: "_ZNK7android8hardware6Parcel16readStrongBinderEv"
  }
  mangled_function_name: "_ZNK7android8hardware6Parcel16readStrongBinderEv"
  source_file: "/home/suhwa.kim/CONA_Proj/android/system/libhwbinder/include/hwbinder/Parcel.h"
}
functions {
  basic_abi {
    type_abi {
      name: "int"
      size: 4
      alignment: 4
    }
    name: "android::hardware::Parcel::readStrongBinder"
    access: public_access
    linker_set_key: "_ZNK7android8hardware6Parcel16readStrongBinderEPNS_2spINS0_7IBinderEEE"
  }
  mangled_function_name: "_ZNK7android8hardware6Parcel16readStrongBinderEPNS_2spINS0_7IBinderEEE"
  source_file: "/home/suhwa.kim/CONA_Proj/android/system/libhwbinder/include/hwbinder/Parcel.h"
  parameters {
    basic_abi {
      type_abi {
        name: "android::sp<android::hardware::IBinder> *"
        size: 8
        alignment: 8
      }
      name: "val"
      access: public_access
      linker_set_key: "false"
    }
    default_arg: false
  }
}
functions {
  basic_abi {
    type_abi {
      name: "int"
      size: 4
      alignment: 4
    }
    name: "android::hardware::Parcel::readNullableStrongBinder"
    access: public_access
    linker_set_key: "_ZNK7android8hardware6Parcel24readNullableStrongBinderEPNS_2spINS0_7IBinderEEE"
  }
  mangled_function_name: "_ZNK7android8hardware6Parcel24readNullableStrongBinderEPNS_2spINS0_7IBinderEEE"
  source_file: "/home/suhwa.kim/CONA_Proj/android/system/libhwbinder/include/hwbinder/Parcel.h"
  parameters {
    basic_abi {
      type_abi {
        name: "android::sp<android::hardware::IBinder> *"
        size: 8
        alignment: 8
      }
      name: "val"
      access: public_access
      linker_set_key: "false"
    }
    default_arg: false
  }
}
functions {
  basic_abi {
    type_abi {
      name: "android::wp<android::hardware::IBinder>"
    }
    name: "android::hardware::Parcel::readWeakBinder"
    access: public_access
    linker_set_key: "_ZNK7android8hardware6Parcel14readWeakBinderEv"
  }
  mangled_function_name: "_ZNK7android8hardware6Parcel14readWeakBinderEv"
  source_file: "/home/suhwa.kim/CONA_Proj/android/system/libhwbinder/include/hwbinder/Parcel.h"
}
functions {
  basic_abi {
    type_abi {
      name: "const type-parameter-0-0 *"
    }
    name: "android::hardware::Parcel::readObject"
    access: public_access
    linker_set_key: "_ZNK7android8hardware6Parcel10readObjectEPm"
  }
  mangled_function_name: "_ZNK7android8hardware6Parcel10readObjectEPm"
  source_file: "/home/suhwa.kim/CONA_Proj/android/system/libhwbinder/include/hwbinder/Parcel.h"
  parameters {
    basic_abi {
      type_abi {
        name: "unsigned long *"
        size: 8
        alignment: 8
      }
      name: "objects_offset"
      access: public_access
      linker_set_key: "true"
    }
    default_arg: true
  }
  template_info {
    elements {
      basic_abi {
        name: "T"
        linker_set_key: "T"
      }
    }
  }
}
functions {
  basic_abi {
    type_abi {
      name: "int"
      size: 4
      alignment: 4
    }
    name: "android::hardware::Parcel::readBuffer"
    access: public_access
    linker_set_key: "_ZNK7android8hardware6Parcel10readBufferEmPmPPKv"
  }
  mangled_function_name: "_ZNK7android8hardware6Parcel10readBufferEmPmPPKv"
  source_file: "/home/suhwa.kim/CONA_Proj/android/system/libhwbinder/include/hwbinder/Parcel.h"
  parameters {
    basic_abi {
      type_abi {
        name: "unsigned long"
        size: 8
        alignment: 8
      }
      name: "buffer_size"
      access: public_access
      linker_set_key: "false"
    }
    default_arg: false
  }
  parameters {
    basic_abi {
      type_abi {
        name: "unsigned long *"
        size: 8
        alignment: 8
      }
      name: "buffer_handle"
      access: public_access
      linker_set_key: "false"
    }
    default_arg: false
  }
  parameters {
    basic_abi {
      type_abi {
        name: "const void **"
        size: 8
        alignment: 8
      }
      name: "buffer_out"
      access: public_access
      linker_set_key: "false"
    }
    default_arg: false
  }
}
functions {
  basic_abi {
    type_abi {
      name: "int"
      size: 4
      alignment: 4
    }
    name: "android::hardware::Parcel::readNullableBuffer"
    access: public_access
    linker_set_key: "_ZNK7android8hardware6Parcel18readNullableBufferEmPmPPKv"
  }
  mangled_function_name: "_ZNK7android8hardware6Parcel18readNullableBufferEmPmPPKv"
  source_file: "/home/suhwa.kim/CONA_Proj/android/system/libhwbinder/include/hwbinder/Parcel.h"
  parameters {
    basic_abi {
      type_abi {
        name: "unsigned long"
        size: 8
        alignment: 8
      }
      name: "buffer_size"
      access: public_access
      linker_set_key: "false"
    }
    default_arg: false
  }
  parameters {
    basic_abi {
      type_abi {
        name: "unsigned long *"
        size: 8
        alignment: 8
      }
      name: "buffer_handle"
      access: public_access
      linker_set_key: "false"
    }
    default_arg: false
  }
  parameters {
    basic_abi {
      type_abi {
        name: "const void **"
        size: 8
        alignment: 8
      }
      name: "buffer_out"
      access: public_access
      linker_set_key: "false"
    }
    default_arg: false
  }
}
functions {
  basic_abi {
    type_abi {
      name: "int"
      size: 4
      alignment: 4
    }
    name: "android::hardware::Parcel::readEmbeddedBuffer"
    access: public_access
    linker_set_key: "_ZNK7android8hardware6Parcel18readEmbeddedBufferEmPmmmPPKv"
  }
  mangled_function_name: "_ZNK7android8hardware6Parcel18readEmbeddedBufferEmPmmmPPKv"
  source_file: "/home/suhwa.kim/CONA_Proj/android/system/libhwbinder/include/hwbinder/Parcel.h"
  parameters {
    basic_abi {
      type_abi {
        name: "unsigned long"
        size: 8
        alignment: 8
      }
      name: "buffer_size"
      access: public_access
      linker_set_key: "false"
    }
    default_arg: false
  }
  parameters {
    basic_abi {
      type_abi {
        name: "unsigned long *"
        size: 8
        alignment: 8
      }
      name: "buffer_handle"
      access: public_access
      linker_set_key: "false"
    }
    default_arg: false
  }
  parameters {
    basic_abi {
      type_abi {
        name: "unsigned long"
        size: 8
        alignment: 8
      }
      name: "parent_buffer_handle"
      access: public_access
      linker_set_key: "false"
    }
    default_arg: false
  }
  parameters {
    basic_abi {
      type_abi {
        name: "unsigned long"
        size: 8
        alignment: 8
      }
      name: "parent_offset"
      access: public_access
      linker_set_key: "false"
    }
    default_arg: false
  }
  parameters {
    basic_abi {
      type_abi {
        name: "const void **"
        size: 8
        alignment: 8
      }
      name: "buffer_out"
      access: public_access
      linker_set_key: "false"
    }
    default_arg: false
  }
}
functions {
  basic_abi {
    type_abi {
      name: "int"
      size: 4
      alignment: 4
    }
    name: "android::hardware::Parcel::readNullableEmbeddedBuffer"
    access: public_access
    linker_set_key: "_ZNK7android8hardware6Parcel26readNullableEmbeddedBufferEmPmmmPPKv"
  }
  mangled_function_name: "_ZNK7android8hardware6Parcel26readNullableEmbeddedBufferEmPmmmPPKv"
  source_file: "/home/suhwa.kim/CONA_Proj/android/system/libhwbinder/include/hwbinder/Parcel.h"
  parameters {
    basic_abi {
      type_abi {
        name: "unsigned long"
        size: 8
        alignment: 8
      }
      name: "buffer_size"
      access: public_access
      linker_set_key: "false"
    }
    default_arg: false
  }
  parameters {
    basic_abi {
      type_abi {
        name: "unsigned long *"
        size: 8
        alignment: 8
      }
      name: "buffer_handle"
      access: public_access
      linker_set_key: "false"
    }
    default_arg: false
  }
  parameters {
    basic_abi {
      type_abi {
        name: "unsigned long"
        size: 8
        alignment: 8
      }
      name: "parent_buffer_handle"
      access: public_access
      linker_set_key: "false"
    }
    default_arg: false
  }
  parameters {
    basic_abi {
      type_abi {
        name: "unsigned long"
        size: 8
        alignment: 8
      }
      name: "parent_offset"
      access: public_access
      linker_set_key: "false"
    }
    default_arg: false
  }
  parameters {
    basic_abi {
      type_abi {
        name: "const void **"
        size: 8
        alignment: 8
      }
      name: "buffer_out"
      access: public_access
      linker_set_key: "false"
    }
    default_arg: false
  }
}
functions {
  basic_abi {
    type_abi {
      name: "int"
      size: 4
      alignment: 4
    }
    name: "android::hardware::Parcel::readReference"
    access: public_access
    linker_set_key: "_ZNK7android8hardware6Parcel13readReferenceEPPKvPmPb"
  }
  mangled_function_name: "_ZNK7android8hardware6Parcel13readReferenceEPPKvPmPb"
  source_file: "/home/suhwa.kim/CONA_Proj/android/system/libhwbinder/include/hwbinder/Parcel.h"
  parameters {
    basic_abi {
      type_abi {
        name: "const void **"
        size: 8
        alignment: 8
      }
      name: "bufptr"
      access: public_access
      linker_set_key: "false"
    }
    default_arg: false
  }
  parameters {
    basic_abi {
      type_abi {
        name: "unsigned long *"
        size: 8
        alignment: 8
      }
      name: "buffer_handle"
      access: public_access
      linker_set_key: "false"
    }
    default_arg: false
  }
  parameters {
    basic_abi {
      type_abi {
        name: "bool *"
        size: 8
        alignment: 8
      }
      name: "isRef"
      access: public_access
      linker_set_key: "false"
    }
    default_arg: false
  }
}
functions {
  basic_abi {
    type_abi {
      name: "int"
      size: 4
      alignment: 4
    }
    name: "android::hardware::Parcel::readEmbeddedReference"
    access: public_access
    linker_set_key: "_ZNK7android8hardware6Parcel21readEmbeddedReferenceEPPKvPmmmPb"
  }
  mangled_function_name: "_ZNK7android8hardware6Parcel21readEmbeddedReferenceEPPKvPmmmPb"
  source_file: "/home/suhwa.kim/CONA_Proj/android/system/libhwbinder/include/hwbinder/Parcel.h"
  parameters {
    basic_abi {
      type_abi {
        name: "const void **"
        size: 8
        alignment: 8
      }
      name: "bufptr"
      access: public_access
      linker_set_key: "false"
    }
    default_arg: false
  }
  parameters {
    basic_abi {
      type_abi {
        name: "unsigned long *"
        size: 8
        alignment: 8
      }
      name: "buffer_handle"
      access: public_access
      linker_set_key: "false"
    }
    default_arg: false
  }
  parameters {
    basic_abi {
      type_abi {
        name: "unsigned long"
        size: 8
        alignment: 8
      }
      name: "parent_buffer_handle"
      access: public_access
      linker_set_key: "false"
    }
    default_arg: false
  }
  parameters {
    basic_abi {
      type_abi {
        name: "unsigned long"
        size: 8
        alignment: 8
      }
      name: "parent_offset"
      access: public_access
      linker_set_key: "false"
    }
    default_arg: false
  }
  parameters {
    basic_abi {
      type_abi {
        name: "bool *"
        size: 8
        alignment: 8
      }
      name: "isRef"
      access: public_access
      linker_set_key: "false"
    }
    default_arg: false
  }
}
functions {
  basic_abi {
    type_abi {
      name: "int"
      size: 4
      alignment: 4
    }
    name: "android::hardware::Parcel::readEmbeddedNativeHandle"
    access: public_access
    linker_set_key: "_ZNK7android8hardware6Parcel24readEmbeddedNativeHandleEmmPPK13native_handle"
  }
  mangled_function_name: "_ZNK7android8hardware6Parcel24readEmbeddedNativeHandleEmmPPK13native_handle"
  source_file: "/home/suhwa.kim/CONA_Proj/android/system/libhwbinder/include/hwbinder/Parcel.h"
  parameters {
    basic_abi {
      type_abi {
        name: "unsigned long"
        size: 8
        alignment: 8
      }
      name: "parent_buffer_handle"
      access: public_access
      linker_set_key: "false"
    }
    default_arg: false
  }
  parameters {
    basic_abi {
      type_abi {
        name: "unsigned long"
        size: 8
        alignment: 8
      }
      name: "parent_offset"
      access: public_access
      linker_set_key: "false"
    }
    default_arg: false
  }
  parameters {
    basic_abi {
      type_abi {
        name: "const native_handle **"
        size: 8
        alignment: 8
      }
      name: "handle"
      access: public_access
      linker_set_key: "false"
    }
    default_arg: false
  }
}
functions {
  basic_abi {
    type_abi {
      name: "int"
      size: 4
      alignment: 4
    }
    name: "android::hardware::Parcel::readNullableEmbeddedNativeHandle"
    access: public_access
    linker_set_key: "_ZNK7android8hardware6Parcel32readNullableEmbeddedNativeHandleEmmPPK13native_handle"
  }
  mangled_function_name: "_ZNK7android8hardware6Parcel32readNullableEmbeddedNativeHandleEmmPPK13native_handle"
  source_file: "/home/suhwa.kim/CONA_Proj/android/system/libhwbinder/include/hwbinder/Parcel.h"
  parameters {
    basic_abi {
      type_abi {
        name: "unsigned long"
        size: 8
        alignment: 8
      }
      name: "parent_buffer_handle"
      access: public_access
      linker_set_key: "false"
    }
    default_arg: false
  }
  parameters {
    basic_abi {
      type_abi {
        name: "unsigned long"
        size: 8
        alignment: 8
      }
      name: "parent_offset"
      access: public_access
      linker_set_key: "false"
    }
    default_arg: false
  }
  parameters {
    basic_abi {
      type_abi {
        name: "const native_handle **"
        size: 8
        alignment: 8
      }
      name: "handle"
      access: public_access
      linker_set_key: "false"
    }
    default_arg: false
  }
}
functions {
  basic_abi {
    type_abi {
      name: "int"
      size: 4
      alignment: 4
    }
    name: "android::hardware::Parcel::readNativeHandleNoDup"
    access: public_access
    linker_set_key: "_ZNK7android8hardware6Parcel21readNativeHandleNoDupEPPK13native_handle"
  }
  mangled_function_name: "_ZNK7android8hardware6Parcel21readNativeHandleNoDupEPPK13native_handle"
  source_file: "/home/suhwa.kim/CONA_Proj/android/system/libhwbinder/include/hwbinder/Parcel.h"
  parameters {
    basic_abi {
      type_abi {
        name: "const native_handle **"
        size: 8
        alignment: 8
      }
      name: "handle"
      access: public_access
      linker_set_key: "false"
    }
    default_arg: false
  }
}
functions {
  basic_abi {
    type_abi {
      name: "int"
      size: 4
      alignment: 4
    }
    name: "android::hardware::Parcel::readNullableNativeHandleNoDup"
    access: public_access
    linker_set_key: "_ZNK7android8hardware6Parcel29readNullableNativeHandleNoDupEPPK13native_handle"
  }
  mangled_function_name: "_ZNK7android8hardware6Parcel29readNullableNativeHandleNoDupEPPK13native_handle"
  source_file: "/home/suhwa.kim/CONA_Proj/android/system/libhwbinder/include/hwbinder/Parcel.h"
  parameters {
    basic_abi {
      type_abi {
        name: "const native_handle **"
        size: 8
        alignment: 8
      }
      name: "handle"
      access: public_access
      linker_set_key: "false"
    }
    default_arg: false
  }
}
functions {
  basic_abi {
    type_abi {
      name: "void"
    }
    name: "android::hardware::Parcel::closeFileDescriptors"
    access: public_access
    linker_set_key: "_ZN7android8hardware6Parcel20closeFileDescriptorsEv"
  }
  mangled_function_name: "_ZN7android8hardware6Parcel20closeFileDescriptorsEv"
  source_file: "/home/suhwa.kim/CONA_Proj/android/system/libhwbinder/include/hwbinder/Parcel.h"
}
functions {
  basic_abi {
    type_abi {
      name: "unsigned long"
      size: 8
      alignment: 8
    }
    name: "android::hardware::Parcel::getGlobalAllocSize"
    access: public_access
    linker_set_key: "_ZN7android8hardware6Parcel18getGlobalAllocSizeEv"
  }
  mangled_function_name: "_ZN7android8hardware6Parcel18getGlobalAllocSizeEv"
  source_file: "/home/suhwa.kim/CONA_Proj/android/system/libhwbinder/include/hwbinder/Parcel.h"
}
functions {
  basic_abi {
    type_abi {
      name: "unsigned long"
      size: 8
      alignment: 8
    }
    name: "android::hardware::Parcel::getGlobalAllocCount"
    access: public_access
    linker_set_key: "_ZN7android8hardware6Parcel19getGlobalAllocCountEv"
  }
  mangled_function_name: "_ZN7android8hardware6Parcel19getGlobalAllocCountEv"
  source_file: "/home/suhwa.kim/CONA_Proj/android/system/libhwbinder/include/hwbinder/Parcel.h"
}
functions {
  basic_abi {
    type_abi {
      name: "void"
    }
    name: "android::hardware::Parcel::clearCache"
    access: private_access
    linker_set_key: "_ZNK7android8hardware6Parcel10clearCacheEv"
  }
  mangled_function_name: "_ZNK7android8hardware6Parcel10clearCacheEv"
  source_file: "/home/suhwa.kim/CONA_Proj/android/system/libhwbinder/include/hwbinder/Parcel.h"
}
functions {
  basic_abi {
    type_abi {
      name: "void"
    }
    name: "android::hardware::Parcel::updateCache"
    access: private_access
    linker_set_key: "_ZNK7android8hardware6Parcel11updateCacheEv"
  }
  mangled_function_name: "_ZNK7android8hardware6Parcel11updateCacheEv"
  source_file: "/home/suhwa.kim/CONA_Proj/android/system/libhwbinder/include/hwbinder/Parcel.h"
}
functions {
  basic_abi {
    type_abi {
      name: "bool"
      size: 1
      alignment: 1
    }
    name: "android::hardware::Parcel::verifyBufferObject"
    access: private_access
    linker_set_key: "_ZNK7android8hardware6Parcel18verifyBufferObjectEPK20binder_buffer_objectmjmm"
  }
  mangled_function_name: "_ZNK7android8hardware6Parcel18verifyBufferObjectEPK20binder_buffer_objectmjmm"
  source_file: "/home/suhwa.kim/CONA_Proj/android/system/libhwbinder/include/hwbinder/Parcel.h"
  parameters {
    basic_abi {
      type_abi {
        name: "const binder_buffer_object *"
        size: 8
        alignment: 8
      }
      name: "buffer_obj"
      access: public_access
      linker_set_key: "false"
    }
    default_arg: false
  }
  parameters {
    basic_abi {
      type_abi {
        name: "unsigned long"
        size: 8
        alignment: 8
      }
      name: "size"
      access: public_access
      linker_set_key: "false"
    }
    default_arg: false
  }
  parameters {
    basic_abi {
      type_abi {
        name: "unsigned int"
        size: 4
        alignment: 4
      }
      name: "flags"
      access: public_access
      linker_set_key: "false"
    }
    default_arg: false
  }
  parameters {
    basic_abi {
      type_abi {
        name: "unsigned long"
        size: 8
        alignment: 8
      }
      name: "parent"
      access: public_access
      linker_set_key: "false"
    }
    default_arg: false
  }
  parameters {
    basic_abi {
      type_abi {
        name: "unsigned long"
        size: 8
        alignment: 8
      }
      name: "parentOffset"
      access: public_access
      linker_set_key: "false"
    }
    default_arg: false
  }
}
functions {
  basic_abi {
    type_abi {
      name: "int"
      size: 4
      alignment: 4
    }
    name: "android::hardware::Parcel::readBuffer"
    access: private_access
    linker_set_key: "_ZNK7android8hardware6Parcel10readBufferEmPmjmmPPKv"
  }
  mangled_function_name: "_ZNK7android8hardware6Parcel10readBufferEmPmjmmPPKv"
  source_file: "/home/suhwa.kim/CONA_Proj/android/system/libhwbinder/include/hwbinder/Parcel.h"
  parameters {
    basic_abi {
      type_abi {
        name: "unsigned long"
        size: 8
        alignment: 8
      }
      name: "buffer_size"
      access: public_access
      linker_set_key: "false"
    }
    default_arg: false
  }
  parameters {
    basic_abi {
      type_abi {
        name: "unsigned long *"
        size: 8
        alignment: 8
      }
      name: "buffer_handle"
      access: public_access
      linker_set_key: "false"
    }
    default_arg: false
  }
  parameters {
    basic_abi {
      type_abi {
        name: "unsigned int"
        size: 4
        alignment: 4
      }
      name: "flags"
      access: public_access
      linker_set_key: "false"
    }
    default_arg: false
  }
  parameters {
    basic_abi {
      type_abi {
        name: "unsigned long"
        size: 8
        alignment: 8
      }
      name: "parent"
      access: public_access
      linker_set_key: "false"
    }
    default_arg: false
  }
  parameters {
    basic_abi {
      type_abi {
        name: "unsigned long"
        size: 8
        alignment: 8
      }
      name: "parentOffset"
      access: public_access
      linker_set_key: "false"
    }
    default_arg: false
  }
  parameters {
    basic_abi {
      type_abi {
        name: "const void **"
        size: 8
        alignment: 8
      }
      name: "buffer_out"
      access: public_access
      linker_set_key: "false"
    }
    default_arg: false
  }
}
functions {
  basic_abi {
    type_abi {
      name: "int"
      size: 4
      alignment: 4
    }
    name: "android::hardware::Parcel::readNullableNativeHandleNoDup"
    access: private_access
    linker_set_key: "_ZNK7android8hardware6Parcel29readNullableNativeHandleNoDupEPPK13native_handlebmm"
  }
  mangled_function_name: "_ZNK7android8hardware6Parcel29readNullableNativeHandleNoDupEPPK13native_handlebmm"
  source_file: "/home/suhwa.kim/CONA_Proj/android/system/libhwbinder/include/hwbinder/Parcel.h"
  parameters {
    basic_abi {
      type_abi {
        name: "const native_handle **"
        size: 8
        alignment: 8
      }
      name: "handle"
      access: public_access
      linker_set_key: "false"
    }
    default_arg: false
  }
  parameters {
    basic_abi {
      type_abi {
        name: "bool"
        size: 1
        alignment: 1
      }
      name: "embedded"
      access: public_access
      linker_set_key: "false"
    }
    default_arg: false
  }
  parameters {
    basic_abi {
      type_abi {
        name: "unsigned long"
        size: 8
        alignment: 8
      }
      name: "parent_buffer_handle"
      access: public_access
      linker_set_key: "true"
    }
    default_arg: true
  }
  parameters {
    basic_abi {
      type_abi {
        name: "unsigned long"
        size: 8
        alignment: 8
      }
      name: "parent_offset"
      access: public_access
      linker_set_key: "true"
    }
    default_arg: true
  }
}
functions {
  basic_abi {
    type_abi {
      name: "int"
      size: 4
      alignment: 4
    }
    name: "android::hardware::Parcel::findBuffer"
    access: public_access
    linker_set_key: "_ZNK7android8hardware6Parcel10findBufferEPKvmPbPmS5_"
  }
  mangled_function_name: "_ZNK7android8hardware6Parcel10findBufferEPKvmPbPmS5_"
  source_file: "/home/suhwa.kim/CONA_Proj/android/system/libhwbinder/include/hwbinder/Parcel.h"
  parameters {
    basic_abi {
      type_abi {
        name: "const void *"
        size: 8
        alignment: 8
      }
      name: "ptr"
      access: public_access
      linker_set_key: "false"
    }
    default_arg: false
  }
  parameters {
    basic_abi {
      type_abi {
        name: "unsigned long"
        size: 8
        alignment: 8
      }
      name: "length"
      access: public_access
      linker_set_key: "false"
    }
    default_arg: false
  }
  parameters {
    basic_abi {
      type_abi {
        name: "bool *"
        size: 8
        alignment: 8
      }
      name: "found"
      access: public_access
      linker_set_key: "false"
    }
    default_arg: false
  }
  parameters {
    basic_abi {
      type_abi {
        name: "unsigned long *"
        size: 8
        alignment: 8
      }
      name: "handle"
      access: public_access
      linker_set_key: "false"
    }
    default_arg: false
  }
  parameters {
    basic_abi {
      type_abi {
        name: "unsigned long *"
        size: 8
        alignment: 8
      }
      name: "offset"
      access: public_access
      linker_set_key: "false"
    }
    default_arg: false
  }
}
functions {
  basic_abi {
    type_abi {
      name: "int"
      size: 4
      alignment: 4
    }
    name: "android::hardware::Parcel::quickFindBuffer"
    access: public_access
    linker_set_key: "_ZNK7android8hardware6Parcel15quickFindBufferEPKvPm"
  }
  mangled_function_name: "_ZNK7android8hardware6Parcel15quickFindBufferEPKvPm"
  source_file: "/home/suhwa.kim/CONA_Proj/android/system/libhwbinder/include/hwbinder/Parcel.h"
  parameters {
    basic_abi {
      type_abi {
        name: "const void *"
        size: 8
        alignment: 8
      }
      name: "ptr"
      access: public_access
      linker_set_key: "false"
    }
    default_arg: false
  }
  parameters {
    basic_abi {
      type_abi {
        name: "unsigned long *"
        size: 8
        alignment: 8
      }
      name: "handle"
      access: public_access
      linker_set_key: "false"
    }
    default_arg: false
  }
}
functions {
  basic_abi {
    type_abi {
      name: "int"
      size: 4
      alignment: 4
    }
    name: "android::hardware::Parcel::incrementNumReferences"
    access: private_access
    linker_set_key: "_ZN7android8hardware6Parcel22incrementNumReferencesEv"
  }
  mangled_function_name: "_ZN7android8hardware6Parcel22incrementNumReferencesEv"
  source_file: "/home/suhwa.kim/CONA_Proj/android/system/libhwbinder/include/hwbinder/Parcel.h"
}
functions {
  basic_abi {
    type_abi {
      name: "bool"
      size: 1
      alignment: 1
    }
    name: "android::hardware::Parcel::validateBufferChild"
    access: private_access
    linker_set_key: "_ZNK7android8hardware6Parcel19validateBufferChildEmm"
  }
  mangled_function_name: "_ZNK7android8hardware6Parcel19validateBufferChildEmm"
  source_file: "/home/suhwa.kim/CONA_Proj/android/system/libhwbinder/include/hwbinder/Parcel.h"
  parameters {
    basic_abi {
      type_abi {
        name: "unsigned long"
        size: 8
        alignment: 8
      }
      name: "child_buffer_handle"
      access: public_access
      linker_set_key: "false"
    }
    default_arg: false
  }
  parameters {
    basic_abi {
      type_abi {
        name: "unsigned long"
        size: 8
        alignment: 8
      }
      name: "child_offset"
      access: public_access
      linker_set_key: "false"
    }
    default_arg: false
  }
}
functions {
  basic_abi {
    type_abi {
      name: "bool"
      size: 1
      alignment: 1
    }
    name: "android::hardware::Parcel::validateBufferParent"
    access: private_access
    linker_set_key: "_ZNK7android8hardware6Parcel20validateBufferParentEmm"
  }
  mangled_function_name: "_ZNK7android8hardware6Parcel20validateBufferParentEmm"
  source_file: "/home/suhwa.kim/CONA_Proj/android/system/libhwbinder/include/hwbinder/Parcel.h"
  parameters {
    basic_abi {
      type_abi {
        name: "unsigned long"
        size: 8
        alignment: 8
      }
      name: "parent_buffer_handle"
      access: public_access
      linker_set_key: "false"
    }
    default_arg: false
  }
  parameters {
    basic_abi {
      type_abi {
        name: "unsigned long"
        size: 8
        alignment: 8
      }
      name: "parent_offset"
      access: public_access
      linker_set_key: "false"
    }
    default_arg: false
  }
}
functions {
  basic_abi {
    type_abi {
      name: "unsigned long"
      size: 8
      alignment: 8
    }
    name: "android::hardware::Parcel::ipcData"
    access: private_access
    linker_set_key: "_ZNK7android8hardware6Parcel7ipcDataEv"
  }
  mangled_function_name: "_ZNK7android8hardware6Parcel7ipcDataEv"
  source_file: "/home/suhwa.kim/CONA_Proj/android/system/libhwbinder/include/hwbinder/Parcel.h"
}
functions {
  basic_abi {
    type_abi {
      name: "unsigned long"
      size: 8
      alignment: 8
    }
    name: "android::hardware::Parcel::ipcDataSize"
    access: private_access
    linker_set_key: "_ZNK7android8hardware6Parcel11ipcDataSizeEv"
  }
  mangled_function_name: "_ZNK7android8hardware6Parcel11ipcDataSizeEv"
  source_file: "/home/suhwa.kim/CONA_Proj/android/system/libhwbinder/include/hwbinder/Parcel.h"
}
functions {
  basic_abi {
    type_abi {
      name: "unsigned long"
      size: 8
      alignment: 8
    }
    name: "android::hardware::Parcel::ipcObjects"
    access: private_access
    linker_set_key: "_ZNK7android8hardware6Parcel10ipcObjectsEv"
  }
  mangled_function_name: "_ZNK7android8hardware6Parcel10ipcObjectsEv"
  source_file: "/home/suhwa.kim/CONA_Proj/android/system/libhwbinder/include/hwbinder/Parcel.h"
}
functions {
  basic_abi {
    type_abi {
      name: "unsigned long"
      size: 8
      alignment: 8
    }
    name: "android::hardware::Parcel::ipcObjectsCount"
    access: private_access
    linker_set_key: "_ZNK7android8hardware6Parcel15ipcObjectsCountEv"
  }
  mangled_function_name: "_ZNK7android8hardware6Parcel15ipcObjectsCountEv"
  source_file: "/home/suhwa.kim/CONA_Proj/android/system/libhwbinder/include/hwbinder/Parcel.h"
}
functions {
  basic_abi {
    type_abi {
      name: "unsigned long"
      size: 8
      alignment: 8
    }
    name: "android::hardware::Parcel::ipcBufferSize"
    access: private_access
    linker_set_key: "_ZNK7android8hardware6Parcel13ipcBufferSizeEv"
  }
  mangled_function_name: "_ZNK7android8hardware6Parcel13ipcBufferSizeEv"
  source_file: "/home/suhwa.kim/CONA_Proj/android/system/libhwbinder/include/hwbinder/Parcel.h"
}
functions {
  basic_abi {
    type_abi {
      name: "void"
    }
    name: "android::hardware::Parcel::ipcSetDataReference"
    access: private_access
    linker_set_key: "_ZN7android8hardware6Parcel19ipcSetDataReferenceEPKhmPKymPFvPS1_S3_mS5_mPvES7_"
  }
  mangled_function_name: "_ZN7android8hardware6Parcel19ipcSetDataReferenceEPKhmPKymPFvPS1_S3_mS5_mPvES7_"
  source_file: "/home/suhwa.kim/CONA_Proj/android/system/libhwbinder/include/hwbinder/Parcel.h"
  parameters {
    basic_abi {
      type_abi {
        name: "const unsigned char *"
        size: 8
        alignment: 8
      }
      name: "data"
      access: public_access
      linker_set_key: "false"
    }
    default_arg: false
  }
  parameters {
    basic_abi {
      type_abi {
        name: "unsigned long"
        size: 8
        alignment: 8
      }
      name: "dataSize"
      access: public_access
      linker_set_key: "false"
    }
    default_arg: false
  }
  parameters {
    basic_abi {
      type_abi {
        name: "const unsigned long long *"
        size: 8
        alignment: 8
      }
      name: "objects"
      access: public_access
      linker_set_key: "false"
    }
    default_arg: false
  }
  parameters {
    basic_abi {
      type_abi {
        name: "unsigned long"
        size: 8
        alignment: 8
      }
      name: "objectsCount"
      access: public_access
      linker_set_key: "false"
    }
    default_arg: false
  }
  parameters {
    basic_abi {
      type_abi {
        name: "void (*)(android::hardware::Parcel *, const unsigned char *, unsigned long, const unsigned long long *, unsigned long, void *)"
        size: 8
        alignment: 8
      }
      name: "relFunc"
      access: public_access
      linker_set_key: "false"
    }
    default_arg: false
  }
  parameters {
    basic_abi {
      type_abi {
        name: "void *"
        size: 8
        alignment: 8
      }
      name: "relCookie"
      access: public_access
      linker_set_key: "false"
    }
    default_arg: false
  }
}
functions {
  basic_abi {
    type_abi {
      name: "void"
    }
    name: "android::hardware::Parcel::print"
    access: public_access
    linker_set_key: "_ZNK7android8hardware6Parcel5printERNS0_10TextOutputEj"
  }
  mangled_function_name: "_ZNK7android8hardware6Parcel5printERNS0_10TextOutputEj"
  source_file: "/home/suhwa.kim/CONA_Proj/android/system/libhwbinder/include/hwbinder/Parcel.h"
  parameters {
    basic_abi {
      type_abi {
        name: "android::hardware::TextOutput &"
        size: 8
        alignment: 8
      }
      name: "to"
      access: public_access
      linker_set_key: "false"
    }
    default_arg: false
  }
  parameters {
    basic_abi {
      type_abi {
        name: "unsigned int"
        size: 4
        alignment: 4
      }
      name: "flags"
      access: public_access
      linker_set_key: "true"
    }
    default_arg: true
  }
}
functions {
  basic_abi {
    type_abi {
      name: "void"
    }
    name: "android::hardware::Parcel::Parcel"
    access: private_access
    linker_set_key: "_ZN7android8hardware6ParcelC1ERKS1_"
  }
  mangled_function_name: "_ZN7android8hardware6ParcelC1ERKS1_"
  source_file: "/home/suhwa.kim/CONA_Proj/android/system/libhwbinder/include/hwbinder/Parcel.h"
  parameters {
    basic_abi {
      type_abi {
        name: "const android::hardware::Parcel &"
        size: 8
        alignment: 8
      }
      name: "o"
      access: public_access
      linker_set_key: "false"
    }
    default_arg: false
  }
}
functions {
  basic_abi {
    type_abi {
      name: "android::hardware::Parcel &"
      size: 8
      alignment: 8
    }
    name: "android::hardware::Parcel::operator="
    access: private_access
    linker_set_key: "_ZN7android8hardware6ParcelaSERKS1_"
  }
  mangled_function_name: "_ZN7android8hardware6ParcelaSERKS1_"
  source_file: "/home/suhwa.kim/CONA_Proj/android/system/libhwbinder/include/hwbinder/Parcel.h"
  parameters {
    basic_abi {
      type_abi {
        name: "const android::hardware::Parcel &"
        size: 8
        alignment: 8
      }
      name: "o"
      access: public_access
      linker_set_key: "false"
    }
    default_arg: false
  }
}
functions {
  basic_abi {
    type_abi {
      name: "int"
      size: 4
      alignment: 4
    }
    name: "android::hardware::Parcel::finishWrite"
    access: private_access
    linker_set_key: "_ZN7android8hardware6Parcel11finishWriteEm"
  }
  mangled_function_name: "_ZN7android8hardware6Parcel11finishWriteEm"
  source_file: "/home/suhwa.kim/CONA_Proj/android/system/libhwbinder/include/hwbinder/Parcel.h"
  parameters {
    basic_abi {
      type_abi {
        name: "unsigned long"
        size: 8
        alignment: 8
      }
      name: "len"
      access: public_access
      linker_set_key: "false"
    }
    default_arg: false
  }
}
functions {
  basic_abi {
    type_abi {
      name: "void"
    }
    name: "android::hardware::Parcel::releaseObjects"
    access: private_access
    linker_set_key: "_ZN7android8hardware6Parcel14releaseObjectsEv"
  }
  mangled_function_name: "_ZN7android8hardware6Parcel14releaseObjectsEv"
  source_file: "/home/suhwa.kim/CONA_Proj/android/system/libhwbinder/include/hwbinder/Parcel.h"
}
functions {
  basic_abi {
    type_abi {
      name: "void"
    }
    name: "android::hardware::Parcel::acquireObjects"
    access: private_access
    linker_set_key: "_ZN7android8hardware6Parcel14acquireObjectsEv"
  }
  mangled_function_name: "_ZN7android8hardware6Parcel14acquireObjectsEv"
  source_file: "/home/suhwa.kim/CONA_Proj/android/system/libhwbinder/include/hwbinder/Parcel.h"
}
functions {
  basic_abi {
    type_abi {
      name: "int"
      size: 4
      alignment: 4
    }
    name: "android::hardware::Parcel::growData"
    access: private_access
    linker_set_key: "_ZN7android8hardware6Parcel8growDataEm"
  }
  mangled_function_name: "_ZN7android8hardware6Parcel8growDataEm"
  source_file: "/home/suhwa.kim/CONA_Proj/android/system/libhwbinder/include/hwbinder/Parcel.h"
  parameters {
    basic_abi {
      type_abi {
        name: "unsigned long"
        size: 8
        alignment: 8
      }
      name: "len"
      access: public_access
      linker_set_key: "false"
    }
    default_arg: false
  }
}
functions {
  basic_abi {
    type_abi {
      name: "int"
      size: 4
      alignment: 4
    }
    name: "android::hardware::Parcel::restartWrite"
    access: private_access
    linker_set_key: "_ZN7android8hardware6Parcel12restartWriteEm"
  }
  mangled_function_name: "_ZN7android8hardware6Parcel12restartWriteEm"
  source_file: "/home/suhwa.kim/CONA_Proj/android/system/libhwbinder/include/hwbinder/Parcel.h"
  parameters {
    basic_abi {
      type_abi {
        name: "unsigned long"
        size: 8
        alignment: 8
      }
      name: "desired"
      access: public_access
      linker_set_key: "false"
    }
    default_arg: false
  }
}
functions {
  basic_abi {
    type_abi {
      name: "int"
      size: 4
      alignment: 4
    }
    name: "android::hardware::Parcel::continueWrite"
    access: private_access
    linker_set_key: "_ZN7android8hardware6Parcel13continueWriteEm"
  }
  mangled_function_name: "_ZN7android8hardware6Parcel13continueWriteEm"
  source_file: "/home/suhwa.kim/CONA_Proj/android/system/libhwbinder/include/hwbinder/Parcel.h"
  parameters {
    basic_abi {
      type_abi {
        name: "unsigned long"
        size: 8
        alignment: 8
      }
      name: "desired"
      access: public_access
      linker_set_key: "false"
    }
    default_arg: false
  }
}
functions {
  basic_abi {
    type_abi {
      name: "int"
      size: 4
      alignment: 4
    }
    name: "android::hardware::Parcel::writePointer"
    access: private_access
    linker_set_key: "_ZN7android8hardware6Parcel12writePointerEm"
  }
  mangled_function_name: "_ZN7android8hardware6Parcel12writePointerEm"
  source_file: "/home/suhwa.kim/CONA_Proj/android/system/libhwbinder/include/hwbinder/Parcel.h"
  parameters {
    basic_abi {
      type_abi {
        name: "unsigned long"
        size: 8
        alignment: 8
      }
      name: "val"
      access: public_access
      linker_set_key: "false"
    }
    default_arg: false
  }
}
functions {
  basic_abi {
    type_abi {
      name: "int"
      size: 4
      alignment: 4
    }
    name: "android::hardware::Parcel::readPointer"
    access: private_access
    linker_set_key: "_ZNK7android8hardware6Parcel11readPointerEPm"
  }
  mangled_function_name: "_ZNK7android8hardware6Parcel11readPointerEPm"
  source_file: "/home/suhwa.kim/CONA_Proj/android/system/libhwbinder/include/hwbinder/Parcel.h"
  parameters {
    basic_abi {
      type_abi {
        name: "unsigned long *"
        size: 8
        alignment: 8
      }
      name: "pArg"
      access: public_access
      linker_set_key: "false"
    }
    default_arg: false
  }
}
functions {
  basic_abi {
    type_abi {
      name: "unsigned long"
      size: 8
      alignment: 8
    }
    name: "android::hardware::Parcel::readPointer"
    access: private_access
    linker_set_key: "_ZNK7android8hardware6Parcel11readPointerEv"
  }
  mangled_function_name: "_ZNK7android8hardware6Parcel11readPointerEv"
  source_file: "/home/suhwa.kim/CONA_Proj/android/system/libhwbinder/include/hwbinder/Parcel.h"
}
functions {
  basic_abi {
    type_abi {
      name: "void"
    }
    name: "android::hardware::Parcel::freeDataNoInit"
    access: private_access
    linker_set_key: "_ZN7android8hardware6Parcel14freeDataNoInitEv"
  }
  mangled_function_name: "_ZN7android8hardware6Parcel14freeDataNoInitEv"
  source_file: "/home/suhwa.kim/CONA_Proj/android/system/libhwbinder/include/hwbinder/Parcel.h"
}
functions {
  basic_abi {
    type_abi {
      name: "void"
    }
    name: "android::hardware::Parcel::initState"
    access: private_access
    linker_set_key: "_ZN7android8hardware6Parcel9initStateEv"
  }
  mangled_function_name: "_ZN7android8hardware6Parcel9initStateEv"
  source_file: "/home/suhwa.kim/CONA_Proj/android/system/libhwbinder/include/hwbinder/Parcel.h"
}
functions {
  basic_abi {
    type_abi {
      name: "void"
    }
    name: "android::hardware::Parcel::scanForFds"
    access: private_access
    linker_set_key: "_ZNK7android8hardware6Parcel10scanForFdsEv"
  }
  mangled_function_name: "_ZNK7android8hardware6Parcel10scanForFdsEv"
  source_file: "/home/suhwa.kim/CONA_Proj/android/system/libhwbinder/include/hwbinder/Parcel.h"
}
functions {
  basic_abi {
    type_abi {
      name: "int"
      size: 4
      alignment: 4
    }
    name: "android::hardware::Parcel::readAligned"
    access: private_access
    linker_set_key: "_ZNK7android8hardware6Parcel11readAlignedEPT_"
  }
  mangled_function_name: "_ZNK7android8hardware6Parcel11readAlignedEPT_"
  source_file: "/home/suhwa.kim/CONA_Proj/android/system/libhwbinder/include/hwbinder/Parcel.h"
  parameters {
    basic_abi {
      type_abi {
        name: "type-parameter-0-0 *"
      }
      name: "pArg"
      access: public_access
      linker_set_key: "false"
    }
    default_arg: false
  }
  template_info {
    elements {
      basic_abi {
        name: "T"
        linker_set_key: "T"
      }
    }
  }
}
functions {
  basic_abi {
    type_abi {
      name: "type-parameter-0-0"
    }
    name: "android::hardware::Parcel::readAligned"
    access: private_access
    linker_set_key: "_ZNK7android8hardware6Parcel11readAlignedEv"
  }
  mangled_function_name: "_ZNK7android8hardware6Parcel11readAlignedEv"
  source_file: "/home/suhwa.kim/CONA_Proj/android/system/libhwbinder/include/hwbinder/Parcel.h"
  template_info {
    elements {
      basic_abi {
        name: "T"
        linker_set_key: "T"
      }
    }
  }
}
functions {
  basic_abi {
    type_abi {
      name: "int"
      size: 4
      alignment: 4
    }
    name: "android::hardware::Parcel::writeAligned"
    access: private_access
    linker_set_key: "_ZN7android8hardware6Parcel12writeAlignedET_"
  }
  mangled_function_name: "_ZN7android8hardware6Parcel12writeAlignedET_"
  source_file: "/home/suhwa.kim/CONA_Proj/android/system/libhwbinder/include/hwbinder/Parcel.h"
  parameters {
    basic_abi {
      type_abi {
        name: "type-parameter-0-0"
      }
      name: "val"
      access: public_access
      linker_set_key: "false"
    }
    default_arg: false
  }
  template_info {
    elements {
      basic_abi {
        name: "T"
        linker_set_key: "T"
      }
    }
  }
}
functions {
  basic_abi {
    type_abi {
      name: "android::hardware::TextOutput &"
      size: 8
      alignment: 8
    }
    name: "android::hardware::operator<<"
    access: public_access
    linker_set_key: "_ZN7android8hardwarelsERNS0_10TextOutputERKNS0_6ParcelE"
  }
  mangled_function_name: "_ZN7android8hardwarelsERNS0_10TextOutputERKNS0_6ParcelE"
  source_file: "/home/suhwa.kim/CONA_Proj/android/system/libhwbinder/include/hwbinder/Parcel.h"
  parameters {
    basic_abi {
      type_abi {
        name: "android::hardware::TextOutput &"
        size: 8
        alignment: 8
      }
      name: "to"
      access: public_access
      linker_set_key: "false"
    }
    default_arg: false
  }
  parameters {
    basic_abi {
      type_abi {
        name: "const android::hardware::Parcel &"
        size: 8
        alignment: 8
      }
      name: "parcel"
      access: public_access
      linker_set_key: "false"
    }
    default_arg: false
  }
}
functions {
  basic_abi {
    type_abi {
      name: "void"
    }
    name: "android::hardware::acquire_object"
    access: public_access
    linker_set_key: "_ZN7android8hardware14acquire_objectERKNS_2spINS0_12ProcessStateEEERK18flat_binder_objectPKv"
  }
  mangled_function_name: "_ZN7android8hardware14acquire_objectERKNS_2spINS0_12ProcessStateEEERK18flat_binder_objectPKv"
  source_file: "/home/suhwa.kim/CONA_Proj/android/system/libhwbinder/include/hwbinder/Parcel.h"
  parameters {
    basic_abi {
      type_abi {
        name: "const android::sp<android::hardware::ProcessState> &"
        size: 8
        alignment: 8
      }
      name: "proc"
      access: public_access
      linker_set_key: "false"
    }
    default_arg: false
  }
  parameters {
    basic_abi {
      type_abi {
        name: "const flat_binder_object &"
        size: 8
        alignment: 8
      }
      name: "obj"
      access: public_access
      linker_set_key: "false"
    }
    default_arg: false
  }
  parameters {
    basic_abi {
      type_abi {
        name: "const void *"
        size: 8
        alignment: 8
      }
      name: "who"
      access: public_access
      linker_set_key: "false"
    }
    default_arg: false
  }
}
functions {
  basic_abi {
    type_abi {
      name: "void"
    }
    name: "android::hardware::release_object"
    access: public_access
    linker_set_key: "_ZN7android8hardware14release_objectERKNS_2spINS0_12ProcessStateEEERK18flat_binder_objectPKv"
  }
  mangled_function_name: "_ZN7android8hardware14release_objectERKNS_2spINS0_12ProcessStateEEERK18flat_binder_objectPKv"
  source_file: "/home/suhwa.kim/CONA_Proj/android/system/libhwbinder/include/hwbinder/Parcel.h"
  parameters {
    basic_abi {
      type_abi {
        name: "const android::sp<android::hardware::ProcessState> &"
        size: 8
        alignment: 8
      }
      name: "proc"
      access: public_access
      linker_set_key: "false"
    }
    default_arg: false
  }
  parameters {
    basic_abi {
      type_abi {
        name: "const flat_binder_object &"
        size: 8
        alignment: 8
      }
      name: "obj"
      access: public_access
      linker_set_key: "false"
    }
    default_arg: false
  }
  parameters {
    basic_abi {
      type_abi {
        name: "const void *"
        size: 8
        alignment: 8
      }
      name: "who"
      access: public_access
      linker_set_key: "false"
    }
    default_arg: false
  }
}
functions {
  basic_abi {
    type_abi {
      name: "void"
    }
    name: "android::hardware::flatten_binder"
    access: public_access
    linker_set_key: "_ZN7android8hardware14flatten_binderERKNS_2spINS0_12ProcessStateEEERKNS1_INS0_7IBinderEEEP18flat_binder_object"
  }
  mangled_function_name: "_ZN7android8hardware14flatten_binderERKNS_2spINS0_12ProcessStateEEERKNS1_INS0_7IBinderEEEP18flat_binder_object"
  source_file: "/home/suhwa.kim/CONA_Proj/android/system/libhwbinder/include/hwbinder/Parcel.h"
  parameters {
    basic_abi {
      type_abi {
        name: "const android::sp<android::hardware::ProcessState> &"
        size: 8
        alignment: 8
      }
      name: "proc"
      access: public_access
      linker_set_key: "false"
    }
    default_arg: false
  }
  parameters {
    basic_abi {
      type_abi {
        name: "const android::sp<android::hardware::IBinder> &"
        size: 8
        alignment: 8
      }
      name: "binder"
      access: public_access
      linker_set_key: "false"
    }
    default_arg: false
  }
  parameters {
    basic_abi {
      type_abi {
        name: "flat_binder_object *"
        size: 8
        alignment: 8
      }
      name: "out"
      access: public_access
      linker_set_key: "false"
    }
    default_arg: false
  }
}
functions {
  basic_abi {
    type_abi {
      name: "void"
    }
    name: "android::hardware::flatten_binder"
    access: public_access
    linker_set_key: "_ZN7android8hardware14flatten_binderERKNS_2spINS0_12ProcessStateEEERKNS_2wpINS0_7IBinderEEEP18flat_binder_object"
  }
  mangled_function_name: "_ZN7android8hardware14flatten_binderERKNS_2spINS0_12ProcessStateEEERKNS_2wpINS0_7IBinderEEEP18flat_binder_object"
  source_file: "/home/suhwa.kim/CONA_Proj/android/system/libhwbinder/include/hwbinder/Parcel.h"
  parameters {
    basic_abi {
      type_abi {
        name: "const android::sp<android::hardware::ProcessState> &"
        size: 8
        alignment: 8
      }
      name: "proc"
      access: public_access
      linker_set_key: "false"
    }
    default_arg: false
  }
  parameters {
    basic_abi {
      type_abi {
        name: "const android::wp<android::hardware::IBinder> &"
        size: 8
        alignment: 8
      }
      name: "binder"
      access: public_access
      linker_set_key: "false"
    }
    default_arg: false
  }
  parameters {
    basic_abi {
      type_abi {
        name: "flat_binder_object *"
        size: 8
        alignment: 8
      }
      name: "out"
      access: public_access
      linker_set_key: "false"
    }
    default_arg: false
  }
}
functions {
  basic_abi {
    type_abi {
      name: "int"
      size: 4
      alignment: 4
    }
    name: "android::hardware::unflatten_binder"
    access: public_access
    linker_set_key: "_ZN7android8hardware16unflatten_binderERKNS_2spINS0_12ProcessStateEEERK18flat_binder_objectPNS1_INS0_7IBinderEEE"
  }
  mangled_function_name: "_ZN7android8hardware16unflatten_binderERKNS_2spINS0_12ProcessStateEEERK18flat_binder_objectPNS1_INS0_7IBinderEEE"
  source_file: "/home/suhwa.kim/CONA_Proj/android/system/libhwbinder/include/hwbinder/Parcel.h"
  parameters {
    basic_abi {
      type_abi {
        name: "const android::sp<android::hardware::ProcessState> &"
        size: 8
        alignment: 8
      }
      name: "proc"
      access: public_access
      linker_set_key: "false"
    }
    default_arg: false
  }
  parameters {
    basic_abi {
      type_abi {
        name: "const flat_binder_object &"
        size: 8
        alignment: 8
      }
      name: "flat"
      access: public_access
      linker_set_key: "false"
    }
    default_arg: false
  }
  parameters {
    basic_abi {
      type_abi {
        name: "android::sp<android::hardware::IBinder> *"
        size: 8
        alignment: 8
      }
      name: "out"
      access: public_access
      linker_set_key: "false"
    }
    default_arg: false
  }
}
functions {
  basic_abi {
    type_abi {
      name: "int"
      size: 4
      alignment: 4
    }
    name: "android::hardware::unflatten_binder"
    access: public_access
    linker_set_key: "_ZN7android8hardware16unflatten_binderERKNS_2spINS0_12ProcessStateEEERK18flat_binder_objectPNS_2wpINS0_7IBinderEEE"
  }
  mangled_function_name: "_ZN7android8hardware16unflatten_binderERKNS_2spINS0_12ProcessStateEEERK18flat_binder_objectPNS_2wpINS0_7IBinderEEE"
  source_file: "/home/suhwa.kim/CONA_Proj/android/system/libhwbinder/include/hwbinder/Parcel.h"
  parameters {
    basic_abi {
      type_abi {
        name: "const android::sp<android::hardware::ProcessState> &"
        size: 8
        alignment: 8
      }
      name: "proc"
      access: public_access
      linker_set_key: "false"
    }
    default_arg: false
  }
  parameters {
    basic_abi {
      type_abi {
        name: "const flat_binder_object &"
        size: 8
        alignment: 8
      }
      name: "flat"
      access: public_access
      linker_set_key: "false"
    }
    default_arg: false
  }
  parameters {
    basic_abi {
      type_abi {
        name: "android::wp<android::hardware::IBinder> *"
        size: 8
        alignment: 8
      }
      name: "out"
      access: public_access
      linker_set_key: "false"
    }
    default_arg: false
  }
}
functions {
  basic_abi {
    type_abi {
      name: "android::sp<android::hardware::ProcessState>"
      size: 8
      alignment: 8
    }
    name: "android::hardware::ProcessState::self"
    access: public_access
    linker_set_key: "_ZN7android8hardware12ProcessState4selfEv"
  }
  mangled_function_name: "_ZN7android8hardware12ProcessState4selfEv"
  source_file: "/home/suhwa.kim/CONA_Proj/android/system/libhwbinder/include/hwbinder/ProcessState.h"
}
functions {
  basic_abi {
    type_abi {
      name: "void"
    }
    name: "android::hardware::ProcessState::setContextObject"
    access: public_access
    linker_set_key: "_ZN7android8hardware12ProcessState16setContextObjectERKNS_2spINS0_7IBinderEEE"
  }
  mangled_function_name: "_ZN7android8hardware12ProcessState16setContextObjectERKNS_2spINS0_7IBinderEEE"
  source_file: "/home/suhwa.kim/CONA_Proj/android/system/libhwbinder/include/hwbinder/ProcessState.h"
  parameters {
    basic_abi {
      type_abi {
        name: "const android::sp<android::hardware::IBinder> &"
        size: 8
        alignment: 8
      }
      name: "object"
      access: public_access
      linker_set_key: "false"
    }
    default_arg: false
  }
}
functions {
  basic_abi {
    type_abi {
      name: "android::sp<android::hardware::IBinder>"
      size: 8
      alignment: 8
    }
    name: "android::hardware::ProcessState::getContextObject"
    access: public_access
    linker_set_key: "_ZN7android8hardware12ProcessState16getContextObjectERKNS_2spINS0_7IBinderEEE"
  }
  mangled_function_name: "_ZN7android8hardware12ProcessState16getContextObjectERKNS_2spINS0_7IBinderEEE"
  source_file: "/home/suhwa.kim/CONA_Proj/android/system/libhwbinder/include/hwbinder/ProcessState.h"
  parameters {
    basic_abi {
      type_abi {
        name: "const android::sp<android::hardware::IBinder> &"
        size: 8
        alignment: 8
      }
      name: "caller"
      access: public_access
      linker_set_key: "false"
    }
    default_arg: false
  }
}
functions {
  basic_abi {
    type_abi {
      name: "void"
    }
    name: "android::hardware::ProcessState::setContextObject"
    access: public_access
    linker_set_key: "_ZN7android8hardware12ProcessState16setContextObjectERKNS_2spINS0_7IBinderEEERKNS_8String16E"
  }
  mangled_function_name: "_ZN7android8hardware12ProcessState16setContextObjectERKNS_2spINS0_7IBinderEEERKNS_8String16E"
  source_file: "/home/suhwa.kim/CONA_Proj/android/system/libhwbinder/include/hwbinder/ProcessState.h"
  parameters {
    basic_abi {
      type_abi {
        name: "const android::sp<android::hardware::IBinder> &"
        size: 8
        alignment: 8
      }
      name: "object"
      access: public_access
      linker_set_key: "false"
    }
    default_arg: false
  }
  parameters {
    basic_abi {
      type_abi {
        name: "const android::String16 &"
        size: 8
        alignment: 8
      }
      name: "name"
      access: public_access
      linker_set_key: "false"
    }
    default_arg: false
  }
}
functions {
  basic_abi {
    type_abi {
      name: "android::sp<android::hardware::IBinder>"
      size: 8
      alignment: 8
    }
    name: "android::hardware::ProcessState::getContextObject"
    access: public_access
    linker_set_key: "_ZN7android8hardware12ProcessState16getContextObjectERKNS_8String16ERKNS_2spINS0_7IBinderEEE"
  }
  mangled_function_name: "_ZN7android8hardware12ProcessState16getContextObjectERKNS_8String16ERKNS_2spINS0_7IBinderEEE"
  source_file: "/home/suhwa.kim/CONA_Proj/android/system/libhwbinder/include/hwbinder/ProcessState.h"
  parameters {
    basic_abi {
      type_abi {
        name: "const android::String16 &"
        size: 8
        alignment: 8
      }
      name: "name"
      access: public_access
      linker_set_key: "false"
    }
    default_arg: false
  }
  parameters {
    basic_abi {
      type_abi {
        name: "const android::sp<android::hardware::IBinder> &"
        size: 8
        alignment: 8
      }
      name: "caller"
      access: public_access
      linker_set_key: "false"
    }
    default_arg: false
  }
}
functions {
  basic_abi {
    type_abi {
      name: "void"
    }
    name: "android::hardware::ProcessState::startThreadPool"
    access: public_access
    linker_set_key: "_ZN7android8hardware12ProcessState15startThreadPoolEv"
  }
  mangled_function_name: "_ZN7android8hardware12ProcessState15startThreadPoolEv"
  source_file: "/home/suhwa.kim/CONA_Proj/android/system/libhwbinder/include/hwbinder/ProcessState.h"
}
functions {
  basic_abi {
    type_abi {
      name: "bool"
      size: 1
      alignment: 1
    }
    name: "android::hardware::ProcessState::isContextManager"
    access: public_access
    linker_set_key: "_ZNK7android8hardware12ProcessState16isContextManagerEv"
  }
  mangled_function_name: "_ZNK7android8hardware12ProcessState16isContextManagerEv"
  source_file: "/home/suhwa.kim/CONA_Proj/android/system/libhwbinder/include/hwbinder/ProcessState.h"
}
functions {
  basic_abi {
    type_abi {
      name: "bool"
      size: 1
      alignment: 1
    }
    name: "android::hardware::ProcessState::becomeContextManager"
    access: public_access
    linker_set_key: "_ZN7android8hardware12ProcessState20becomeContextManagerEPFbRKNS_8String16ERKNS_2spINS0_7IBinderEEEPvESA_"
  }
  mangled_function_name: "_ZN7android8hardware12ProcessState20becomeContextManagerEPFbRKNS_8String16ERKNS_2spINS0_7IBinderEEEPvESA_"
  source_file: "/home/suhwa.kim/CONA_Proj/android/system/libhwbinder/include/hwbinder/ProcessState.h"
  parameters {
    basic_abi {
      type_abi {
        name: "bool (*)(const android::String16 &, const android::sp<android::hardware::IBinder> &, void *)"
        size: 8
        alignment: 8
      }
      name: "checkFunc"
      access: public_access
      linker_set_key: "false"
    }
    default_arg: false
  }
  parameters {
    basic_abi {
      type_abi {
        name: "void *"
        size: 8
        alignment: 8
      }
      name: "userData"
      access: public_access
      linker_set_key: "false"
    }
    default_arg: false
  }
}
functions {
  basic_abi {
    type_abi {
      name: "android::sp<android::hardware::IBinder>"
      size: 8
      alignment: 8
    }
    name: "android::hardware::ProcessState::getStrongProxyForHandle"
    access: public_access
    linker_set_key: "_ZN7android8hardware12ProcessState23getStrongProxyForHandleEi"
  }
  mangled_function_name: "_ZN7android8hardware12ProcessState23getStrongProxyForHandleEi"
  source_file: "/home/suhwa.kim/CONA_Proj/android/system/libhwbinder/include/hwbinder/ProcessState.h"
  parameters {
    basic_abi {
      type_abi {
        name: "int"
        size: 4
        alignment: 4
      }
      name: "handle"
      access: public_access
      linker_set_key: "false"
    }
    default_arg: false
  }
}
functions {
  basic_abi {
    type_abi {
      name: "android::wp<android::hardware::IBinder>"
    }
    name: "android::hardware::ProcessState::getWeakProxyForHandle"
    access: public_access
    linker_set_key: "_ZN7android8hardware12ProcessState21getWeakProxyForHandleEi"
  }
  mangled_function_name: "_ZN7android8hardware12ProcessState21getWeakProxyForHandleEi"
  source_file: "/home/suhwa.kim/CONA_Proj/android/system/libhwbinder/include/hwbinder/ProcessState.h"
  parameters {
    basic_abi {
      type_abi {
        name: "int"
        size: 4
        alignment: 4
      }
      name: "handle"
      access: public_access
      linker_set_key: "false"
    }
    default_arg: false
  }
}
functions {
  basic_abi {
    type_abi {
      name: "void"
    }
    name: "android::hardware::ProcessState::expungeHandle"
    access: public_access
    linker_set_key: "_ZN7android8hardware12ProcessState13expungeHandleEiPNS0_7IBinderE"
  }
  mangled_function_name: "_ZN7android8hardware12ProcessState13expungeHandleEiPNS0_7IBinderE"
  source_file: "/home/suhwa.kim/CONA_Proj/android/system/libhwbinder/include/hwbinder/ProcessState.h"
  parameters {
    basic_abi {
      type_abi {
        name: "int"
        size: 4
        alignment: 4
      }
      name: "handle"
      access: public_access
      linker_set_key: "false"
    }
    default_arg: false
  }
  parameters {
    basic_abi {
      type_abi {
        name: "android::hardware::IBinder *"
        size: 8
        alignment: 8
      }
      name: "binder"
      access: public_access
      linker_set_key: "false"
    }
    default_arg: false
  }
}
functions {
  basic_abi {
    type_abi {
      name: "void"
    }
    name: "android::hardware::ProcessState::spawnPooledThread"
    access: public_access
    linker_set_key: "_ZN7android8hardware12ProcessState17spawnPooledThreadEb"
  }
  mangled_function_name: "_ZN7android8hardware12ProcessState17spawnPooledThreadEb"
  source_file: "/home/suhwa.kim/CONA_Proj/android/system/libhwbinder/include/hwbinder/ProcessState.h"
  parameters {
    basic_abi {
      type_abi {
        name: "bool"
        size: 1
        alignment: 1
      }
      name: "isMain"
      access: public_access
      linker_set_key: "false"
    }
    default_arg: false
  }
}
functions {
  basic_abi {
    type_abi {
      name: "int"
      size: 4
      alignment: 4
    }
    name: "android::hardware::ProcessState::setThreadPoolConfiguration"
    access: public_access
    linker_set_key: "_ZN7android8hardware12ProcessState26setThreadPoolConfigurationEmb"
  }
  mangled_function_name: "_ZN7android8hardware12ProcessState26setThreadPoolConfigurationEmb"
  source_file: "/home/suhwa.kim/CONA_Proj/android/system/libhwbinder/include/hwbinder/ProcessState.h"
  parameters {
    basic_abi {
      type_abi {
        name: "unsigned long"
        size: 8
        alignment: 8
      }
      name: "maxThreads"
      access: public_access
      linker_set_key: "false"
    }
    default_arg: false
  }
  parameters {
    basic_abi {
      type_abi {
        name: "bool"
        size: 1
        alignment: 1
      }
      name: "callerJoinsPool"
      access: public_access
      linker_set_key: "false"
    }
    default_arg: false
  }
}
functions {
  basic_abi {
    type_abi {
      name: "void"
    }
    name: "android::hardware::ProcessState::giveThreadPoolName"
    access: public_access
    linker_set_key: "_ZN7android8hardware12ProcessState18giveThreadPoolNameEv"
  }
  mangled_function_name: "_ZN7android8hardware12ProcessState18giveThreadPoolNameEv"
  source_file: "/home/suhwa.kim/CONA_Proj/android/system/libhwbinder/include/hwbinder/ProcessState.h"
}
functions {
  basic_abi {
    type_abi {
      name: "void"
    }
    name: "android::hardware::ProcessState::ProcessState"
    access: private_access
    linker_set_key: "_ZN7android8hardware12ProcessStateC1Ev"
  }
  mangled_function_name: "_ZN7android8hardware12ProcessStateC1Ev"
  source_file: "/home/suhwa.kim/CONA_Proj/android/system/libhwbinder/include/hwbinder/ProcessState.h"
}
functions {
  basic_abi {
    type_abi {
      name: "void"
    }
    name: "android::hardware::ProcessState::~ProcessState"
    access: private_access
    linker_set_key: "_ZN7android8hardware12ProcessStateD0Ev"
  }
  mangled_function_name: "_ZN7android8hardware12ProcessStateD0Ev"
  source_file: "/home/suhwa.kim/CONA_Proj/android/system/libhwbinder/include/hwbinder/ProcessState.h"
}
functions {
  basic_abi {
    type_abi {
      name: "void"
    }
    name: "android::hardware::ProcessState::ProcessState"
    access: private_access
    linker_set_key: "_ZN7android8hardware12ProcessStateC1ERKS1_"
  }
  mangled_function_name: "_ZN7android8hardware12ProcessStateC1ERKS1_"
  source_file: "/home/suhwa.kim/CONA_Proj/android/system/libhwbinder/include/hwbinder/ProcessState.h"
  parameters {
    basic_abi {
      type_abi {
        name: "const android::hardware::ProcessState &"
        size: 8
        alignment: 8
      }
      name: "o"
      access: public_access
      linker_set_key: "false"
    }
    default_arg: false
  }
}
functions {
  basic_abi {
    type_abi {
      name: "android::hardware::ProcessState &"
      size: 8
      alignment: 8
    }
    name: "android::hardware::ProcessState::operator="
    access: private_access
    linker_set_key: "_ZN7android8hardware12ProcessStateaSERKS1_"
  }
  mangled_function_name: "_ZN7android8hardware12ProcessStateaSERKS1_"
  source_file: "/home/suhwa.kim/CONA_Proj/android/system/libhwbinder/include/hwbinder/ProcessState.h"
  parameters {
    basic_abi {
      type_abi {
        name: "const android::hardware::ProcessState &"
        size: 8
        alignment: 8
      }
      name: "o"
      access: public_access
      linker_set_key: "false"
    }
    default_arg: false
  }
}
functions {
  basic_abi {
    type_abi {
      name: "android::String8"
      size: 8
      alignment: 8
    }
    name: "android::hardware::ProcessState::makeBinderThreadName"
    access: private_access
    linker_set_key: "_ZN7android8hardware12ProcessState20makeBinderThreadNameEv"
  }
  mangled_function_name: "_ZN7android8hardware12ProcessState20makeBinderThreadNameEv"
  source_file: "/home/suhwa.kim/CONA_Proj/android/system/libhwbinder/include/hwbinder/ProcessState.h"
}
functions {
  basic_abi {
    type_abi {
      name: "android::hardware::ProcessState::handle_entry *"
      size: 8
      alignment: 8
    }
    name: "android::hardware::ProcessState::lookupHandleLocked"
    access: private_access
    linker_set_key: "_ZN7android8hardware12ProcessState18lookupHandleLockedEi"
  }
  mangled_function_name: "_ZN7android8hardware12ProcessState18lookupHandleLockedEi"
  source_file: "/home/suhwa.kim/CONA_Proj/android/system/libhwbinder/include/hwbinder/ProcessState.h"
  parameters {
    basic_abi {
      type_abi {
        name: "int"
        size: 4
        alignment: 4
      }
      name: "handle"
      access: public_access
      linker_set_key: "false"
    }
    default_arg: false
  }
}
functions {
  basic_abi {
    type_abi {
      name: "android::hardware::IPCThreadState *"
      size: 8
      alignment: 8
    }
    name: "android::hardware::IPCThreadState::self"
    access: public_access
    linker_set_key: "_ZN7android8hardware14IPCThreadState4selfEv"
  }
  mangled_function_name: "_ZN7android8hardware14IPCThreadState4selfEv"
  source_file: "/home/suhwa.kim/CONA_Proj/android/system/libhwbinder/include/hwbinder/IPCThreadState.h"
}
functions {
  basic_abi {
    type_abi {
      name: "android::hardware::IPCThreadState *"
      size: 8
      alignment: 8
    }
    name: "android::hardware::IPCThreadState::selfOrNull"
    access: public_access
    linker_set_key: "_ZN7android8hardware14IPCThreadState10selfOrNullEv"
  }
  mangled_function_name: "_ZN7android8hardware14IPCThreadState10selfOrNullEv"
  source_file: "/home/suhwa.kim/CONA_Proj/android/system/libhwbinder/include/hwbinder/IPCThreadState.h"
}
functions {
  basic_abi {
    type_abi {
      name: "android::sp<android::hardware::ProcessState>"
      size: 8
      alignment: 8
    }
    name: "android::hardware::IPCThreadState::process"
    access: public_access
    linker_set_key: "_ZN7android8hardware14IPCThreadState7processEv"
  }
  mangled_function_name: "_ZN7android8hardware14IPCThreadState7processEv"
  source_file: "/home/suhwa.kim/CONA_Proj/android/system/libhwbinder/include/hwbinder/IPCThreadState.h"
}
functions {
  basic_abi {
    type_abi {
      name: "int"
      size: 4
      alignment: 4
    }
    name: "android::hardware::IPCThreadState::clearLastError"
    access: public_access
    linker_set_key: "_ZN7android8hardware14IPCThreadState14clearLastErrorEv"
  }
  mangled_function_name: "_ZN7android8hardware14IPCThreadState14clearLastErrorEv"
  source_file: "/home/suhwa.kim/CONA_Proj/android/system/libhwbinder/include/hwbinder/IPCThreadState.h"
}
functions {
  basic_abi {
    type_abi {
      name: "int"
      size: 4
      alignment: 4
    }
    name: "android::hardware::IPCThreadState::getCallingPid"
    access: public_access
    linker_set_key: "_ZNK7android8hardware14IPCThreadState13getCallingPidEv"
  }
  mangled_function_name: "_ZNK7android8hardware14IPCThreadState13getCallingPidEv"
  source_file: "/home/suhwa.kim/CONA_Proj/android/system/libhwbinder/include/hwbinder/IPCThreadState.h"
}
functions {
  basic_abi {
    type_abi {
      name: "unsigned int"
      size: 4
      alignment: 4
    }
    name: "android::hardware::IPCThreadState::getCallingUid"
    access: public_access
    linker_set_key: "_ZNK7android8hardware14IPCThreadState13getCallingUidEv"
  }
  mangled_function_name: "_ZNK7android8hardware14IPCThreadState13getCallingUidEv"
  source_file: "/home/suhwa.kim/CONA_Proj/android/system/libhwbinder/include/hwbinder/IPCThreadState.h"
}
functions {
  basic_abi {
    type_abi {
      name: "void"
    }
    name: "android::hardware::IPCThreadState::setStrictModePolicy"
    access: public_access
    linker_set_key: "_ZN7android8hardware14IPCThreadState19setStrictModePolicyEi"
  }
  mangled_function_name: "_ZN7android8hardware14IPCThreadState19setStrictModePolicyEi"
  source_file: "/home/suhwa.kim/CONA_Proj/android/system/libhwbinder/include/hwbinder/IPCThreadState.h"
  parameters {
    basic_abi {
      type_abi {
        name: "int"
        size: 4
        alignment: 4
      }
      name: "policy"
      access: public_access
      linker_set_key: "false"
    }
    default_arg: false
  }
}
functions {
  basic_abi {
    type_abi {
      name: "int"
      size: 4
      alignment: 4
    }
    name: "android::hardware::IPCThreadState::getStrictModePolicy"
    access: public_access
    linker_set_key: "_ZNK7android8hardware14IPCThreadState19getStrictModePolicyEv"
  }
  mangled_function_name: "_ZNK7android8hardware14IPCThreadState19getStrictModePolicyEv"
  source_file: "/home/suhwa.kim/CONA_Proj/android/system/libhwbinder/include/hwbinder/IPCThreadState.h"
}
functions {
  basic_abi {
    type_abi {
      name: "void"
    }
    name: "android::hardware::IPCThreadState::setLastTransactionBinderFlags"
    access: public_access
    linker_set_key: "_ZN7android8hardware14IPCThreadState29setLastTransactionBinderFlagsEi"
  }
  mangled_function_name: "_ZN7android8hardware14IPCThreadState29setLastTransactionBinderFlagsEi"
  source_file: "/home/suhwa.kim/CONA_Proj/android/system/libhwbinder/include/hwbinder/IPCThreadState.h"
  parameters {
    basic_abi {
      type_abi {
        name: "int"
        size: 4
        alignment: 4
      }
      name: "flags"
      access: public_access
      linker_set_key: "false"
    }
    default_arg: false
  }
}
functions {
  basic_abi {
    type_abi {
      name: "int"
      size: 4
      alignment: 4
    }
    name: "android::hardware::IPCThreadState::getLastTransactionBinderFlags"
    access: public_access
    linker_set_key: "_ZNK7android8hardware14IPCThreadState29getLastTransactionBinderFlagsEv"
  }
  mangled_function_name: "_ZNK7android8hardware14IPCThreadState29getLastTransactionBinderFlagsEv"
  source_file: "/home/suhwa.kim/CONA_Proj/android/system/libhwbinder/include/hwbinder/IPCThreadState.h"
}
functions {
  basic_abi {
    type_abi {
      name: "long"
      size: 8
      alignment: 8
    }
    name: "android::hardware::IPCThreadState::clearCallingIdentity"
    access: public_access
    linker_set_key: "_ZN7android8hardware14IPCThreadState20clearCallingIdentityEv"
  }
  mangled_function_name: "_ZN7android8hardware14IPCThreadState20clearCallingIdentityEv"
  source_file: "/home/suhwa.kim/CONA_Proj/android/system/libhwbinder/include/hwbinder/IPCThreadState.h"
}
functions {
  basic_abi {
    type_abi {
      name: "void"
    }
    name: "android::hardware::IPCThreadState::restoreCallingIdentity"
    access: public_access
    linker_set_key: "_ZN7android8hardware14IPCThreadState22restoreCallingIdentityEl"
  }
  mangled_function_name: "_ZN7android8hardware14IPCThreadState22restoreCallingIdentityEl"
  source_file: "/home/suhwa.kim/CONA_Proj/android/system/libhwbinder/include/hwbinder/IPCThreadState.h"
  parameters {
    basic_abi {
      type_abi {
        name: "long"
        size: 8
        alignment: 8
      }
      name: "token"
      access: public_access
      linker_set_key: "false"
    }
    default_arg: false
  }
}
functions {
  basic_abi {
    type_abi {
      name: "int"
      size: 4
      alignment: 4
    }
    name: "android::hardware::IPCThreadState::setupPolling"
    access: public_access
    linker_set_key: "_ZN7android8hardware14IPCThreadState12setupPollingEPi"
  }
  mangled_function_name: "_ZN7android8hardware14IPCThreadState12setupPollingEPi"
  source_file: "/home/suhwa.kim/CONA_Proj/android/system/libhwbinder/include/hwbinder/IPCThreadState.h"
  parameters {
    basic_abi {
      type_abi {
        name: "int *"
        size: 8
        alignment: 8
      }
      name: "fd"
      access: public_access
      linker_set_key: "false"
    }
    default_arg: false
  }
}
functions {
  basic_abi {
    type_abi {
      name: "int"
      size: 4
      alignment: 4
    }
    name: "android::hardware::IPCThreadState::handlePolledCommands"
    access: public_access
    linker_set_key: "_ZN7android8hardware14IPCThreadState20handlePolledCommandsEv"
  }
  mangled_function_name: "_ZN7android8hardware14IPCThreadState20handlePolledCommandsEv"
  source_file: "/home/suhwa.kim/CONA_Proj/android/system/libhwbinder/include/hwbinder/IPCThreadState.h"
}
functions {
  basic_abi {
    type_abi {
      name: "void"
    }
    name: "android::hardware::IPCThreadState::flushCommands"
    access: public_access
    linker_set_key: "_ZN7android8hardware14IPCThreadState13flushCommandsEv"
  }
  mangled_function_name: "_ZN7android8hardware14IPCThreadState13flushCommandsEv"
  source_file: "/home/suhwa.kim/CONA_Proj/android/system/libhwbinder/include/hwbinder/IPCThreadState.h"
}
functions {
  basic_abi {
    type_abi {
      name: "void"
    }
    name: "android::hardware::IPCThreadState::joinThreadPool"
    access: public_access
    linker_set_key: "_ZN7android8hardware14IPCThreadState14joinThreadPoolEb"
  }
  mangled_function_name: "_ZN7android8hardware14IPCThreadState14joinThreadPoolEb"
  source_file: "/home/suhwa.kim/CONA_Proj/android/system/libhwbinder/include/hwbinder/IPCThreadState.h"
  parameters {
    basic_abi {
      type_abi {
        name: "bool"
        size: 1
        alignment: 1
      }
      name: "isMain"
      access: public_access
      linker_set_key: "true"
    }
    default_arg: true
  }
}
functions {
  basic_abi {
    type_abi {
      name: "void"
    }
    name: "android::hardware::IPCThreadState::stopProcess"
    access: public_access
    linker_set_key: "_ZN7android8hardware14IPCThreadState11stopProcessEb"
  }
  mangled_function_name: "_ZN7android8hardware14IPCThreadState11stopProcessEb"
  source_file: "/home/suhwa.kim/CONA_Proj/android/system/libhwbinder/include/hwbinder/IPCThreadState.h"
  parameters {
    basic_abi {
      type_abi {
        name: "bool"
        size: 1
        alignment: 1
      }
      name: "immediate"
      access: public_access
      linker_set_key: "true"
    }
    default_arg: true
  }
}
functions {
  basic_abi {
    type_abi {
      name: "int"
      size: 4
      alignment: 4
    }
    name: "android::hardware::IPCThreadState::transact"
    access: public_access
    linker_set_key: "_ZN7android8hardware14IPCThreadState8transactEijRKNS0_6ParcelEPS2_j"
  }
  mangled_function_name: "_ZN7android8hardware14IPCThreadState8transactEijRKNS0_6ParcelEPS2_j"
  source_file: "/home/suhwa.kim/CONA_Proj/android/system/libhwbinder/include/hwbinder/IPCThreadState.h"
  parameters {
    basic_abi {
      type_abi {
        name: "int"
        size: 4
        alignment: 4
      }
      name: "handle"
      access: public_access
      linker_set_key: "false"
    }
    default_arg: false
  }
  parameters {
    basic_abi {
      type_abi {
        name: "unsigned int"
        size: 4
        alignment: 4
      }
      name: "code"
      access: public_access
      linker_set_key: "false"
    }
    default_arg: false
  }
  parameters {
    basic_abi {
      type_abi {
        name: "const android::hardware::Parcel &"
        size: 8
        alignment: 8
      }
      name: "data"
      access: public_access
      linker_set_key: "false"
    }
    default_arg: false
  }
  parameters {
    basic_abi {
      type_abi {
        name: "android::hardware::Parcel *"
        size: 8
        alignment: 8
      }
      name: "reply"
      access: public_access
      linker_set_key: "false"
    }
    default_arg: false
  }
  parameters {
    basic_abi {
      type_abi {
        name: "unsigned int"
        size: 4
        alignment: 4
      }
      name: "flags"
      access: public_access
      linker_set_key: "false"
    }
    default_arg: false
  }
}
functions {
  basic_abi {
    type_abi {
      name: "void"
    }
    name: "android::hardware::IPCThreadState::incStrongHandle"
    access: public_access
    linker_set_key: "_ZN7android8hardware14IPCThreadState15incStrongHandleEi"
  }
  mangled_function_name: "_ZN7android8hardware14IPCThreadState15incStrongHandleEi"
  source_file: "/home/suhwa.kim/CONA_Proj/android/system/libhwbinder/include/hwbinder/IPCThreadState.h"
  parameters {
    basic_abi {
      type_abi {
        name: "int"
        size: 4
        alignment: 4
      }
      name: "handle"
      access: public_access
      linker_set_key: "false"
    }
    default_arg: false
  }
}
functions {
  basic_abi {
    type_abi {
      name: "void"
    }
    name: "android::hardware::IPCThreadState::decStrongHandle"
    access: public_access
    linker_set_key: "_ZN7android8hardware14IPCThreadState15decStrongHandleEi"
  }
  mangled_function_name: "_ZN7android8hardware14IPCThreadState15decStrongHandleEi"
  source_file: "/home/suhwa.kim/CONA_Proj/android/system/libhwbinder/include/hwbinder/IPCThreadState.h"
  parameters {
    basic_abi {
      type_abi {
        name: "int"
        size: 4
        alignment: 4
      }
      name: "handle"
      access: public_access
      linker_set_key: "false"
    }
    default_arg: false
  }
}
functions {
  basic_abi {
    type_abi {
      name: "void"
    }
    name: "android::hardware::IPCThreadState::incWeakHandle"
    access: public_access
    linker_set_key: "_ZN7android8hardware14IPCThreadState13incWeakHandleEi"
  }
  mangled_function_name: "_ZN7android8hardware14IPCThreadState13incWeakHandleEi"
  source_file: "/home/suhwa.kim/CONA_Proj/android/system/libhwbinder/include/hwbinder/IPCThreadState.h"
  parameters {
    basic_abi {
      type_abi {
        name: "int"
        size: 4
        alignment: 4
      }
      name: "handle"
      access: public_access
      linker_set_key: "false"
    }
    default_arg: false
  }
}
functions {
  basic_abi {
    type_abi {
      name: "void"
    }
    name: "android::hardware::IPCThreadState::decWeakHandle"
    access: public_access
    linker_set_key: "_ZN7android8hardware14IPCThreadState13decWeakHandleEi"
  }
  mangled_function_name: "_ZN7android8hardware14IPCThreadState13decWeakHandleEi"
  source_file: "/home/suhwa.kim/CONA_Proj/android/system/libhwbinder/include/hwbinder/IPCThreadState.h"
  parameters {
    basic_abi {
      type_abi {
        name: "int"
        size: 4
        alignment: 4
      }
      name: "handle"
      access: public_access
      linker_set_key: "false"
    }
    default_arg: false
  }
}
functions {
  basic_abi {
    type_abi {
      name: "int"
      size: 4
      alignment: 4
    }
    name: "android::hardware::IPCThreadState::attemptIncStrongHandle"
    access: public_access
    linker_set_key: "_ZN7android8hardware14IPCThreadState22attemptIncStrongHandleEi"
  }
  mangled_function_name: "_ZN7android8hardware14IPCThreadState22attemptIncStrongHandleEi"
  source_file: "/home/suhwa.kim/CONA_Proj/android/system/libhwbinder/include/hwbinder/IPCThreadState.h"
  parameters {
    basic_abi {
      type_abi {
        name: "int"
        size: 4
        alignment: 4
      }
      name: "handle"
      access: public_access
      linker_set_key: "false"
    }
    default_arg: false
  }
}
functions {
  basic_abi {
    type_abi {
      name: "void"
    }
    name: "android::hardware::IPCThreadState::expungeHandle"
    access: public_access
    linker_set_key: "_ZN7android8hardware14IPCThreadState13expungeHandleEiPNS0_7IBinderE"
  }
  mangled_function_name: "_ZN7android8hardware14IPCThreadState13expungeHandleEiPNS0_7IBinderE"
  source_file: "/home/suhwa.kim/CONA_Proj/android/system/libhwbinder/include/hwbinder/IPCThreadState.h"
  parameters {
    basic_abi {
      type_abi {
        name: "int"
        size: 4
        alignment: 4
      }
      name: "handle"
      access: public_access
      linker_set_key: "false"
    }
    default_arg: false
  }
  parameters {
    basic_abi {
      type_abi {
        name: "android::hardware::IBinder *"
        size: 8
        alignment: 8
      }
      name: "binder"
      access: public_access
      linker_set_key: "false"
    }
    default_arg: false
  }
}
functions {
  basic_abi {
    type_abi {
      name: "int"
      size: 4
      alignment: 4
    }
    name: "android::hardware::IPCThreadState::requestDeathNotification"
    access: public_access
    linker_set_key: "_ZN7android8hardware14IPCThreadState24requestDeathNotificationEiPNS0_10BpHwBinderE"
  }
  mangled_function_name: "_ZN7android8hardware14IPCThreadState24requestDeathNotificationEiPNS0_10BpHwBinderE"
  source_file: "/home/suhwa.kim/CONA_Proj/android/system/libhwbinder/include/hwbinder/IPCThreadState.h"
  parameters {
    basic_abi {
      type_abi {
        name: "int"
        size: 4
        alignment: 4
      }
      name: "handle"
      access: public_access
      linker_set_key: "false"
    }
    default_arg: false
  }
  parameters {
    basic_abi {
      type_abi {
        name: "android::hardware::BpHwBinder *"
        size: 8
        alignment: 8
      }
      name: "proxy"
      access: public_access
      linker_set_key: "false"
    }
    default_arg: false
  }
}
functions {
  basic_abi {
    type_abi {
      name: "int"
      size: 4
      alignment: 4
    }
    name: "android::hardware::IPCThreadState::clearDeathNotification"
    access: public_access
    linker_set_key: "_ZN7android8hardware14IPCThreadState22clearDeathNotificationEiPNS0_10BpHwBinderE"
  }
  mangled_function_name: "_ZN7android8hardware14IPCThreadState22clearDeathNotificationEiPNS0_10BpHwBinderE"
  source_file: "/home/suhwa.kim/CONA_Proj/android/system/libhwbinder/include/hwbinder/IPCThreadState.h"
  parameters {
    basic_abi {
      type_abi {
        name: "int"
        size: 4
        alignment: 4
      }
      name: "handle"
      access: public_access
      linker_set_key: "false"
    }
    default_arg: false
  }
  parameters {
    basic_abi {
      type_abi {
        name: "android::hardware::BpHwBinder *"
        size: 8
        alignment: 8
      }
      name: "proxy"
      access: public_access
      linker_set_key: "false"
    }
    default_arg: false
  }
}
functions {
  basic_abi {
    type_abi {
      name: "void"
    }
    name: "android::hardware::IPCThreadState::shutdown"
    access: public_access
    linker_set_key: "_ZN7android8hardware14IPCThreadState8shutdownEv"
  }
  mangled_function_name: "_ZN7android8hardware14IPCThreadState8shutdownEv"
  source_file: "/home/suhwa.kim/CONA_Proj/android/system/libhwbinder/include/hwbinder/IPCThreadState.h"
}
functions {
  basic_abi {
    type_abi {
      name: "void"
    }
    name: "android::hardware::IPCThreadState::disableBackgroundScheduling"
    access: public_access
    linker_set_key: "_ZN7android8hardware14IPCThreadState27disableBackgroundSchedulingEb"
  }
  mangled_function_name: "_ZN7android8hardware14IPCThreadState27disableBackgroundSchedulingEb"
  source_file: "/home/suhwa.kim/CONA_Proj/android/system/libhwbinder/include/hwbinder/IPCThreadState.h"
  parameters {
    basic_abi {
      type_abi {
        name: "bool"
        size: 1
        alignment: 1
      }
      name: "disable"
      access: public_access
      linker_set_key: "false"
    }
    default_arg: false
  }
}
functions {
  basic_abi {
    type_abi {
      name: "void"
    }
    name: "android::hardware::IPCThreadState::blockUntilThreadAvailable"
    access: public_access
    linker_set_key: "_ZN7android8hardware14IPCThreadState25blockUntilThreadAvailableEv"
  }
  mangled_function_name: "_ZN7android8hardware14IPCThreadState25blockUntilThreadAvailableEv"
  source_file: "/home/suhwa.kim/CONA_Proj/android/system/libhwbinder/include/hwbinder/IPCThreadState.h"
}
functions {
  basic_abi {
    type_abi {
      name: "void"
    }
    name: "android::hardware::IPCThreadState::setTheContextObject"
    access: public_access
    linker_set_key: "_ZN7android8hardware14IPCThreadState19setTheContextObjectENS_2spINS0_9BHwBinderEEE"
  }
  mangled_function_name: "_ZN7android8hardware14IPCThreadState19setTheContextObjectENS_2spINS0_9BHwBinderEEE"
  source_file: "/home/suhwa.kim/CONA_Proj/android/system/libhwbinder/include/hwbinder/IPCThreadState.h"
  parameters {
    basic_abi {
      type_abi {
        name: "android::sp<android::hardware::BHwBinder>"
        size: 8
        alignment: 8
      }
      name: "obj"
      access: public_access
      linker_set_key: "false"
    }
    default_arg: false
  }
}
functions {
  basic_abi {
    type_abi {
      name: "void"
    }
    name: "android::hardware::IPCThreadState::IPCThreadState"
    access: private_access
    linker_set_key: "_ZN7android8hardware14IPCThreadStateC1Ev"
  }
  mangled_function_name: "_ZN7android8hardware14IPCThreadStateC1Ev"
  source_file: "/home/suhwa.kim/CONA_Proj/android/system/libhwbinder/include/hwbinder/IPCThreadState.h"
}
functions {
  basic_abi {
    type_abi {
      name: "void"
    }
    name: "android::hardware::IPCThreadState::~IPCThreadState"
    access: private_access
    linker_set_key: "_ZN7android8hardware14IPCThreadStateD0Ev"
  }
  mangled_function_name: "_ZN7android8hardware14IPCThreadStateD0Ev"
  source_file: "/home/suhwa.kim/CONA_Proj/android/system/libhwbinder/include/hwbinder/IPCThreadState.h"
}
functions {
  basic_abi {
    type_abi {
      name: "int"
      size: 4
      alignment: 4
    }
    name: "android::hardware::IPCThreadState::sendReply"
    access: private_access
    linker_set_key: "_ZN7android8hardware14IPCThreadState9sendReplyERKNS0_6ParcelEj"
  }
  mangled_function_name: "_ZN7android8hardware14IPCThreadState9sendReplyERKNS0_6ParcelEj"
  source_file: "/home/suhwa.kim/CONA_Proj/android/system/libhwbinder/include/hwbinder/IPCThreadState.h"
  parameters {
    basic_abi {
      type_abi {
        name: "const android::hardware::Parcel &"
        size: 8
        alignment: 8
      }
      name: "reply"
      access: public_access
      linker_set_key: "false"
    }
    default_arg: false
  }
  parameters {
    basic_abi {
      type_abi {
        name: "unsigned int"
        size: 4
        alignment: 4
      }
      name: "flags"
      access: public_access
      linker_set_key: "false"
    }
    default_arg: false
  }
}
functions {
  basic_abi {
    type_abi {
      name: "int"
      size: 4
      alignment: 4
    }
    name: "android::hardware::IPCThreadState::waitForResponse"
    access: private_access
    linker_set_key: "_ZN7android8hardware14IPCThreadState15waitForResponseEPNS0_6ParcelEPi"
  }
  mangled_function_name: "_ZN7android8hardware14IPCThreadState15waitForResponseEPNS0_6ParcelEPi"
  source_file: "/home/suhwa.kim/CONA_Proj/android/system/libhwbinder/include/hwbinder/IPCThreadState.h"
  parameters {
    basic_abi {
      type_abi {
        name: "android::hardware::Parcel *"
        size: 8
        alignment: 8
      }
      name: "reply"
      access: public_access
      linker_set_key: "false"
    }
    default_arg: false
  }
  parameters {
    basic_abi {
      type_abi {
        name: "int *"
        size: 8
        alignment: 8
      }
      name: "acquireResult"
      access: public_access
      linker_set_key: "true"
    }
    default_arg: true
  }
}
functions {
  basic_abi {
    type_abi {
      name: "int"
      size: 4
      alignment: 4
    }
    name: "android::hardware::IPCThreadState::talkWithDriver"
    access: private_access
    linker_set_key: "_ZN7android8hardware14IPCThreadState14talkWithDriverEb"
  }
  mangled_function_name: "_ZN7android8hardware14IPCThreadState14talkWithDriverEb"
  source_file: "/home/suhwa.kim/CONA_Proj/android/system/libhwbinder/include/hwbinder/IPCThreadState.h"
  parameters {
    basic_abi {
      type_abi {
        name: "bool"
        size: 1
        alignment: 1
      }
      name: "doReceive"
      access: public_access
      linker_set_key: "true"
    }
    default_arg: true
  }
}
functions {
  basic_abi {
    type_abi {
      name: "int"
      size: 4
      alignment: 4
    }
    name: "android::hardware::IPCThreadState::writeTransactionData"
    access: private_access
    linker_set_key: "_ZN7android8hardware14IPCThreadState20writeTransactionDataEijijRKNS0_6ParcelEPi"
  }
  mangled_function_name: "_ZN7android8hardware14IPCThreadState20writeTransactionDataEijijRKNS0_6ParcelEPi"
  source_file: "/home/suhwa.kim/CONA_Proj/android/system/libhwbinder/include/hwbinder/IPCThreadState.h"
  parameters {
    basic_abi {
      type_abi {
        name: "int"
        size: 4
        alignment: 4
      }
      name: "cmd"
      access: public_access
      linker_set_key: "false"
    }
    default_arg: false
  }
  parameters {
    basic_abi {
      type_abi {
        name: "unsigned int"
        size: 4
        alignment: 4
      }
      name: "binderFlags"
      access: public_access
      linker_set_key: "false"
    }
    default_arg: false
  }
  parameters {
    basic_abi {
      type_abi {
        name: "int"
        size: 4
        alignment: 4
      }
      name: "handle"
      access: public_access
      linker_set_key: "false"
    }
    default_arg: false
  }
  parameters {
    basic_abi {
      type_abi {
        name: "unsigned int"
        size: 4
        alignment: 4
      }
      name: "code"
      access: public_access
      linker_set_key: "false"
    }
    default_arg: false
  }
  parameters {
    basic_abi {
      type_abi {
        name: "const android::hardware::Parcel &"
        size: 8
        alignment: 8
      }
      name: "data"
      access: public_access
      linker_set_key: "false"
    }
    default_arg: false
  }
  parameters {
    basic_abi {
      type_abi {
        name: "int *"
        size: 8
        alignment: 8
      }
      name: "statusBuffer"
      access: public_access
      linker_set_key: "false"
    }
    default_arg: false
  }
}
functions {
  basic_abi {
    type_abi {
      name: "int"
      size: 4
      alignment: 4
    }
    name: "android::hardware::IPCThreadState::getAndExecuteCommand"
    access: private_access
    linker_set_key: "_ZN7android8hardware14IPCThreadState20getAndExecuteCommandEv"
  }
  mangled_function_name: "_ZN7android8hardware14IPCThreadState20getAndExecuteCommandEv"
  source_file: "/home/suhwa.kim/CONA_Proj/android/system/libhwbinder/include/hwbinder/IPCThreadState.h"
}
functions {
  basic_abi {
    type_abi {
      name: "int"
      size: 4
      alignment: 4
    }
    name: "android::hardware::IPCThreadState::executeCommand"
    access: private_access
    linker_set_key: "_ZN7android8hardware14IPCThreadState14executeCommandEi"
  }
  mangled_function_name: "_ZN7android8hardware14IPCThreadState14executeCommandEi"
  source_file: "/home/suhwa.kim/CONA_Proj/android/system/libhwbinder/include/hwbinder/IPCThreadState.h"
  parameters {
    basic_abi {
      type_abi {
        name: "int"
        size: 4
        alignment: 4
      }
      name: "command"
      access: public_access
      linker_set_key: "false"
    }
    default_arg: false
  }
}
functions {
  basic_abi {
    type_abi {
      name: "void"
    }
    name: "android::hardware::IPCThreadState::processPendingDerefs"
    access: private_access
    linker_set_key: "_ZN7android8hardware14IPCThreadState20processPendingDerefsEv"
  }
  mangled_function_name: "_ZN7android8hardware14IPCThreadState20processPendingDerefsEv"
  source_file: "/home/suhwa.kim/CONA_Proj/android/system/libhwbinder/include/hwbinder/IPCThreadState.h"
}
functions {
  basic_abi {
    type_abi {
      name: "void"
    }
    name: "android::hardware::IPCThreadState::clearCaller"
    access: private_access
    linker_set_key: "_ZN7android8hardware14IPCThreadState11clearCallerEv"
  }
  mangled_function_name: "_ZN7android8hardware14IPCThreadState11clearCallerEv"
  source_file: "/home/suhwa.kim/CONA_Proj/android/system/libhwbinder/include/hwbinder/IPCThreadState.h"
}
functions {
  basic_abi {
    type_abi {
      name: "void"
    }
    name: "android::hardware::IPCThreadState::threadDestructor"
    access: private_access
    linker_set_key: "_ZN7android8hardware14IPCThreadState16threadDestructorEPv"
  }
  mangled_function_name: "_ZN7android8hardware14IPCThreadState16threadDestructorEPv"
  source_file: "/home/suhwa.kim/CONA_Proj/android/system/libhwbinder/include/hwbinder/IPCThreadState.h"
  parameters {
    basic_abi {
      type_abi {
        name: "void *"
        size: 8
        alignment: 8
      }
      name: "st"
      access: public_access
      linker_set_key: "false"
    }
    default_arg: false
  }
}
functions {
  basic_abi {
    type_abi {
      name: "void"
    }
    name: "android::hardware::IPCThreadState::freeBuffer"
    access: private_access
    linker_set_key: "_ZN7android8hardware14IPCThreadState10freeBufferEPNS0_6ParcelEPKhmPKymPv"
  }
  mangled_function_name: "_ZN7android8hardware14IPCThreadState10freeBufferEPNS0_6ParcelEPKhmPKymPv"
  source_file: "/home/suhwa.kim/CONA_Proj/android/system/libhwbinder/include/hwbinder/IPCThreadState.h"
  parameters {
    basic_abi {
      type_abi {
        name: "android::hardware::Parcel *"
        size: 8
        alignment: 8
      }
      name: "parcel"
      access: public_access
      linker_set_key: "false"
    }
    default_arg: false
  }
  parameters {
    basic_abi {
      type_abi {
        name: "const unsigned char *"
        size: 8
        alignment: 8
      }
      name: "data"
      access: public_access
      linker_set_key: "false"
    }
    default_arg: false
  }
  parameters {
    basic_abi {
      type_abi {
        name: "unsigned long"
        size: 8
        alignment: 8
      }
      name: "dataSize"
      access: public_access
      linker_set_key: "false"
    }
    default_arg: false
  }
  parameters {
    basic_abi {
      type_abi {
        name: "const unsigned long long *"
        size: 8
        alignment: 8
      }
      name: "objects"
      access: public_access
      linker_set_key: "false"
    }
    default_arg: false
  }
  parameters {
    basic_abi {
      type_abi {
        name: "unsigned long"
        size: 8
        alignment: 8
      }
      name: "objectsSize"
      access: public_access
      linker_set_key: "false"
    }
    default_arg: false
  }
  parameters {
    basic_abi {
      type_abi {
        name: "void *"
        size: 8
        alignment: 8
      }
      name: "cookie"
      access: public_access
      linker_set_key: "false"
    }
    default_arg: false
  }
}
functions {
  basic_abi {
    type_abi {
      name: "void"
    }
    name: "android::hardware::BpHwBinder::BpHwBinder"
    access: public_access
    linker_set_key: "_ZN7android8hardware10BpHwBinderC1Ei"
  }
  mangled_function_name: "_ZN7android8hardware10BpHwBinderC1Ei"
  source_file: "/home/suhwa.kim/CONA_Proj/android/system/libhwbinder/include/hwbinder/BpHwBinder.h"
  parameters {
    basic_abi {
      type_abi {
        name: "int"
        size: 4
        alignment: 4
      }
      name: "handle"
      access: public_access
      linker_set_key: "false"
    }
    default_arg: false
  }
}
functions {
  basic_abi {
    type_abi {
      name: "int"
      size: 4
      alignment: 4
    }
    name: "android::hardware::BpHwBinder::handle"
    access: public_access
    linker_set_key: "_ZNK7android8hardware10BpHwBinder6handleEv"
  }
  mangled_function_name: "_ZNK7android8hardware10BpHwBinder6handleEv"
  source_file: "/home/suhwa.kim/CONA_Proj/android/system/libhwbinder/include/hwbinder/BpHwBinder.h"
}
functions {
  basic_abi {
    type_abi {
      name: "int"
      size: 4
      alignment: 4
    }
    name: "android::hardware::BpHwBinder::transact"
    access: public_access
    linker_set_key: "_ZN7android8hardware10BpHwBinder8transactEjRKNS0_6ParcelEPS2_jNSt3__18functionIFvRS2_EEE"
  }
  mangled_function_name: "_ZN7android8hardware10BpHwBinder8transactEjRKNS0_6ParcelEPS2_jNSt3__18functionIFvRS2_EEE"
  source_file: "/home/suhwa.kim/CONA_Proj/android/system/libhwbinder/include/hwbinder/BpHwBinder.h"
  parameters {
    basic_abi {
      type_abi {
        name: "unsigned int"
        size: 4
        alignment: 4
      }
      name: "code"
      access: public_access
      linker_set_key: "false"
    }
    default_arg: false
  }
  parameters {
    basic_abi {
      type_abi {
        name: "const android::hardware::Parcel &"
        size: 8
        alignment: 8
      }
      name: "data"
      access: public_access
      linker_set_key: "false"
    }
    default_arg: false
  }
  parameters {
    basic_abi {
      type_abi {
        name: "android::hardware::Parcel *"
        size: 8
        alignment: 8
      }
      name: "reply"
      access: public_access
      linker_set_key: "false"
    }
    default_arg: false
  }
  parameters {
    basic_abi {
      type_abi {
        name: "unsigned int"
        size: 4
        alignment: 4
      }
      name: "flags"
      access: public_access
      linker_set_key: "true"
    }
    default_arg: true
  }
  parameters {
    basic_abi {
      type_abi {
        name: "std::function<void (Parcel &)>"
        size: 48
        alignment: 16
      }
      name: "callback"
      access: public_access
      linker_set_key: "true"
    }
    default_arg: true
  }
}
functions {
  basic_abi {
    type_abi {
      name: "int"
      size: 4
      alignment: 4
    }
    name: "android::hardware::BpHwBinder::linkToDeath"
    access: public_access
    linker_set_key: "_ZN7android8hardware10BpHwBinder11linkToDeathERKNS_2spINS0_7IBinder14DeathRecipientEEEPvj"
  }
  mangled_function_name: "_ZN7android8hardware10BpHwBinder11linkToDeathERKNS_2spINS0_7IBinder14DeathRecipientEEEPvj"
  source_file: "/home/suhwa.kim/CONA_Proj/android/system/libhwbinder/include/hwbinder/BpHwBinder.h"
  parameters {
    basic_abi {
      type_abi {
        name: "const android::sp<android::hardware::IBinder::DeathRecipient> &"
        size: 8
        alignment: 8
      }
      name: "recipient"
      access: public_access
      linker_set_key: "false"
    }
    default_arg: false
  }
  parameters {
    basic_abi {
      type_abi {
        name: "void *"
        size: 8
        alignment: 8
      }
      name: "cookie"
      access: public_access
      linker_set_key: "true"
    }
    default_arg: true
  }
  parameters {
    basic_abi {
      type_abi {
        name: "unsigned int"
        size: 4
        alignment: 4
      }
      name: "flags"
      access: public_access
      linker_set_key: "true"
    }
    default_arg: true
  }
}
functions {
  basic_abi {
    type_abi {
      name: "int"
      size: 4
      alignment: 4
    }
    name: "android::hardware::BpHwBinder::unlinkToDeath"
    access: public_access
    linker_set_key: "_ZN7android8hardware10BpHwBinder13unlinkToDeathERKNS_2wpINS0_7IBinder14DeathRecipientEEEPvjPS5_"
  }
  mangled_function_name: "_ZN7android8hardware10BpHwBinder13unlinkToDeathERKNS_2wpINS0_7IBinder14DeathRecipientEEEPvjPS5_"
  source_file: "/home/suhwa.kim/CONA_Proj/android/system/libhwbinder/include/hwbinder/BpHwBinder.h"
  parameters {
    basic_abi {
      type_abi {
        name: "const android::wp<android::hardware::IBinder::DeathRecipient> &"
        size: 8
        alignment: 8
      }
      name: "recipient"
      access: public_access
      linker_set_key: "false"
    }
    default_arg: false
  }
  parameters {
    basic_abi {
      type_abi {
        name: "void *"
        size: 8
        alignment: 8
      }
      name: "cookie"
      access: public_access
      linker_set_key: "true"
    }
    default_arg: true
  }
  parameters {
    basic_abi {
      type_abi {
        name: "unsigned int"
        size: 4
        alignment: 4
      }
      name: "flags"
      access: public_access
      linker_set_key: "true"
    }
    default_arg: true
  }
  parameters {
    basic_abi {
      type_abi {
        name: "android::wp<android::hardware::IBinder::DeathRecipient> *"
        size: 8
        alignment: 8
      }
      name: "outRecipient"
      access: public_access
      linker_set_key: "true"
    }
    default_arg: true
  }
}
functions {
  basic_abi {
    type_abi {
      name: "void"
    }
    name: "android::hardware::BpHwBinder::attachObject"
    access: public_access
    linker_set_key: "_ZN7android8hardware10BpHwBinder12attachObjectEPKvPvS4_PFvS3_S4_S4_E"
  }
  mangled_function_name: "_ZN7android8hardware10BpHwBinder12attachObjectEPKvPvS4_PFvS3_S4_S4_E"
  source_file: "/home/suhwa.kim/CONA_Proj/android/system/libhwbinder/include/hwbinder/BpHwBinder.h"
  parameters {
    basic_abi {
      type_abi {
        name: "const void *"
        size: 8
        alignment: 8
      }
      name: "objectID"
      access: public_access
      linker_set_key: "false"
    }
    default_arg: false
  }
  parameters {
    basic_abi {
      type_abi {
        name: "void *"
        size: 8
        alignment: 8
      }
      name: "object"
      access: public_access
      linker_set_key: "false"
    }
    default_arg: false
  }
  parameters {
    basic_abi {
      type_abi {
        name: "void *"
        size: 8
        alignment: 8
      }
      name: "cleanupCookie"
      access: public_access
      linker_set_key: "false"
    }
    default_arg: false
  }
  parameters {
    basic_abi {
      type_abi {
        name: "void (*)(const void *, void *, void *)"
        size: 8
        alignment: 8
      }
      name: "func"
      access: public_access
      linker_set_key: "false"
    }
    default_arg: false
  }
}
functions {
  basic_abi {
    type_abi {
      name: "void *"
      size: 8
      alignment: 8
    }
    name: "android::hardware::BpHwBinder::findObject"
    access: public_access
    linker_set_key: "_ZNK7android8hardware10BpHwBinder10findObjectEPKv"
  }
  mangled_function_name: "_ZNK7android8hardware10BpHwBinder10findObjectEPKv"
  source_file: "/home/suhwa.kim/CONA_Proj/android/system/libhwbinder/include/hwbinder/BpHwBinder.h"
  parameters {
    basic_abi {
      type_abi {
        name: "const void *"
        size: 8
        alignment: 8
      }
      name: "objectID"
      access: public_access
      linker_set_key: "false"
    }
    default_arg: false
  }
}
functions {
  basic_abi {
    type_abi {
      name: "void"
    }
    name: "android::hardware::BpHwBinder::detachObject"
    access: public_access
    linker_set_key: "_ZN7android8hardware10BpHwBinder12detachObjectEPKv"
  }
  mangled_function_name: "_ZN7android8hardware10BpHwBinder12detachObjectEPKv"
  source_file: "/home/suhwa.kim/CONA_Proj/android/system/libhwbinder/include/hwbinder/BpHwBinder.h"
  parameters {
    basic_abi {
      type_abi {
        name: "const void *"
        size: 8
        alignment: 8
      }
      name: "objectID"
      access: public_access
      linker_set_key: "false"
    }
    default_arg: false
  }
}
functions {
  basic_abi {
    type_abi {
      name: "android::hardware::BpHwBinder *"
      size: 8
      alignment: 8
    }
    name: "android::hardware::BpHwBinder::remoteBinder"
    access: public_access
    linker_set_key: "_ZN7android8hardware10BpHwBinder12remoteBinderEv"
  }
  mangled_function_name: "_ZN7android8hardware10BpHwBinder12remoteBinderEv"
  source_file: "/home/suhwa.kim/CONA_Proj/android/system/libhwbinder/include/hwbinder/BpHwBinder.h"
}
functions {
  basic_abi {
    type_abi {
      name: "int"
      size: 4
      alignment: 4
    }
    name: "android::hardware::BpHwBinder::setConstantData"
    access: public_access
    linker_set_key: "_ZN7android8hardware10BpHwBinder15setConstantDataEPKvm"
  }
  mangled_function_name: "_ZN7android8hardware10BpHwBinder15setConstantDataEPKvm"
  source_file: "/home/suhwa.kim/CONA_Proj/android/system/libhwbinder/include/hwbinder/BpHwBinder.h"
  parameters {
    basic_abi {
      type_abi {
        name: "const void *"
        size: 8
        alignment: 8
      }
      name: "data"
      access: public_access
      linker_set_key: "false"
    }
    default_arg: false
  }
  parameters {
    basic_abi {
      type_abi {
        name: "unsigned long"
        size: 8
        alignment: 8
      }
      name: "size"
      access: public_access
      linker_set_key: "false"
    }
    default_arg: false
  }
}
functions {
  basic_abi {
    type_abi {
      name: "void"
    }
    name: "android::hardware::BpHwBinder::sendObituary"
    access: public_access
    linker_set_key: "_ZN7android8hardware10BpHwBinder12sendObituaryEv"
  }
  mangled_function_name: "_ZN7android8hardware10BpHwBinder12sendObituaryEv"
  source_file: "/home/suhwa.kim/CONA_Proj/android/system/libhwbinder/include/hwbinder/BpHwBinder.h"
}
functions {
  basic_abi {
    type_abi {
      name: "void"
    }
    name: "android::hardware::BpHwBinder::ObjectManager::ObjectManager"
    access: public_access
    linker_set_key: "_ZN7android8hardware10BpHwBinder13ObjectManagerC1Ev"
  }
  mangled_function_name: "_ZN7android8hardware10BpHwBinder13ObjectManagerC1Ev"
  source_file: "/home/suhwa.kim/CONA_Proj/android/system/libhwbinder/include/hwbinder/BpHwBinder.h"
}
functions {
  basic_abi {
    type_abi {
      name: "void"
    }
    name: "android::hardware::BpHwBinder::ObjectManager::~ObjectManager"
    access: public_access
    linker_set_key: "_ZN7android8hardware10BpHwBinder13ObjectManagerD0Ev"
  }
  mangled_function_name: "_ZN7android8hardware10BpHwBinder13ObjectManagerD0Ev"
  source_file: "/home/suhwa.kim/CONA_Proj/android/system/libhwbinder/include/hwbinder/BpHwBinder.h"
}
functions {
  basic_abi {
    type_abi {
      name: "void"
    }
    name: "android::hardware::BpHwBinder::ObjectManager::attach"
    access: public_access
    linker_set_key: "_ZN7android8hardware10BpHwBinder13ObjectManager6attachEPKvPvS5_PFvS4_S5_S5_E"
  }
  mangled_function_name: "_ZN7android8hardware10BpHwBinder13ObjectManager6attachEPKvPvS5_PFvS4_S5_S5_E"
  source_file: "/home/suhwa.kim/CONA_Proj/android/system/libhwbinder/include/hwbinder/BpHwBinder.h"
  parameters {
    basic_abi {
      type_abi {
        name: "const void *"
        size: 8
        alignment: 8
      }
      name: "objectID"
      access: public_access
      linker_set_key: "false"
    }
    default_arg: false
  }
  parameters {
    basic_abi {
      type_abi {
        name: "void *"
        size: 8
        alignment: 8
      }
      name: "object"
      access: public_access
      linker_set_key: "false"
    }
    default_arg: false
  }
  parameters {
    basic_abi {
      type_abi {
        name: "void *"
        size: 8
        alignment: 8
      }
      name: "cleanupCookie"
      access: public_access
      linker_set_key: "false"
    }
    default_arg: false
  }
  parameters {
    basic_abi {
      type_abi {
        name: "void (*)(const void *, void *, void *)"
        size: 8
        alignment: 8
      }
      name: "func"
      access: public_access
      linker_set_key: "false"
    }
    default_arg: false
  }
}
functions {
  basic_abi {
    type_abi {
      name: "void *"
      size: 8
      alignment: 8
    }
    name: "android::hardware::BpHwBinder::ObjectManager::find"
    access: public_access
    linker_set_key: "_ZNK7android8hardware10BpHwBinder13ObjectManager4findEPKv"
  }
  mangled_function_name: "_ZNK7android8hardware10BpHwBinder13ObjectManager4findEPKv"
  source_file: "/home/suhwa.kim/CONA_Proj/android/system/libhwbinder/include/hwbinder/BpHwBinder.h"
  parameters {
    basic_abi {
      type_abi {
        name: "const void *"
        size: 8
        alignment: 8
      }
      name: "objectID"
      access: public_access
      linker_set_key: "false"
    }
    default_arg: false
  }
}
functions {
  basic_abi {
    type_abi {
      name: "void"
    }
    name: "android::hardware::BpHwBinder::ObjectManager::detach"
    access: public_access
    linker_set_key: "_ZN7android8hardware10BpHwBinder13ObjectManager6detachEPKv"
  }
  mangled_function_name: "_ZN7android8hardware10BpHwBinder13ObjectManager6detachEPKv"
  source_file: "/home/suhwa.kim/CONA_Proj/android/system/libhwbinder/include/hwbinder/BpHwBinder.h"
  parameters {
    basic_abi {
      type_abi {
        name: "const void *"
        size: 8
        alignment: 8
      }
      name: "objectID"
      access: public_access
      linker_set_key: "false"
    }
    default_arg: false
  }
}
functions {
  basic_abi {
    type_abi {
      name: "void"
    }
    name: "android::hardware::BpHwBinder::ObjectManager::kill"
    access: public_access
    linker_set_key: "_ZN7android8hardware10BpHwBinder13ObjectManager4killEv"
  }
  mangled_function_name: "_ZN7android8hardware10BpHwBinder13ObjectManager4killEv"
  source_file: "/home/suhwa.kim/CONA_Proj/android/system/libhwbinder/include/hwbinder/BpHwBinder.h"
}
functions {
  basic_abi {
    type_abi {
      name: "void"
    }
    name: "android::hardware::BpHwBinder::ObjectManager::ObjectManager"
    access: private_access
    linker_set_key: "_ZN7android8hardware10BpHwBinder13ObjectManagerC1ERKS2_"
  }
  mangled_function_name: "_ZN7android8hardware10BpHwBinder13ObjectManagerC1ERKS2_"
  source_file: "/home/suhwa.kim/CONA_Proj/android/system/libhwbinder/include/hwbinder/BpHwBinder.h"
  parameters {
    basic_abi {
      type_abi {
        name: "const android::hardware::BpHwBinder::ObjectManager &"
        size: 8
        alignment: 8
      }
      name: ""
      access: public_access
      linker_set_key: "false"
    }
    default_arg: false
  }
}
functions {
  basic_abi {
    type_abi {
      name: "android::hardware::BpHwBinder::ObjectManager &"
      size: 8
      alignment: 8
    }
    name: "android::hardware::BpHwBinder::ObjectManager::operator="
    access: private_access
    linker_set_key: "_ZN7android8hardware10BpHwBinder13ObjectManageraSERKS2_"
  }
  mangled_function_name: "_ZN7android8hardware10BpHwBinder13ObjectManageraSERKS2_"
  source_file: "/home/suhwa.kim/CONA_Proj/android/system/libhwbinder/include/hwbinder/BpHwBinder.h"
  parameters {
    basic_abi {
      type_abi {
        name: "const android::hardware::BpHwBinder::ObjectManager &"
        size: 8
        alignment: 8
      }
      name: ""
      access: public_access
      linker_set_key: "false"
    }
    default_arg: false
  }
}
functions {
  basic_abi {
    type_abi {
      name: "void"
    }
    name: "android::hardware::BpHwBinder::~BpHwBinder"
    access: protected_access
    linker_set_key: "_ZN7android8hardware10BpHwBinderD0Ev"
  }
  mangled_function_name: "_ZN7android8hardware10BpHwBinderD0Ev"
  source_file: "/home/suhwa.kim/CONA_Proj/android/system/libhwbinder/include/hwbinder/BpHwBinder.h"
}
functions {
  basic_abi {
    type_abi {
      name: "void"
    }
    name: "android::hardware::BpHwBinder::onFirstRef"
    access: protected_access
    linker_set_key: "_ZN7android8hardware10BpHwBinder10onFirstRefEv"
  }
  mangled_function_name: "_ZN7android8hardware10BpHwBinder10onFirstRefEv"
  source_file: "/home/suhwa.kim/CONA_Proj/android/system/libhwbinder/include/hwbinder/BpHwBinder.h"
}
functions {
  basic_abi {
    type_abi {
      name: "void"
    }
    name: "android::hardware::BpHwBinder::onLastStrongRef"
    access: protected_access
    linker_set_key: "_ZN7android8hardware10BpHwBinder15onLastStrongRefEPKv"
  }
  mangled_function_name: "_ZN7android8hardware10BpHwBinder15onLastStrongRefEPKv"
  source_file: "/home/suhwa.kim/CONA_Proj/android/system/libhwbinder/include/hwbinder/BpHwBinder.h"
  parameters {
    basic_abi {
      type_abi {
        name: "const void *"
        size: 8
        alignment: 8
      }
      name: "id"
      access: public_access
      linker_set_key: "false"
    }
    default_arg: false
  }
}
functions {
  basic_abi {
    type_abi {
      name: "bool"
      size: 1
      alignment: 1
    }
    name: "android::hardware::BpHwBinder::onIncStrongAttempted"
    access: protected_access
    linker_set_key: "_ZN7android8hardware10BpHwBinder20onIncStrongAttemptedEjPKv"
  }
  mangled_function_name: "_ZN7android8hardware10BpHwBinder20onIncStrongAttemptedEjPKv"
  source_file: "/home/suhwa.kim/CONA_Proj/android/system/libhwbinder/include/hwbinder/BpHwBinder.h"
  parameters {
    basic_abi {
      type_abi {
        name: "unsigned int"
        size: 4
        alignment: 4
      }
      name: "flags"
      access: public_access
      linker_set_key: "false"
    }
    default_arg: false
  }
  parameters {
    basic_abi {
      type_abi {
        name: "const void *"
        size: 8
        alignment: 8
      }
      name: "id"
      access: public_access
      linker_set_key: "false"
    }
    default_arg: false
  }
}
functions {
  basic_abi {
    type_abi {
      name: "void"
    }
    name: "android::hardware::BpHwBinder::reportOneDeath"
    access: private_access
    linker_set_key: "_ZN7android8hardware10BpHwBinder14reportOneDeathERKNS1_8ObituaryE"
  }
  mangled_function_name: "_ZN7android8hardware10BpHwBinder14reportOneDeathERKNS1_8ObituaryE"
  source_file: "/home/suhwa.kim/CONA_Proj/android/system/libhwbinder/include/hwbinder/BpHwBinder.h"
  parameters {
    basic_abi {
      type_abi {
        name: "const android::hardware::BpHwBinder::Obituary &"
        size: 8
        alignment: 8
      }
      name: "obit"
      access: public_access
      linker_set_key: "false"
    }
    default_arg: false
  }
}
functions {
  basic_abi {
    type_abi {
      name: "bool"
      size: 1
      alignment: 1
    }
    name: "android::hardware::BpHwBinder::isDescriptorCached"
    access: private_access
    linker_set_key: "_ZNK7android8hardware10BpHwBinder18isDescriptorCachedEv"
  }
  mangled_function_name: "_ZNK7android8hardware10BpHwBinder18isDescriptorCachedEv"
  source_file: "/home/suhwa.kim/CONA_Proj/android/system/libhwbinder/include/hwbinder/BpHwBinder.h"
}
functions {
  basic_abi {
    type_abi {
      name: "void"
    }
    name: "android::hardware::TextOutput::TextOutput"
    access: public_access
    linker_set_key: "_ZN7android8hardware10TextOutputC1Ev"
  }
  mangled_function_name: "_ZN7android8hardware10TextOutputC1Ev"
  source_file: "/home/suhwa.kim/CONA_Proj/android/system/libhwbinder/include/hwbinder/TextOutput.h"
}
functions {
  basic_abi {
    type_abi {
      name: "void"
    }
    name: "android::hardware::TextOutput::~TextOutput"
    access: public_access
    linker_set_key: "_ZN7android8hardware10TextOutputD0Ev"
  }
  mangled_function_name: "_ZN7android8hardware10TextOutputD0Ev"
  source_file: "/home/suhwa.kim/CONA_Proj/android/system/libhwbinder/include/hwbinder/TextOutput.h"
}
functions {
  basic_abi {
    type_abi {
      name: "int"
      size: 4
      alignment: 4
    }
    name: "android::hardware::TextOutput::print"
    access: public_access
    linker_set_key: "_ZN7android8hardware10TextOutput5printEPKcm"
  }
  mangled_function_name: "_ZN7android8hardware10TextOutput5printEPKcm"
  source_file: "/home/suhwa.kim/CONA_Proj/android/system/libhwbinder/include/hwbinder/TextOutput.h"
  parameters {
    basic_abi {
      type_abi {
        name: "const char *"
        size: 8
        alignment: 8
      }
      name: "txt"
      access: public_access
      linker_set_key: "false"
    }
    default_arg: false
  }
  parameters {
    basic_abi {
      type_abi {
        name: "unsigned long"
        size: 8
        alignment: 8
      }
      name: "len"
      access: public_access
      linker_set_key: "false"
    }
    default_arg: false
  }
}
functions {
  basic_abi {
    type_abi {
      name: "void"
    }
    name: "android::hardware::TextOutput::moveIndent"
    access: public_access
    linker_set_key: "_ZN7android8hardware10TextOutput10moveIndentEi"
  }
  mangled_function_name: "_ZN7android8hardware10TextOutput10moveIndentEi"
  source_file: "/home/suhwa.kim/CONA_Proj/android/system/libhwbinder/include/hwbinder/TextOutput.h"
  parameters {
    basic_abi {
      type_abi {
        name: "int"
        size: 4
        alignment: 4
      }
      name: "delta"
      access: public_access
      linker_set_key: "false"
    }
    default_arg: false
  }
}
functions {
  basic_abi {
    type_abi {
      name: "void"
    }
    name: "android::hardware::TextOutput::Bundle::Bundle"
    access: public_access
    linker_set_key: "_ZN7android8hardware10TextOutput6BundleC1ERS1_"
  }
  mangled_function_name: "_ZN7android8hardware10TextOutput6BundleC1ERS1_"
  source_file: "/home/suhwa.kim/CONA_Proj/android/system/libhwbinder/include/hwbinder/TextOutput.h"
  parameters {
    basic_abi {
      type_abi {
        name: "android::hardware::TextOutput &"
        size: 8
        alignment: 8
      }
      name: "to"
      access: public_access
      linker_set_key: "false"
    }
    default_arg: false
  }
}
functions {
  basic_abi {
    type_abi {
      name: "void"
    }
    name: "android::hardware::TextOutput::Bundle::~Bundle"
    access: public_access
    linker_set_key: "_ZN7android8hardware10TextOutput6BundleD0Ev"
  }
  mangled_function_name: "_ZN7android8hardware10TextOutput6BundleD0Ev"
  source_file: "/home/suhwa.kim/CONA_Proj/android/system/libhwbinder/include/hwbinder/TextOutput.h"
}
functions {
  basic_abi {
    type_abi {
      name: "void"
    }
    name: "android::hardware::TextOutput::pushBundle"
    access: public_access
    linker_set_key: "_ZN7android8hardware10TextOutput10pushBundleEv"
  }
  mangled_function_name: "_ZN7android8hardware10TextOutput10pushBundleEv"
  source_file: "/home/suhwa.kim/CONA_Proj/android/system/libhwbinder/include/hwbinder/TextOutput.h"
}
functions {
  basic_abi {
    type_abi {
      name: "void"
    }
    name: "android::hardware::TextOutput::popBundle"
    access: public_access
    linker_set_key: "_ZN7android8hardware10TextOutput9popBundleEv"
  }
  mangled_function_name: "_ZN7android8hardware10TextOutput9popBundleEv"
  source_file: "/home/suhwa.kim/CONA_Proj/android/system/libhwbinder/include/hwbinder/TextOutput.h"
}
functions {
  basic_abi {
    type_abi {
      name: "android::hardware::TextOutput &"
      size: 8
      alignment: 8
    }
    name: "android::hardware::endl"
    access: public_access
    linker_set_key: "_ZN7android8hardware4endlERNS0_10TextOutputE"
  }
  mangled_function_name: "_ZN7android8hardware4endlERNS0_10TextOutputE"
  source_file: "/home/suhwa.kim/CONA_Proj/android/system/libhwbinder/include/hwbinder/TextOutput.h"
  parameters {
    basic_abi {
      type_abi {
        name: "android::hardware::TextOutput &"
        size: 8
        alignment: 8
      }
      name: "to"
      access: public_access
      linker_set_key: "false"
    }
    default_arg: false
  }
}
functions {
  basic_abi {
    type_abi {
      name: "android::hardware::TextOutput &"
      size: 8
      alignment: 8
    }
    name: "android::hardware::indent"
    access: public_access
    linker_set_key: "_ZN7android8hardware6indentERNS0_10TextOutputE"
  }
  mangled_function_name: "_ZN7android8hardware6indentERNS0_10TextOutputE"
  source_file: "/home/suhwa.kim/CONA_Proj/android/system/libhwbinder/include/hwbinder/TextOutput.h"
  parameters {
    basic_abi {
      type_abi {
        name: "android::hardware::TextOutput &"
        size: 8
        alignment: 8
      }
      name: "to"
      access: public_access
      linker_set_key: "false"
    }
    default_arg: false
  }
}
functions {
  basic_abi {
    type_abi {
      name: "android::hardware::TextOutput &"
      size: 8
      alignment: 8
    }
    name: "android::hardware::dedent"
    access: public_access
    linker_set_key: "_ZN7android8hardware6dedentERNS0_10TextOutputE"
  }
  mangled_function_name: "_ZN7android8hardware6dedentERNS0_10TextOutputE"
  source_file: "/home/suhwa.kim/CONA_Proj/android/system/libhwbinder/include/hwbinder/TextOutput.h"
  parameters {
    basic_abi {
      type_abi {
        name: "android::hardware::TextOutput &"
        size: 8
        alignment: 8
      }
      name: "to"
      access: public_access
      linker_set_key: "false"
    }
    default_arg: false
  }
}
functions {
  basic_abi {
    type_abi {
      name: "android::hardware::TextOutput &"
      size: 8
      alignment: 8
    }
    name: "android::hardware::operator<<"
    access: public_access
    linker_set_key: "_ZN7android8hardwarelsERNS0_10TextOutputERKT_"
  }
  mangled_function_name: "_ZN7android8hardwarelsERNS0_10TextOutputERKT_"
  source_file: "/home/suhwa.kim/CONA_Proj/android/system/libhwbinder/include/hwbinder/TextOutput.h"
  parameters {
    basic_abi {
      type_abi {
        name: "android::hardware::TextOutput &"
        size: 8
        alignment: 8
      }
      name: "to"
      access: public_access
      linker_set_key: "false"
    }
    default_arg: false
  }
  parameters {
    basic_abi {
      type_abi {
        name: "const type-parameter-0-0 &"
      }
      name: "val"
      access: public_access
      linker_set_key: "false"
    }
    default_arg: false
  }
  template_info {
    elements {
      basic_abi {
        name: "T"
        linker_set_key: "T"
      }
    }
  }
}
functions {
  basic_abi {
    type_abi {
      name: "android::hardware::TextOutput &"
      size: 8
      alignment: 8
    }
    name: "android::hardware::operator<<"
    access: public_access
    linker_set_key: "_ZN7android8hardwarelsIPKcEERNS0_10TextOutputES5_RKT_"
  }
  mangled_function_name: "_ZN7android8hardwarelsIPKcEERNS0_10TextOutputES5_RKT_"
  source_file: "/home/suhwa.kim/CONA_Proj/android/system/libhwbinder/include/hwbinder/TextOutput.h"
  parameters {
    basic_abi {
      type_abi {
        name: "android::hardware::TextOutput &"
        size: 8
        alignment: 8
      }
      name: "to"
      access: public_access
      linker_set_key: "false"
    }
    default_arg: false
  }
  parameters {
    basic_abi {
      type_abi {
        name: "const char *const &"
        size: 8
        alignment: 8
      }
      name: "val"
      access: public_access
      linker_set_key: "false"
    }
    default_arg: false
  }
  template_info {
    elements {
      basic_abi {
        type_abi {
          name: "const char *"
          size: 8
          alignment: 8
        }
        linker_set_key: "const char *"
      }
    }
  }
}
functions {
  basic_abi {
    type_abi {
      name: "android::hardware::TextOutput &"
      size: 8
      alignment: 8
    }
    name: "android::hardware::operator<<"
    access: public_access
    linker_set_key: "_ZN7android8hardwarelsIA13_cEERNS0_10TextOutputES4_RKT_"
  }
  mangled_function_name: "_ZN7android8hardwarelsIA13_cEERNS0_10TextOutputES4_RKT_"
  source_file: "/home/suhwa.kim/CONA_Proj/android/system/libhwbinder/include/hwbinder/TextOutput.h"
  parameters {
    basic_abi {
      type_abi {
        name: "android::hardware::TextOutput &"
        size: 8
        alignment: 8
      }
      name: "to"
      access: public_access
      linker_set_key: "false"
    }
    default_arg: false
  }
  parameters {
    basic_abi {
      type_abi {
        name: "char const (&)[13]"
        size: 8
        alignment: 8
      }
      name: "val"
      access: public_access
      linker_set_key: "false"
    }
    default_arg: false
  }
  template_info {
    elements {
      basic_abi {
        type_abi {
          name: "char [13]"
          size: 13
          alignment: 1
        }
        linker_set_key: "char [13]"
      }
    }
  }
}
functions {
  basic_abi {
    type_abi {
      name: "android::hardware::TextOutput &"
      size: 8
      alignment: 8
    }
    name: "android::hardware::operator<<"
    access: public_access
    linker_set_key: "_ZN7android8hardwarelsIjEERNS0_10TextOutputES3_RKT_"
  }
  mangled_function_name: "_ZN7android8hardwarelsIjEERNS0_10TextOutputES3_RKT_"
  source_file: "/home/suhwa.kim/CONA_Proj/android/system/libhwbinder/include/hwbinder/TextOutput.h"
  parameters {
    basic_abi {
      type_abi {
        name: "android::hardware::TextOutput &"
        size: 8
        alignment: 8
      }
      name: "to"
      access: public_access
      linker_set_key: "false"
    }
    default_arg: false
  }
  parameters {
    basic_abi {
      type_abi {
        name: "const unsigned int &"
        size: 8
        alignment: 8
      }
      name: "val"
      access: public_access
      linker_set_key: "false"
    }
    default_arg: false
  }
  template_info {
    elements {
      basic_abi {
        type_abi {
          name: "unsigned int"
          size: 4
          alignment: 4
        }
        linker_set_key: "unsigned int"
      }
    }
  }
}
functions {
  basic_abi {
    type_abi {
      name: "android::hardware::TextOutput &"
      size: 8
      alignment: 8
    }
    name: "android::hardware::operator<<"
    access: public_access
    linker_set_key: "_ZN7android8hardwarelsIA12_cEERNS0_10TextOutputES4_RKT_"
  }
  mangled_function_name: "_ZN7android8hardwarelsIA12_cEERNS0_10TextOutputES4_RKT_"
  source_file: "/home/suhwa.kim/CONA_Proj/android/system/libhwbinder/include/hwbinder/TextOutput.h"
  parameters {
    basic_abi {
      type_abi {
        name: "android::hardware::TextOutput &"
        size: 8
        alignment: 8
      }
      name: "to"
      access: public_access
      linker_set_key: "false"
    }
    default_arg: false
  }
  parameters {
    basic_abi {
      type_abi {
        name: "char const (&)[12]"
        size: 8
        alignment: 8
      }
      name: "val"
      access: public_access
      linker_set_key: "false"
    }
    default_arg: false
  }
  template_info {
    elements {
      basic_abi {
        type_abi {
          name: "char [12]"
          size: 12
          alignment: 1
        }
        linker_set_key: "char [12]"
      }
    }
  }
}
functions {
  basic_abi {
    type_abi {
      name: "android::hardware::TextOutput &"
      size: 8
      alignment: 8
    }
    name: "android::hardware::operator<<"
    access: public_access
    linker_set_key: "_ZN7android8hardwarelsIyEERNS0_10TextOutputES3_RKT_"
  }
  mangled_function_name: "_ZN7android8hardwarelsIyEERNS0_10TextOutputES3_RKT_"
  source_file: "/home/suhwa.kim/CONA_Proj/android/system/libhwbinder/include/hwbinder/TextOutput.h"
  parameters {
    basic_abi {
      type_abi {
        name: "android::hardware::TextOutput &"
        size: 8
        alignment: 8
      }
      name: "to"
      access: public_access
      linker_set_key: "false"
    }
    default_arg: false
  }
  parameters {
    basic_abi {
      type_abi {
        name: "const unsigned long long &"
        size: 8
        alignment: 8
      }
      name: "val"
      access: public_access
      linker_set_key: "false"
    }
    default_arg: false
  }
  template_info {
    elements {
      basic_abi {
        type_abi {
          name: "unsigned long long"
          size: 8
          alignment: 8
        }
        linker_set_key: "unsigned long long"
      }
    }
  }
}
functions {
  basic_abi {
    type_abi {
      name: "android::hardware::TextOutput &"
      size: 8
      alignment: 8
    }
    name: "android::hardware::operator<<"
    access: public_access
    linker_set_key: "_ZN7android8hardwarelsIA10_cEERNS0_10TextOutputES4_RKT_"
  }
  mangled_function_name: "_ZN7android8hardwarelsIA10_cEERNS0_10TextOutputES4_RKT_"
  source_file: "/home/suhwa.kim/CONA_Proj/android/system/libhwbinder/include/hwbinder/TextOutput.h"
  parameters {
    basic_abi {
      type_abi {
        name: "android::hardware::TextOutput &"
        size: 8
        alignment: 8
      }
      name: "to"
      access: public_access
      linker_set_key: "false"
    }
    default_arg: false
  }
  parameters {
    basic_abi {
      type_abi {
        name: "char const (&)[10]"
        size: 8
        alignment: 8
      }
      name: "val"
      access: public_access
      linker_set_key: "false"
    }
    default_arg: false
  }
  template_info {
    elements {
      basic_abi {
        type_abi {
          name: "char [10]"
          size: 10
          alignment: 1
        }
        linker_set_key: "char [10]"
      }
    }
  }
}
functions {
  basic_abi {
    type_abi {
      name: "android::hardware::TextOutput &"
      size: 8
      alignment: 8
    }
    name: "android::hardware::operator<<"
    access: public_access
    linker_set_key: "_ZN7android8hardwarelsIA2_cEERNS0_10TextOutputES4_RKT_"
  }
  mangled_function_name: "_ZN7android8hardwarelsIA2_cEERNS0_10TextOutputES4_RKT_"
  source_file: "/home/suhwa.kim/CONA_Proj/android/system/libhwbinder/include/hwbinder/TextOutput.h"
  parameters {
    basic_abi {
      type_abi {
        name: "android::hardware::TextOutput &"
        size: 8
        alignment: 8
      }
      name: "to"
      access: public_access
      linker_set_key: "false"
    }
    default_arg: false
  }
  parameters {
    basic_abi {
      type_abi {
        name: "char const (&)[2]"
        size: 8
        alignment: 8
      }
      name: "val"
      access: public_access
      linker_set_key: "false"
    }
    default_arg: false
  }
  template_info {
    elements {
      basic_abi {
        type_abi {
          name: "char [2]"
          size: 2
          alignment: 1
        }
        linker_set_key: "char [2]"
      }
    }
  }
}
functions {
  basic_abi {
    type_abi {
      name: "android::hardware::TextOutput &"
      size: 8
      alignment: 8
    }
    name: "android::hardware::operator<<"
    access: public_access
    linker_set_key: "_ZN7android8hardwarelsIFRNS0_10TextOutputES3_EEES3_S3_RKT_"
  }
  mangled_function_name: "_ZN7android8hardwarelsIFRNS0_10TextOutputES3_EEES3_S3_RKT_"
  source_file: "/home/suhwa.kim/CONA_Proj/android/system/libhwbinder/include/hwbinder/TextOutput.h"
  parameters {
    basic_abi {
      type_abi {
        name: "android::hardware::TextOutput &"
        size: 8
        alignment: 8
      }
      name: "to"
      access: public_access
      linker_set_key: "false"
    }
    default_arg: false
  }
  parameters {
    basic_abi {
      type_abi {
        name: "android::hardware::TextOutput &(&)(android::hardware::TextOutput &)"
        size: 8
        alignment: 8
      }
      name: "val"
      access: public_access
      linker_set_key: "false"
    }
    default_arg: false
  }
  template_info {
    elements {
      basic_abi {
        type_abi {
          name: "android::hardware::TextOutput &(android::hardware::TextOutput &)"
          size: 0
          alignment: 4
        }
        linker_set_key: "android::hardware::TextOutput &(android::hardware::TextOutput &)"
      }
    }
  }
}
functions {
  basic_abi {
    type_abi {
      name: "android::hardware::TextOutput &"
      size: 8
      alignment: 8
    }
    name: "android::hardware::operator<<"
    access: public_access
    linker_set_key: "_ZN7android8hardwarelsIA6_cEERNS0_10TextOutputES4_RKT_"
  }
  mangled_function_name: "_ZN7android8hardwarelsIA6_cEERNS0_10TextOutputES4_RKT_"
  source_file: "/home/suhwa.kim/CONA_Proj/android/system/libhwbinder/include/hwbinder/TextOutput.h"
  parameters {
    basic_abi {
      type_abi {
        name: "android::hardware::TextOutput &"
        size: 8
        alignment: 8
      }
      name: "to"
      access: public_access
      linker_set_key: "false"
    }
    default_arg: false
  }
  parameters {
    basic_abi {
      type_abi {
        name: "char const (&)[6]"
        size: 8
        alignment: 8
      }
      name: "val"
      access: public_access
      linker_set_key: "false"
    }
    default_arg: false
  }
  template_info {
    elements {
      basic_abi {
        type_abi {
          name: "char [6]"
          size: 6
          alignment: 1
        }
        linker_set_key: "char [6]"
      }
    }
  }
}
functions {
  basic_abi {
    type_abi {
      name: "android::hardware::TextOutput &"
      size: 8
      alignment: 8
    }
    name: "android::hardware::operator<<"
    access: public_access
    linker_set_key: "_ZN7android8hardwarelsINS0_8TypeCodeEEERNS0_10TextOutputES4_RKT_"
  }
  mangled_function_name: "_ZN7android8hardwarelsINS0_8TypeCodeEEERNS0_10TextOutputES4_RKT_"
  source_file: "/home/suhwa.kim/CONA_Proj/android/system/libhwbinder/include/hwbinder/TextOutput.h"
  parameters {
    basic_abi {
      type_abi {
        name: "android::hardware::TextOutput &"
        size: 8
        alignment: 8
      }
      name: "to"
      access: public_access
      linker_set_key: "false"
    }
    default_arg: false
  }
  parameters {
    basic_abi {
      type_abi {
        name: "const android::hardware::TypeCode &"
        size: 8
        alignment: 8
      }
      name: "val"
      access: public_access
      linker_set_key: "false"
    }
    default_arg: false
  }
  template_info {
    elements {
      basic_abi {
        type_abi {
          name: "android::hardware::TypeCode"
          size: 4
          alignment: 4
        }
        linker_set_key: "android::hardware::TypeCode"
      }
    }
  }
}
functions {
  basic_abi {
    type_abi {
      name: "android::hardware::TextOutput &"
      size: 8
      alignment: 8
    }
    name: "android::hardware::operator<<"
    access: public_access
    linker_set_key: "_ZN7android8hardwarelsIA9_cEERNS0_10TextOutputES4_RKT_"
  }
  mangled_function_name: "_ZN7android8hardwarelsIA9_cEERNS0_10TextOutputES4_RKT_"
  source_file: "/home/suhwa.kim/CONA_Proj/android/system/libhwbinder/include/hwbinder/TextOutput.h"
  parameters {
    basic_abi {
      type_abi {
        name: "android::hardware::TextOutput &"
        size: 8
        alignment: 8
      }
      name: "to"
      access: public_access
      linker_set_key: "false"
    }
    default_arg: false
  }
  parameters {
    basic_abi {
      type_abi {
        name: "char const (&)[9]"
        size: 8
        alignment: 8
      }
      name: "val"
      access: public_access
      linker_set_key: "false"
    }
    default_arg: false
  }
  template_info {
    elements {
      basic_abi {
        type_abi {
          name: "char [9]"
          size: 9
          alignment: 1
        }
        linker_set_key: "char [9]"
      }
    }
  }
}
functions {
  basic_abi {
    type_abi {
      name: "android::hardware::TextOutput &"
      size: 8
      alignment: 8
    }
    name: "android::hardware::operator<<"
    access: public_access
    linker_set_key: "_ZN7android8hardwarelsIPvEERNS0_10TextOutputES4_RKT_"
  }
  mangled_function_name: "_ZN7android8hardwarelsIPvEERNS0_10TextOutputES4_RKT_"
  source_file: "/home/suhwa.kim/CONA_Proj/android/system/libhwbinder/include/hwbinder/TextOutput.h"
  parameters {
    basic_abi {
      type_abi {
        name: "android::hardware::TextOutput &"
        size: 8
        alignment: 8
      }
      name: "to"
      access: public_access
      linker_set_key: "false"
    }
    default_arg: false
  }
  parameters {
    basic_abi {
      type_abi {
        name: "void *const &"
        size: 8
        alignment: 8
      }
      name: "val"
      access: public_access
      linker_set_key: "false"
    }
    default_arg: false
  }
  template_info {
    elements {
      basic_abi {
        type_abi {
          name: "void *"
          size: 8
          alignment: 8
        }
        linker_set_key: "void *"
      }
    }
  }
}
functions {
  basic_abi {
    type_abi {
      name: "android::hardware::TextOutput &"
      size: 8
      alignment: 8
    }
    name: "android::hardware::operator<<"
    access: public_access
    linker_set_key: "_ZN7android8hardwarelsIA3_cEERNS0_10TextOutputES4_RKT_"
  }
  mangled_function_name: "_ZN7android8hardwarelsIA3_cEERNS0_10TextOutputES4_RKT_"
  source_file: "/home/suhwa.kim/CONA_Proj/android/system/libhwbinder/include/hwbinder/TextOutput.h"
  parameters {
    basic_abi {
      type_abi {
        name: "android::hardware::TextOutput &"
        size: 8
        alignment: 8
      }
      name: "to"
      access: public_access
      linker_set_key: "false"
    }
    default_arg: false
  }
  parameters {
    basic_abi {
      type_abi {
        name: "char const (&)[3]"
        size: 8
        alignment: 8
      }
      name: "val"
      access: public_access
      linker_set_key: "false"
    }
    default_arg: false
  }
  template_info {
    elements {
      basic_abi {
        type_abi {
          name: "char [3]"
          size: 3
          alignment: 1
        }
        linker_set_key: "char [3]"
      }
    }
  }
}
functions {
  basic_abi {
    type_abi {
      name: "android::hardware::TextOutput &"
      size: 8
      alignment: 8
    }
    name: "android::hardware::operator<<"
    access: public_access
    linker_set_key: "_ZN7android8hardwarelsIA8_cEERNS0_10TextOutputES4_RKT_"
  }
  mangled_function_name: "_ZN7android8hardwarelsIA8_cEERNS0_10TextOutputES4_RKT_"
  source_file: "/home/suhwa.kim/CONA_Proj/android/system/libhwbinder/include/hwbinder/TextOutput.h"
  parameters {
    basic_abi {
      type_abi {
        name: "android::hardware::TextOutput &"
        size: 8
        alignment: 8
      }
      name: "to"
      access: public_access
      linker_set_key: "false"
    }
    default_arg: false
  }
  parameters {
    basic_abi {
      type_abi {
        name: "char const (&)[8]"
        size: 8
        alignment: 8
      }
      name: "val"
      access: public_access
      linker_set_key: "false"
    }
    default_arg: false
  }
  template_info {
    elements {
      basic_abi {
        type_abi {
          name: "char [8]"
          size: 8
          alignment: 1
        }
        linker_set_key: "char [8]"
      }
    }
  }
}
functions {
  basic_abi {
    type_abi {
      name: "android::hardware::TextOutput &"
      size: 8
      alignment: 8
    }
    name: "android::hardware::operator<<"
    access: public_access
    linker_set_key: "_ZN7android8hardwarelsIA11_cEERNS0_10TextOutputES4_RKT_"
  }
  mangled_function_name: "_ZN7android8hardwarelsIA11_cEERNS0_10TextOutputES4_RKT_"
  source_file: "/home/suhwa.kim/CONA_Proj/android/system/libhwbinder/include/hwbinder/TextOutput.h"
  parameters {
    basic_abi {
      type_abi {
        name: "android::hardware::TextOutput &"
        size: 8
        alignment: 8
      }
      name: "to"
      access: public_access
      linker_set_key: "false"
    }
    default_arg: false
  }
  parameters {
    basic_abi {
      type_abi {
        name: "char const (&)[11]"
        size: 8
        alignment: 8
      }
      name: "val"
      access: public_access
      linker_set_key: "false"
    }
    default_arg: false
  }
  template_info {
    elements {
      basic_abi {
        type_abi {
          name: "char [11]"
          size: 11
          alignment: 1
        }
        linker_set_key: "char [11]"
      }
    }
  }
}
functions {
  basic_abi {
    type_abi {
      name: "android::hardware::TextOutput &"
      size: 8
      alignment: 8
    }
    name: "android::hardware::operator<<"
    access: public_access
    linker_set_key: "_ZN7android8hardwarelsIA16_cEERNS0_10TextOutputES4_RKT_"
  }
  mangled_function_name: "_ZN7android8hardwarelsIA16_cEERNS0_10TextOutputES4_RKT_"
  source_file: "/home/suhwa.kim/CONA_Proj/android/system/libhwbinder/include/hwbinder/TextOutput.h"
  parameters {
    basic_abi {
      type_abi {
        name: "android::hardware::TextOutput &"
        size: 8
        alignment: 8
      }
      name: "to"
      access: public_access
      linker_set_key: "false"
    }
    default_arg: false
  }
  parameters {
    basic_abi {
      type_abi {
        name: "char const (&)[16]"
        size: 8
        alignment: 8
      }
      name: "val"
      access: public_access
      linker_set_key: "false"
    }
    default_arg: false
  }
  template_info {
    elements {
      basic_abi {
        type_abi {
          name: "char [16]"
          size: 16
          alignment: 1
        }
        linker_set_key: "char [16]"
      }
    }
  }
}
functions {
  basic_abi {
    type_abi {
      name: "android::hardware::TextOutput &"
      size: 8
      alignment: 8
    }
    name: "android::hardware::operator<<"
    access: public_access
    linker_set_key: "_ZN7android8hardwarelsIiEERNS0_10TextOutputES3_RKT_"
  }
  mangled_function_name: "_ZN7android8hardwarelsIiEERNS0_10TextOutputES3_RKT_"
  source_file: "/home/suhwa.kim/CONA_Proj/android/system/libhwbinder/include/hwbinder/TextOutput.h"
  parameters {
    basic_abi {
      type_abi {
        name: "android::hardware::TextOutput &"
        size: 8
        alignment: 8
      }
      name: "to"
      access: public_access
      linker_set_key: "false"
    }
    default_arg: false
  }
  parameters {
    basic_abi {
      type_abi {
        name: "const int &"
        size: 8
        alignment: 8
      }
      name: "val"
      access: public_access
      linker_set_key: "false"
    }
    default_arg: false
  }
  template_info {
    elements {
      basic_abi {
        type_abi {
          name: "int"
          size: 4
          alignment: 4
        }
        linker_set_key: "int"
      }
    }
  }
}
functions {
  basic_abi {
    type_abi {
      name: "android::hardware::TextOutput &"
      size: 8
      alignment: 8
    }
    name: "android::hardware::operator<<"
    access: public_access
    linker_set_key: "_ZN7android8hardwarelsIA18_cEERNS0_10TextOutputES4_RKT_"
  }
  mangled_function_name: "_ZN7android8hardwarelsIA18_cEERNS0_10TextOutputES4_RKT_"
  source_file: "/home/suhwa.kim/CONA_Proj/android/system/libhwbinder/include/hwbinder/TextOutput.h"
  parameters {
    basic_abi {
      type_abi {
        name: "android::hardware::TextOutput &"
        size: 8
        alignment: 8
      }
      name: "to"
      access: public_access
      linker_set_key: "false"
    }
    default_arg: false
  }
  parameters {
    basic_abi {
      type_abi {
        name: "char const (&)[18]"
        size: 8
        alignment: 8
      }
      name: "val"
      access: public_access
      linker_set_key: "false"
    }
    default_arg: false
  }
  template_info {
    elements {
      basic_abi {
        type_abi {
          name: "char [18]"
          size: 18
          alignment: 1
        }
        linker_set_key: "char [18]"
      }
    }
  }
}
functions {
  basic_abi {
    type_abi {
      name: "android::hardware::TextOutput &"
      size: 8
      alignment: 8
    }
    name: "android::hardware::operator<<"
    access: public_access
    linker_set_key: "_ZN7android8hardwarelsIA7_cEERNS0_10TextOutputES4_RKT_"
  }
  mangled_function_name: "_ZN7android8hardwarelsIA7_cEERNS0_10TextOutputES4_RKT_"
  source_file: "/home/suhwa.kim/CONA_Proj/android/system/libhwbinder/include/hwbinder/TextOutput.h"
  parameters {
    basic_abi {
      type_abi {
        name: "android::hardware::TextOutput &"
        size: 8
        alignment: 8
      }
      name: "to"
      access: public_access
      linker_set_key: "false"
    }
    default_arg: false
  }
  parameters {
    basic_abi {
      type_abi {
        name: "char const (&)[7]"
        size: 8
        alignment: 8
      }
      name: "val"
      access: public_access
      linker_set_key: "false"
    }
    default_arg: false
  }
  template_info {
    elements {
      basic_abi {
        type_abi {
          name: "char [7]"
          size: 7
          alignment: 1
        }
        linker_set_key: "char [7]"
      }
    }
  }
}
functions {
  basic_abi {
    type_abi {
      name: "android::hardware::TextOutput &"
      size: 8
      alignment: 8
    }
    name: "android::hardware::operator<<"
    access: public_access
    linker_set_key: "_ZN7android8hardwarelsIA31_cEERNS0_10TextOutputES4_RKT_"
  }
  mangled_function_name: "_ZN7android8hardwarelsIA31_cEERNS0_10TextOutputES4_RKT_"
  source_file: "/home/suhwa.kim/CONA_Proj/android/system/libhwbinder/include/hwbinder/TextOutput.h"
  parameters {
    basic_abi {
      type_abi {
        name: "android::hardware::TextOutput &"
        size: 8
        alignment: 8
      }
      name: "to"
      access: public_access
      linker_set_key: "false"
    }
    default_arg: false
  }
  parameters {
    basic_abi {
      type_abi {
        name: "char const (&)[31]"
        size: 8
        alignment: 8
      }
      name: "val"
      access: public_access
      linker_set_key: "false"
    }
    default_arg: false
  }
  template_info {
    elements {
      basic_abi {
        type_abi {
          name: "char [31]"
          size: 31
          alignment: 1
        }
        linker_set_key: "char [31]"
      }
    }
  }
}
functions {
  basic_abi {
    type_abi {
      name: "android::hardware::TextOutput &"
      size: 8
      alignment: 8
    }
    name: "android::hardware::operator<<"
    access: public_access
    linker_set_key: "_ZN7android8hardwarelsIA20_cEERNS0_10TextOutputES4_RKT_"
  }
  mangled_function_name: "_ZN7android8hardwarelsIA20_cEERNS0_10TextOutputES4_RKT_"
  source_file: "/home/suhwa.kim/CONA_Proj/android/system/libhwbinder/include/hwbinder/TextOutput.h"
  parameters {
    basic_abi {
      type_abi {
        name: "android::hardware::TextOutput &"
        size: 8
        alignment: 8
      }
      name: "to"
      access: public_access
      linker_set_key: "false"
    }
    default_arg: false
  }
  parameters {
    basic_abi {
      type_abi {
        name: "char const (&)[20]"
        size: 8
        alignment: 8
      }
      name: "val"
      access: public_access
      linker_set_key: "false"
    }
    default_arg: false
  }
  template_info {
    elements {
      basic_abi {
        type_abi {
          name: "char [20]"
          size: 20
          alignment: 1
        }
        linker_set_key: "char [20]"
      }
    }
  }
}
functions {
  basic_abi {
    type_abi {
      name: "android::hardware::TextOutput &"
      size: 8
      alignment: 8
    }
    name: "android::hardware::operator<<"
    access: public_access
    linker_set_key: "_ZN7android8hardwarelsINS0_6ParcelEEERNS0_10TextOutputES4_RKT_"
  }
  mangled_function_name: "_ZN7android8hardwarelsINS0_6ParcelEEERNS0_10TextOutputES4_RKT_"
  source_file: "/home/suhwa.kim/CONA_Proj/android/system/libhwbinder/include/hwbinder/TextOutput.h"
  parameters {
    basic_abi {
      type_abi {
        name: "android::hardware::TextOutput &"
        size: 8
        alignment: 8
      }
      name: "to"
      access: public_access
      linker_set_key: "false"
    }
    default_arg: false
  }
  parameters {
    basic_abi {
      type_abi {
        name: "const android::hardware::Parcel &"
        size: 8
        alignment: 8
      }
      name: "val"
      access: public_access
      linker_set_key: "false"
    }
    default_arg: false
  }
  template_info {
    elements {
      basic_abi {
        type_abi {
          name: "android::hardware::Parcel"
          size: 136
          alignment: 8
        }
        linker_set_key: "android::hardware::Parcel"
      }
    }
  }
}
functions {
  basic_abi {
    type_abi {
      name: "android::hardware::TextOutput &"
      size: 8
      alignment: 8
    }
    name: "android::hardware::operator<<"
    access: public_access
    linker_set_key: "_ZN7android8hardwarelsIA14_cEERNS0_10TextOutputES4_RKT_"
  }
  mangled_function_name: "_ZN7android8hardwarelsIA14_cEERNS0_10TextOutputES4_RKT_"
  source_file: "/home/suhwa.kim/CONA_Proj/android/system/libhwbinder/include/hwbinder/TextOutput.h"
  parameters {
    basic_abi {
      type_abi {
        name: "android::hardware::TextOutput &"
        size: 8
        alignment: 8
      }
      name: "to"
      access: public_access
      linker_set_key: "false"
    }
    default_arg: false
  }
  parameters {
    basic_abi {
      type_abi {
        name: "char const (&)[14]"
        size: 8
        alignment: 8
      }
      name: "val"
      access: public_access
      linker_set_key: "false"
    }
    default_arg: false
  }
  template_info {
    elements {
      basic_abi {
        type_abi {
          name: "char [14]"
          size: 14
          alignment: 1
        }
        linker_set_key: "char [14]"
      }
    }
  }
}
functions {
  basic_abi {
    type_abi {
      name: "android::hardware::TextOutput &"
      size: 8
      alignment: 8
    }
    name: "android::hardware::operator<<"
    access: public_access
    linker_set_key: "_ZN7android8hardwarelsIA17_cEERNS0_10TextOutputES4_RKT_"
  }
  mangled_function_name: "_ZN7android8hardwarelsIA17_cEERNS0_10TextOutputES4_RKT_"
  source_file: "/home/suhwa.kim/CONA_Proj/android/system/libhwbinder/include/hwbinder/TextOutput.h"
  parameters {
    basic_abi {
      type_abi {
        name: "android::hardware::TextOutput &"
        size: 8
        alignment: 8
      }
      name: "to"
      access: public_access
      linker_set_key: "false"
    }
    default_arg: false
  }
  parameters {
    basic_abi {
      type_abi {
        name: "char const (&)[17]"
        size: 8
        alignment: 8
      }
      name: "val"
      access: public_access
      linker_set_key: "false"
    }
    default_arg: false
  }
  template_info {
    elements {
      basic_abi {
        type_abi {
          name: "char [17]"
          size: 17
          alignment: 1
        }
        linker_set_key: "char [17]"
      }
    }
  }
}
functions {
  basic_abi {
    type_abi {
      name: "android::hardware::TextOutput &"
      size: 8
      alignment: 8
    }
    name: "android::hardware::operator<<"
    access: public_access
    linker_set_key: "_ZN7android8hardwarelsIA37_cEERNS0_10TextOutputES4_RKT_"
  }
  mangled_function_name: "_ZN7android8hardwarelsIA37_cEERNS0_10TextOutputES4_RKT_"
  source_file: "/home/suhwa.kim/CONA_Proj/android/system/libhwbinder/include/hwbinder/TextOutput.h"
  parameters {
    basic_abi {
      type_abi {
        name: "android::hardware::TextOutput &"
        size: 8
        alignment: 8
      }
      name: "to"
      access: public_access
      linker_set_key: "false"
    }
    default_arg: false
  }
  parameters {
    basic_abi {
      type_abi {
        name: "char const (&)[37]"
        size: 8
        alignment: 8
      }
      name: "val"
      access: public_access
      linker_set_key: "false"
    }
    default_arg: false
  }
  template_info {
    elements {
      basic_abi {
        type_abi {
          name: "char [37]"
          size: 37
          alignment: 1
        }
        linker_set_key: "char [37]"
      }
    }
  }
}
functions {
  basic_abi {
    type_abi {
      name: "android::hardware::TextOutput &"
      size: 8
      alignment: 8
    }
    name: "android::hardware::operator<<"
    access: public_access
    linker_set_key: "_ZN7android8hardwarelsIA29_cEERNS0_10TextOutputES4_RKT_"
  }
  mangled_function_name: "_ZN7android8hardwarelsIA29_cEERNS0_10TextOutputES4_RKT_"
  source_file: "/home/suhwa.kim/CONA_Proj/android/system/libhwbinder/include/hwbinder/TextOutput.h"
  parameters {
    basic_abi {
      type_abi {
        name: "android::hardware::TextOutput &"
        size: 8
        alignment: 8
      }
      name: "to"
      access: public_access
      linker_set_key: "false"
    }
    default_arg: false
  }
  parameters {
    basic_abi {
      type_abi {
        name: "char const (&)[29]"
        size: 8
        alignment: 8
      }
      name: "val"
      access: public_access
      linker_set_key: "false"
    }
    default_arg: false
  }
  template_info {
    elements {
      basic_abi {
        type_abi {
          name: "char [29]"
          size: 29
          alignment: 1
        }
        linker_set_key: "char [29]"
      }
    }
  }
}
functions {
  basic_abi {
    type_abi {
      name: "android::hardware::TextOutput &"
      size: 8
      alignment: 8
    }
    name: "android::hardware::operator<<"
    access: public_access
    linker_set_key: "_ZN7android8hardwarelsINS0_7HexDumpEEERNS0_10TextOutputES4_RKT_"
  }
  mangled_function_name: "_ZN7android8hardwarelsINS0_7HexDumpEEERNS0_10TextOutputES4_RKT_"
  source_file: "/home/suhwa.kim/CONA_Proj/android/system/libhwbinder/include/hwbinder/TextOutput.h"
  parameters {
    basic_abi {
      type_abi {
        name: "android::hardware::TextOutput &"
        size: 8
        alignment: 8
      }
      name: "to"
      access: public_access
      linker_set_key: "false"
    }
    default_arg: false
  }
  parameters {
    basic_abi {
      type_abi {
        name: "const android::hardware::HexDump &"
        size: 8
        alignment: 8
      }
      name: "val"
      access: public_access
      linker_set_key: "false"
    }
    default_arg: false
  }
  template_info {
    elements {
      basic_abi {
        type_abi {
          name: "android::hardware::HexDump"
          size: 48
          alignment: 8
        }
        linker_set_key: "android::hardware::HexDump"
      }
    }
  }
}
functions {
  basic_abi {
    type_abi {
      name: "android::hardware::TextOutput &"
      size: 8
      alignment: 8
    }
    name: "android::hardware::operator<<"
    access: public_access
    linker_set_key: "_ZN7android8hardwarelsIA25_cEERNS0_10TextOutputES4_RKT_"
  }
  mangled_function_name: "_ZN7android8hardwarelsIA25_cEERNS0_10TextOutputES4_RKT_"
  source_file: "/home/suhwa.kim/CONA_Proj/android/system/libhwbinder/include/hwbinder/TextOutput.h"
  parameters {
    basic_abi {
      type_abi {
        name: "android::hardware::TextOutput &"
        size: 8
        alignment: 8
      }
      name: "to"
      access: public_access
      linker_set_key: "false"
    }
    default_arg: false
  }
  parameters {
    basic_abi {
      type_abi {
        name: "char const (&)[25]"
        size: 8
        alignment: 8
      }
      name: "val"
      access: public_access
      linker_set_key: "false"
    }
    default_arg: false
  }
  template_info {
    elements {
      basic_abi {
        type_abi {
          name: "char [25]"
          size: 25
          alignment: 1
        }
        linker_set_key: "char [25]"
      }
    }
  }
}
functions {
  basic_abi {
    type_abi {
      name: "android::hardware::TextOutput &"
      size: 8
      alignment: 8
    }
    name: "android::hardware::operator<<"
    access: public_access
    linker_set_key: "_ZN7android8hardwarelsIbEERNS0_10TextOutputES3_RKT_"
  }
  mangled_function_name: "_ZN7android8hardwarelsIbEERNS0_10TextOutputES3_RKT_"
  source_file: "/home/suhwa.kim/CONA_Proj/android/system/libhwbinder/include/hwbinder/TextOutput.h"
  parameters {
    basic_abi {
      type_abi {
        name: "android::hardware::TextOutput &"
        size: 8
        alignment: 8
      }
      name: "to"
      access: public_access
      linker_set_key: "false"
    }
    default_arg: false
  }
  parameters {
    basic_abi {
      type_abi {
        name: "const bool &"
        size: 8
        alignment: 8
      }
      name: "val"
      access: public_access
      linker_set_key: "false"
    }
    default_arg: false
  }
  template_info {
    elements {
      basic_abi {
        type_abi {
          name: "bool"
          size: 1
          alignment: 1
        }
        linker_set_key: "bool"
      }
    }
  }
}
functions {
  basic_abi {
    type_abi {
      name: "android::hardware::TextOutput &"
      size: 8
      alignment: 8
    }
    name: "android::hardware::operator<<"
    access: public_access
    linker_set_key: "_ZN7android8hardwarelsIA35_cEERNS0_10TextOutputES4_RKT_"
  }
  mangled_function_name: "_ZN7android8hardwarelsIA35_cEERNS0_10TextOutputES4_RKT_"
  source_file: "/home/suhwa.kim/CONA_Proj/android/system/libhwbinder/include/hwbinder/TextOutput.h"
  parameters {
    basic_abi {
      type_abi {
        name: "android::hardware::TextOutput &"
        size: 8
        alignment: 8
      }
      name: "to"
      access: public_access
      linker_set_key: "false"
    }
    default_arg: false
  }
  parameters {
    basic_abi {
      type_abi {
        name: "char const (&)[35]"
        size: 8
        alignment: 8
      }
      name: "val"
      access: public_access
      linker_set_key: "false"
    }
    default_arg: false
  }
  template_info {
    elements {
      basic_abi {
        type_abi {
          name: "char [35]"
          size: 35
          alignment: 1
        }
        linker_set_key: "char [35]"
      }
    }
  }
}
functions {
  basic_abi {
    type_abi {
      name: "android::hardware::TextOutput &"
      size: 8
      alignment: 8
    }
    name: "android::hardware::operator<<"
    access: public_access
    linker_set_key: "_ZN7android8hardwarelsImEERNS0_10TextOutputES3_RKT_"
  }
  mangled_function_name: "_ZN7android8hardwarelsImEERNS0_10TextOutputES3_RKT_"
  source_file: "/home/suhwa.kim/CONA_Proj/android/system/libhwbinder/include/hwbinder/TextOutput.h"
  parameters {
    basic_abi {
      type_abi {
        name: "android::hardware::TextOutput &"
        size: 8
        alignment: 8
      }
      name: "to"
      access: public_access
      linker_set_key: "false"
    }
    default_arg: false
  }
  parameters {
    basic_abi {
      type_abi {
        name: "const unsigned long &"
        size: 8
        alignment: 8
      }
      name: "val"
      access: public_access
      linker_set_key: "false"
    }
    default_arg: false
  }
  template_info {
    elements {
      basic_abi {
        type_abi {
          name: "unsigned long"
          size: 8
          alignment: 8
        }
        linker_set_key: "unsigned long"
      }
    }
  }
}
functions {
  basic_abi {
    type_abi {
      name: "android::hardware::TextOutput &"
      size: 8
      alignment: 8
    }
    name: "android::hardware::operator<<"
    access: public_access
    linker_set_key: "_ZN7android8hardwarelsIA19_cEERNS0_10TextOutputES4_RKT_"
  }
  mangled_function_name: "_ZN7android8hardwarelsIA19_cEERNS0_10TextOutputES4_RKT_"
  source_file: "/home/suhwa.kim/CONA_Proj/android/system/libhwbinder/include/hwbinder/TextOutput.h"
  parameters {
    basic_abi {
      type_abi {
        name: "android::hardware::TextOutput &"
        size: 8
        alignment: 8
      }
      name: "to"
      access: public_access
      linker_set_key: "false"
    }
    default_arg: false
  }
  parameters {
    basic_abi {
      type_abi {
        name: "char const (&)[19]"
        size: 8
        alignment: 8
      }
      name: "val"
      access: public_access
      linker_set_key: "false"
    }
    default_arg: false
  }
  template_info {
    elements {
      basic_abi {
        type_abi {
          name: "char [19]"
          size: 19
          alignment: 1
        }
        linker_set_key: "char [19]"
      }
    }
  }
}
functions {
  basic_abi {
    type_abi {
      name: "android::hardware::TextOutput &"
      size: 8
      alignment: 8
    }
    name: "android::hardware::operator<<"
    access: public_access
    linker_set_key: "_ZN7android8hardwarelsIA22_cEERNS0_10TextOutputES4_RKT_"
  }
  mangled_function_name: "_ZN7android8hardwarelsIA22_cEERNS0_10TextOutputES4_RKT_"
  source_file: "/home/suhwa.kim/CONA_Proj/android/system/libhwbinder/include/hwbinder/TextOutput.h"
  parameters {
    basic_abi {
      type_abi {
        name: "android::hardware::TextOutput &"
        size: 8
        alignment: 8
      }
      name: "to"
      access: public_access
      linker_set_key: "false"
    }
    default_arg: false
  }
  parameters {
    basic_abi {
      type_abi {
        name: "char const (&)[22]"
        size: 8
        alignment: 8
      }
      name: "val"
      access: public_access
      linker_set_key: "false"
    }
    default_arg: false
  }
  template_info {
    elements {
      basic_abi {
        type_abi {
          name: "char [22]"
          size: 22
          alignment: 1
        }
        linker_set_key: "char [22]"
      }
    }
  }
}
functions {
  basic_abi {
    type_abi {
      name: "android::hardware::TextOutput &"
      size: 8
      alignment: 8
    }
    name: "android::hardware::operator<<"
    access: public_access
    linker_set_key: "_ZN7android8hardwarelsIA32_cEERNS0_10TextOutputES4_RKT_"
  }
  mangled_function_name: "_ZN7android8hardwarelsIA32_cEERNS0_10TextOutputES4_RKT_"
  source_file: "/home/suhwa.kim/CONA_Proj/android/system/libhwbinder/include/hwbinder/TextOutput.h"
  parameters {
    basic_abi {
      type_abi {
        name: "android::hardware::TextOutput &"
        size: 8
        alignment: 8
      }
      name: "to"
      access: public_access
      linker_set_key: "false"
    }
    default_arg: false
  }
  parameters {
    basic_abi {
      type_abi {
        name: "char const (&)[32]"
        size: 8
        alignment: 8
      }
      name: "val"
      access: public_access
      linker_set_key: "false"
    }
    default_arg: false
  }
  template_info {
    elements {
      basic_abi {
        type_abi {
          name: "char [32]"
          size: 32
          alignment: 1
        }
        linker_set_key: "char [32]"
      }
    }
  }
}
functions {
  basic_abi {
    type_abi {
      name: "android::hardware::TextOutput &"
      size: 8
      alignment: 8
    }
    name: "android::hardware::operator<<"
    access: public_access
    linker_set_key: "_ZN7android8hardwarelsIPKhEERNS0_10TextOutputES5_RKT_"
  }
  mangled_function_name: "_ZN7android8hardwarelsIPKhEERNS0_10TextOutputES5_RKT_"
  source_file: "/home/suhwa.kim/CONA_Proj/android/system/libhwbinder/include/hwbinder/TextOutput.h"
  parameters {
    basic_abi {
      type_abi {
        name: "android::hardware::TextOutput &"
        size: 8
        alignment: 8
      }
      name: "to"
      access: public_access
      linker_set_key: "false"
    }
    default_arg: false
  }
  parameters {
    basic_abi {
      type_abi {
        name: "const unsigned char *const &"
        size: 8
        alignment: 8
      }
      name: "val"
      access: public_access
      linker_set_key: "false"
    }
    default_arg: false
  }
  template_info {
    elements {
      basic_abi {
        type_abi {
          name: "const unsigned char *"
          size: 8
          alignment: 8
        }
        linker_set_key: "const unsigned char *"
      }
    }
  }
}
functions {
  basic_abi {
    type_abi {
      name: "android::hardware::TextOutput &"
      size: 8
      alignment: 8
    }
    name: "android::hardware::operator<<"
    access: public_access
    linker_set_key: "_ZN7android8hardwarelsIPKmEERNS0_10TextOutputES5_RKT_"
  }
  mangled_function_name: "_ZN7android8hardwarelsIPKmEERNS0_10TextOutputES5_RKT_"
  source_file: "/home/suhwa.kim/CONA_Proj/android/system/libhwbinder/include/hwbinder/TextOutput.h"
  parameters {
    basic_abi {
      type_abi {
        name: "android::hardware::TextOutput &"
        size: 8
        alignment: 8
      }
      name: "to"
      access: public_access
      linker_set_key: "false"
    }
    default_arg: false
  }
  parameters {
    basic_abi {
      type_abi {
        name: "const unsigned long *const &"
        size: 8
        alignment: 8
      }
      name: "val"
      access: public_access
      linker_set_key: "false"
    }
    default_arg: false
  }
  template_info {
    elements {
      basic_abi {
        type_abi {
          name: "const unsigned long *"
          size: 8
          alignment: 8
        }
        linker_set_key: "const unsigned long *"
      }
    }
  }
}
functions {
  basic_abi {
    type_abi {
      name: "android::hardware::TextOutput &"
      size: 8
      alignment: 8
    }
    name: "android::hardware::operator<<"
    access: public_access
    linker_set_key: "_ZN7android8hardwarelsIA28_cEERNS0_10TextOutputES4_RKT_"
  }
  mangled_function_name: "_ZN7android8hardwarelsIA28_cEERNS0_10TextOutputES4_RKT_"
  source_file: "/home/suhwa.kim/CONA_Proj/android/system/libhwbinder/include/hwbinder/TextOutput.h"
  parameters {
    basic_abi {
      type_abi {
        name: "android::hardware::TextOutput &"
        size: 8
        alignment: 8
      }
      name: "to"
      access: public_access
      linker_set_key: "false"
    }
    default_arg: false
  }
  parameters {
    basic_abi {
      type_abi {
        name: "char const (&)[28]"
        size: 8
        alignment: 8
      }
      name: "val"
      access: public_access
      linker_set_key: "false"
    }
    default_arg: false
  }
  template_info {
    elements {
      basic_abi {
        type_abi {
          name: "char [28]"
          size: 28
          alignment: 1
        }
        linker_set_key: "char [28]"
      }
    }
  }
}
functions {
  basic_abi {
    type_abi {
      name: "android::hardware::TextOutput &"
      size: 8
      alignment: 8
    }
    name: "android::hardware::operator<<"
    access: public_access
    linker_set_key: "_ZN7android8hardwarelsERNS0_10TextOutputEPFS2_S2_E"
  }
  mangled_function_name: "_ZN7android8hardwarelsERNS0_10TextOutputEPFS2_S2_E"
  source_file: "/home/suhwa.kim/CONA_Proj/android/system/libhwbinder/include/hwbinder/TextOutput.h"
  parameters {
    basic_abi {
      type_abi {
        name: "android::hardware::TextOutput &"
        size: 8
        alignment: 8
      }
      name: "to"
      access: public_access
      linker_set_key: "false"
    }
    default_arg: false
  }
  parameters {
    basic_abi {
      type_abi {
        name: "android::hardware::TextOutput &(*)(android::hardware::TextOutput &)"
        size: 8
        alignment: 8
      }
      name: "func"
      access: public_access
      linker_set_key: "false"
    }
    default_arg: false
  }
}
functions {
  basic_abi {
    type_abi {
      name: "void"
    }
    name: "android::hardware::TypeCode::TypeCode"
    access: public_access
    linker_set_key: "_ZN7android8hardware8TypeCodeC1Ej"
  }
  mangled_function_name: "_ZN7android8hardware8TypeCodeC1Ej"
  source_file: "/home/suhwa.kim/CONA_Proj/android/system/libhwbinder/include/hwbinder/TextOutput.h"
  parameters {
    basic_abi {
      type_abi {
        name: "unsigned int"
        size: 4
        alignment: 4
      }
      name: "code"
      access: public_access
      linker_set_key: "false"
    }
    default_arg: false
  }
}
functions {
  basic_abi {
    type_abi {
      name: "void"
    }
    name: "android::hardware::TypeCode::~TypeCode"
    access: public_access
    linker_set_key: "_ZN7android8hardware8TypeCodeD0Ev"
  }
  mangled_function_name: "_ZN7android8hardware8TypeCodeD0Ev"
  source_file: "/home/suhwa.kim/CONA_Proj/android/system/libhwbinder/include/hwbinder/TextOutput.h"
}
functions {
  basic_abi {
    type_abi {
      name: "unsigned int"
      size: 4
      alignment: 4
    }
    name: "android::hardware::TypeCode::typeCode"
    access: public_access
    linker_set_key: "_ZNK7android8hardware8TypeCode8typeCodeEv"
  }
  mangled_function_name: "_ZNK7android8hardware8TypeCode8typeCodeEv"
  source_file: "/home/suhwa.kim/CONA_Proj/android/system/libhwbinder/include/hwbinder/TextOutput.h"
}
functions {
  basic_abi {
    type_abi {
      name: "android::hardware::TextOutput &"
      size: 8
      alignment: 8
    }
    name: "android::hardware::operator<<"
    access: public_access
    linker_set_key: "_ZN7android8hardwarelsERNS0_10TextOutputERKNS0_8TypeCodeE"
  }
  mangled_function_name: "_ZN7android8hardwarelsERNS0_10TextOutputERKNS0_8TypeCodeE"
  source_file: "/home/suhwa.kim/CONA_Proj/android/system/libhwbinder/include/hwbinder/TextOutput.h"
  parameters {
    basic_abi {
      type_abi {
        name: "android::hardware::TextOutput &"
        size: 8
        alignment: 8
      }
      name: "to"
      access: public_access
      linker_set_key: "false"
    }
    default_arg: false
  }
  parameters {
    basic_abi {
      type_abi {
        name: "const android::hardware::TypeCode &"
        size: 8
        alignment: 8
      }
      name: "val"
      access: public_access
      linker_set_key: "false"
    }
    default_arg: false
  }
}
functions {
  basic_abi {
    type_abi {
      name: "void"
    }
    name: "android::hardware::HexDump::HexDump"
    access: public_access
    linker_set_key: "_ZN7android8hardware7HexDumpC1EPKvmm"
  }
  mangled_function_name: "_ZN7android8hardware7HexDumpC1EPKvmm"
  source_file: "/home/suhwa.kim/CONA_Proj/android/system/libhwbinder/include/hwbinder/TextOutput.h"
  parameters {
    basic_abi {
      type_abi {
        name: "const void *"
        size: 8
        alignment: 8
      }
      name: "buf"
      access: public_access
      linker_set_key: "false"
    }
    default_arg: false
  }
  parameters {
    basic_abi {
      type_abi {
        name: "unsigned long"
        size: 8
        alignment: 8
      }
      name: "size"
      access: public_access
      linker_set_key: "false"
    }
    default_arg: false
  }
  parameters {
    basic_abi {
      type_abi {
        name: "unsigned long"
        size: 8
        alignment: 8
      }
      name: "bytesPerLine"
      access: public_access
      linker_set_key: "true"
    }
    default_arg: true
  }
}
functions {
  basic_abi {
    type_abi {
      name: "void"
    }
    name: "android::hardware::HexDump::~HexDump"
    access: public_access
    linker_set_key: "_ZN7android8hardware7HexDumpD0Ev"
  }
  mangled_function_name: "_ZN7android8hardware7HexDumpD0Ev"
  source_file: "/home/suhwa.kim/CONA_Proj/android/system/libhwbinder/include/hwbinder/TextOutput.h"
}
functions {
  basic_abi {
    type_abi {
      name: "android::hardware::HexDump &"
      size: 8
      alignment: 8
    }
    name: "android::hardware::HexDump::setBytesPerLine"
    access: public_access
    linker_set_key: "_ZN7android8hardware7HexDump15setBytesPerLineEm"
  }
  mangled_function_name: "_ZN7android8hardware7HexDump15setBytesPerLineEm"
  source_file: "/home/suhwa.kim/CONA_Proj/android/system/libhwbinder/include/hwbinder/TextOutput.h"
  parameters {
    basic_abi {
      type_abi {
        name: "unsigned long"
        size: 8
        alignment: 8
      }
      name: "bytesPerLine"
      access: public_access
      linker_set_key: "false"
    }
    default_arg: false
  }
}
functions {
  basic_abi {
    type_abi {
      name: "android::hardware::HexDump &"
      size: 8
      alignment: 8
    }
    name: "android::hardware::HexDump::setSingleLineCutoff"
    access: public_access
    linker_set_key: "_ZN7android8hardware7HexDump19setSingleLineCutoffEi"
  }
  mangled_function_name: "_ZN7android8hardware7HexDump19setSingleLineCutoffEi"
  source_file: "/home/suhwa.kim/CONA_Proj/android/system/libhwbinder/include/hwbinder/TextOutput.h"
  parameters {
    basic_abi {
      type_abi {
        name: "int"
        size: 4
        alignment: 4
      }
      name: "bytes"
      access: public_access
      linker_set_key: "false"
    }
    default_arg: false
  }
}
functions {
  basic_abi {
    type_abi {
      name: "android::hardware::HexDump &"
      size: 8
      alignment: 8
    }
    name: "android::hardware::HexDump::setAlignment"
    access: public_access
    linker_set_key: "_ZN7android8hardware7HexDump12setAlignmentEm"
  }
  mangled_function_name: "_ZN7android8hardware7HexDump12setAlignmentEm"
  source_file: "/home/suhwa.kim/CONA_Proj/android/system/libhwbinder/include/hwbinder/TextOutput.h"
  parameters {
    basic_abi {
      type_abi {
        name: "unsigned long"
        size: 8
        alignment: 8
      }
      name: "alignment"
      access: public_access
      linker_set_key: "false"
    }
    default_arg: false
  }
}
functions {
  basic_abi {
    type_abi {
      name: "android::hardware::HexDump &"
      size: 8
      alignment: 8
    }
    name: "android::hardware::HexDump::setCArrayStyle"
    access: public_access
    linker_set_key: "_ZN7android8hardware7HexDump14setCArrayStyleEb"
  }
  mangled_function_name: "_ZN7android8hardware7HexDump14setCArrayStyleEb"
  source_file: "/home/suhwa.kim/CONA_Proj/android/system/libhwbinder/include/hwbinder/TextOutput.h"
  parameters {
    basic_abi {
      type_abi {
        name: "bool"
        size: 1
        alignment: 1
      }
      name: "enabled"
      access: public_access
      linker_set_key: "false"
    }
    default_arg: false
  }
}
functions {
  basic_abi {
    type_abi {
      name: "const void *"
      size: 8
      alignment: 8
    }
    name: "android::hardware::HexDump::buffer"
    access: public_access
    linker_set_key: "_ZNK7android8hardware7HexDump6bufferEv"
  }
  mangled_function_name: "_ZNK7android8hardware7HexDump6bufferEv"
  source_file: "/home/suhwa.kim/CONA_Proj/android/system/libhwbinder/include/hwbinder/TextOutput.h"
}
functions {
  basic_abi {
    type_abi {
      name: "unsigned long"
      size: 8
      alignment: 8
    }
    name: "android::hardware::HexDump::size"
    access: public_access
    linker_set_key: "_ZNK7android8hardware7HexDump4sizeEv"
  }
  mangled_function_name: "_ZNK7android8hardware7HexDump4sizeEv"
  source_file: "/home/suhwa.kim/CONA_Proj/android/system/libhwbinder/include/hwbinder/TextOutput.h"
}
functions {
  basic_abi {
    type_abi {
      name: "unsigned long"
      size: 8
      alignment: 8
    }
    name: "android::hardware::HexDump::bytesPerLine"
    access: public_access
    linker_set_key: "_ZNK7android8hardware7HexDump12bytesPerLineEv"
  }
  mangled_function_name: "_ZNK7android8hardware7HexDump12bytesPerLineEv"
  source_file: "/home/suhwa.kim/CONA_Proj/android/system/libhwbinder/include/hwbinder/TextOutput.h"
}
functions {
  basic_abi {
    type_abi {
      name: "int"
      size: 4
      alignment: 4
    }
    name: "android::hardware::HexDump::singleLineCutoff"
    access: public_access
    linker_set_key: "_ZNK7android8hardware7HexDump16singleLineCutoffEv"
  }
  mangled_function_name: "_ZNK7android8hardware7HexDump16singleLineCutoffEv"
  source_file: "/home/suhwa.kim/CONA_Proj/android/system/libhwbinder/include/hwbinder/TextOutput.h"
}
functions {
  basic_abi {
    type_abi {
      name: "unsigned long"
      size: 8
      alignment: 8
    }
    name: "android::hardware::HexDump::alignment"
    access: public_access
    linker_set_key: "_ZNK7android8hardware7HexDump9alignmentEv"
  }
  mangled_function_name: "_ZNK7android8hardware7HexDump9alignmentEv"
  source_file: "/home/suhwa.kim/CONA_Proj/android/system/libhwbinder/include/hwbinder/TextOutput.h"
}
functions {
  basic_abi {
    type_abi {
      name: "bool"
      size: 1
      alignment: 1
    }
    name: "android::hardware::HexDump::carrayStyle"
    access: public_access
    linker_set_key: "_ZNK7android8hardware7HexDump11carrayStyleEv"
  }
  mangled_function_name: "_ZNK7android8hardware7HexDump11carrayStyleEv"
  source_file: "/home/suhwa.kim/CONA_Proj/android/system/libhwbinder/include/hwbinder/TextOutput.h"
}
functions {
  basic_abi {
    type_abi {
      name: "android::hardware::TextOutput &"
      size: 8
      alignment: 8
    }
    name: "android::hardware::operator<<"
    access: public_access
    linker_set_key: "_ZN7android8hardwarelsERNS0_10TextOutputERKNS0_7HexDumpE"
  }
  mangled_function_name: "_ZN7android8hardwarelsERNS0_10TextOutputERKNS0_7HexDumpE"
  source_file: "/home/suhwa.kim/CONA_Proj/android/system/libhwbinder/include/hwbinder/TextOutput.h"
  parameters {
    basic_abi {
      type_abi {
        name: "android::hardware::TextOutput &"
        size: 8
        alignment: 8
      }
      name: "to"
      access: public_access
      linker_set_key: "false"
    }
    default_arg: false
  }
  parameters {
    basic_abi {
      type_abi {
        name: "const android::hardware::HexDump &"
        size: 8
        alignment: 8
      }
      name: "val"
      access: public_access
      linker_set_key: "false"
    }
    default_arg: false
  }
}
functions {
  basic_abi {
    type_abi {
      name: "android::hardware::TextOutput &"
      size: 8
      alignment: 8
    }
    name: "android::hardware::operator<<"
    access: public_access
    linker_set_key: "_ZN7android8hardwarelsERNS0_10TextOutputEPFRNSt3__113basic_ostreamIcNS3_11char_traitsIcEEEES8_E"
  }
  mangled_function_name: "_ZN7android8hardwarelsERNS0_10TextOutputEPFRNSt3__113basic_ostreamIcNS3_11char_traitsIcEEEES8_E"
  source_file: "/home/suhwa.kim/CONA_Proj/android/system/libhwbinder/include/hwbinder/TextOutput.h"
  parameters {
    basic_abi {
      type_abi {
        name: "android::hardware::TextOutput &"
        size: 8
        alignment: 8
      }
      name: "to"
      access: public_access
      linker_set_key: "false"
    }
    default_arg: false
  }
  parameters {
    basic_abi {
      type_abi {
        name: "std::basic_ostream<char, std::char_traits<char> > &(*)(std::basic_ostream<char, std::char_traits<char> > &)"
        size: 8
        alignment: 8
      }
      name: ""
      access: public_access
      linker_set_key: "false"
    }
    default_arg: false
  }
}
functions {
  basic_abi {
    type_abi {
      name: "android::hardware::TextOutput &"
      size: 8
      alignment: 8
    }
    name: "android::hardware::operator<<"
    access: public_access
    linker_set_key: "_ZN7android8hardwarelsERNS0_10TextOutputERKc"
  }
  mangled_function_name: "_ZN7android8hardwarelsERNS0_10TextOutputERKc"
  source_file: "/home/suhwa.kim/CONA_Proj/android/system/libhwbinder/include/hwbinder/TextOutput.h"
  parameters {
    basic_abi {
      type_abi {
        name: "android::hardware::TextOutput &"
        size: 8
        alignment: 8
      }
      name: "to"
      access: public_access
      linker_set_key: "false"
    }
    default_arg: false
  }
  parameters {
    basic_abi {
      type_abi {
        name: "const char &"
        size: 8
        alignment: 8
      }
      name: "c"
      access: public_access
      linker_set_key: "false"
    }
    default_arg: false
  }
}
functions {
  basic_abi {
    type_abi {
      name: "android::hardware::TextOutput &"
      size: 8
      alignment: 8
    }
    name: "android::hardware::operator<<"
    access: public_access
    linker_set_key: "_ZN7android8hardwarelsERNS0_10TextOutputERKb"
  }
  mangled_function_name: "_ZN7android8hardwarelsERNS0_10TextOutputERKb"
  source_file: "/home/suhwa.kim/CONA_Proj/android/system/libhwbinder/include/hwbinder/TextOutput.h"
  parameters {
    basic_abi {
      type_abi {
        name: "android::hardware::TextOutput &"
        size: 8
        alignment: 8
      }
      name: "to"
      access: public_access
      linker_set_key: "false"
    }
    default_arg: false
  }
  parameters {
    basic_abi {
      type_abi {
        name: "const bool &"
        size: 8
        alignment: 8
      }
      name: "val"
      access: public_access
      linker_set_key: "false"
    }
    default_arg: false
  }
}
functions {
  basic_abi {
    type_abi {
      name: "android::hardware::TextOutput &"
      size: 8
      alignment: 8
    }
    name: "android::hardware::operator<<"
    access: public_access
    linker_set_key: "_ZN7android8hardwarelsERNS0_10TextOutputERKNS_8String16E"
  }
  mangled_function_name: "_ZN7android8hardwarelsERNS0_10TextOutputERKNS_8String16E"
  source_file: "/home/suhwa.kim/CONA_Proj/android/system/libhwbinder/include/hwbinder/TextOutput.h"
  parameters {
    basic_abi {
      type_abi {
        name: "android::hardware::TextOutput &"
        size: 8
        alignment: 8
      }
      name: "to"
      access: public_access
      linker_set_key: "false"
    }
    default_arg: false
  }
  parameters {
    basic_abi {
      type_abi {
        name: "const android::String16 &"
        size: 8
        alignment: 8
      }
      name: "val"
      access: public_access
      linker_set_key: "false"
    }
    default_arg: false
  }
}
functions {
  basic_abi {
    type_abi {
      name: "android::hardware::TextOutput &"
      size: 8
      alignment: 8
    }
    name: "android::hardware::endl"
    access: public_access
    linker_set_key: "_ZN7android8hardware4endlERNS0_10TextOutputE"
  }
  mangled_function_name: "_ZN7android8hardware4endlERNS0_10TextOutputE"
  source_file: "/home/suhwa.kim/CONA_Proj/android/system/libhwbinder/include/hwbinder/TextOutput.h"
  parameters {
    basic_abi {
      type_abi {
        name: "android::hardware::TextOutput &"
        size: 8
        alignment: 8
      }
      name: "to"
      access: public_access
      linker_set_key: "false"
    }
    default_arg: false
  }
}
functions {
  basic_abi {
    type_abi {
      name: "android::hardware::TextOutput &"
      size: 8
      alignment: 8
    }
    name: "android::hardware::indent"
    access: public_access
    linker_set_key: "_ZN7android8hardware6indentERNS0_10TextOutputE"
  }
  mangled_function_name: "_ZN7android8hardware6indentERNS0_10TextOutputE"
  source_file: "/home/suhwa.kim/CONA_Proj/android/system/libhwbinder/include/hwbinder/TextOutput.h"
  parameters {
    basic_abi {
      type_abi {
        name: "android::hardware::TextOutput &"
        size: 8
        alignment: 8
      }
      name: "to"
      access: public_access
      linker_set_key: "false"
    }
    default_arg: false
  }
}
functions {
  basic_abi {
    type_abi {
      name: "android::hardware::TextOutput &"
      size: 8
      alignment: 8
    }
    name: "android::hardware::dedent"
    access: public_access
    linker_set_key: "_ZN7android8hardware6dedentERNS0_10TextOutputE"
  }
  mangled_function_name: "_ZN7android8hardware6dedentERNS0_10TextOutputE"
  source_file: "/home/suhwa.kim/CONA_Proj/android/system/libhwbinder/include/hwbinder/TextOutput.h"
  parameters {
    basic_abi {
      type_abi {
        name: "android::hardware::TextOutput &"
        size: 8
        alignment: 8
      }
      name: "to"
      access: public_access
      linker_set_key: "false"
    }
    default_arg: false
  }
}
functions {
  basic_abi {
    type_abi {
      name: "android::hardware::TextOutput &"
      size: 8
      alignment: 8
    }
    name: "android::hardware::operator<<"
    access: public_access
    linker_set_key: "_ZN7android8hardwarelsERNS0_10TextOutputEPFS2_S2_E"
  }
  mangled_function_name: "_ZN7android8hardwarelsERNS0_10TextOutputEPFS2_S2_E"
  source_file: "/home/suhwa.kim/CONA_Proj/android/system/libhwbinder/include/hwbinder/TextOutput.h"
  parameters {
    basic_abi {
      type_abi {
        name: "android::hardware::TextOutput &"
        size: 8
        alignment: 8
      }
      name: "to"
      access: public_access
      linker_set_key: "false"
    }
    default_arg: false
  }
  parameters {
    basic_abi {
      type_abi {
        name: "android::hardware::TextOutput &(*)(android::hardware::TextOutput &)"
        size: 8
        alignment: 8
      }
      name: "func"
      access: public_access
      linker_set_key: "false"
    }
    default_arg: false
  }
}
functions {
  basic_abi {
    type_abi {
      name: "void"
    }
    name: "android::hardware::TypeCode::TypeCode"
    access: public_access
    linker_set_key: "_ZN7android8hardware8TypeCodeC1Ej"
  }
  mangled_function_name: "_ZN7android8hardware8TypeCodeC1Ej"
  source_file: "/home/suhwa.kim/CONA_Proj/android/system/libhwbinder/include/hwbinder/TextOutput.h"
  parameters {
    basic_abi {
      type_abi {
        name: "unsigned int"
        size: 4
        alignment: 4
      }
      name: "code"
      access: public_access
      linker_set_key: "false"
    }
    default_arg: false
  }
}
functions {
  basic_abi {
    type_abi {
      name: "void"
    }
    name: "android::hardware::TypeCode::~TypeCode"
    access: public_access
    linker_set_key: "_ZN7android8hardware8TypeCodeD0Ev"
  }
  mangled_function_name: "_ZN7android8hardware8TypeCodeD0Ev"
  source_file: "/home/suhwa.kim/CONA_Proj/android/system/libhwbinder/include/hwbinder/TextOutput.h"
}
functions {
  basic_abi {
    type_abi {
      name: "unsigned int"
      size: 4
      alignment: 4
    }
    name: "android::hardware::TypeCode::typeCode"
    access: public_access
    linker_set_key: "_ZNK7android8hardware8TypeCode8typeCodeEv"
  }
  mangled_function_name: "_ZNK7android8hardware8TypeCode8typeCodeEv"
  source_file: "/home/suhwa.kim/CONA_Proj/android/system/libhwbinder/include/hwbinder/TextOutput.h"
}
functions {
  basic_abi {
    type_abi {
      name: "void"
    }
    name: "android::hardware::HexDump::~HexDump"
    access: public_access
    linker_set_key: "_ZN7android8hardware7HexDumpD0Ev"
  }
  mangled_function_name: "_ZN7android8hardware7HexDumpD0Ev"
  source_file: "/home/suhwa.kim/CONA_Proj/android/system/libhwbinder/include/hwbinder/TextOutput.h"
}
functions {
  basic_abi {
    type_abi {
      name: "android::hardware::HexDump &"
      size: 8
      alignment: 8
    }
    name: "android::hardware::HexDump::setBytesPerLine"
    access: public_access
    linker_set_key: "_ZN7android8hardware7HexDump15setBytesPerLineEm"
  }
  mangled_function_name: "_ZN7android8hardware7HexDump15setBytesPerLineEm"
  source_file: "/home/suhwa.kim/CONA_Proj/android/system/libhwbinder/include/hwbinder/TextOutput.h"
  parameters {
    basic_abi {
      type_abi {
        name: "unsigned long"
        size: 8
        alignment: 8
      }
      name: "bytesPerLine"
      access: public_access
      linker_set_key: "false"
    }
    default_arg: false
  }
}
functions {
  basic_abi {
    type_abi {
      name: "android::hardware::HexDump &"
      size: 8
      alignment: 8
    }
    name: "android::hardware::HexDump::setSingleLineCutoff"
    access: public_access
    linker_set_key: "_ZN7android8hardware7HexDump19setSingleLineCutoffEi"
  }
  mangled_function_name: "_ZN7android8hardware7HexDump19setSingleLineCutoffEi"
  source_file: "/home/suhwa.kim/CONA_Proj/android/system/libhwbinder/include/hwbinder/TextOutput.h"
  parameters {
    basic_abi {
      type_abi {
        name: "int"
        size: 4
        alignment: 4
      }
      name: "bytes"
      access: public_access
      linker_set_key: "false"
    }
    default_arg: false
  }
}
functions {
  basic_abi {
    type_abi {
      name: "android::hardware::HexDump &"
      size: 8
      alignment: 8
    }
    name: "android::hardware::HexDump::setAlignment"
    access: public_access
    linker_set_key: "_ZN7android8hardware7HexDump12setAlignmentEm"
  }
  mangled_function_name: "_ZN7android8hardware7HexDump12setAlignmentEm"
  source_file: "/home/suhwa.kim/CONA_Proj/android/system/libhwbinder/include/hwbinder/TextOutput.h"
  parameters {
    basic_abi {
      type_abi {
        name: "unsigned long"
        size: 8
        alignment: 8
      }
      name: "alignment"
      access: public_access
      linker_set_key: "false"
    }
    default_arg: false
  }
}
functions {
  basic_abi {
    type_abi {
      name: "android::hardware::HexDump &"
      size: 8
      alignment: 8
    }
    name: "android::hardware::HexDump::setCArrayStyle"
    access: public_access
    linker_set_key: "_ZN7android8hardware7HexDump14setCArrayStyleEb"
  }
  mangled_function_name: "_ZN7android8hardware7HexDump14setCArrayStyleEb"
  source_file: "/home/suhwa.kim/CONA_Proj/android/system/libhwbinder/include/hwbinder/TextOutput.h"
  parameters {
    basic_abi {
      type_abi {
        name: "bool"
        size: 1
        alignment: 1
      }
      name: "enabled"
      access: public_access
      linker_set_key: "false"
    }
    default_arg: false
  }
}
functions {
  basic_abi {
    type_abi {
      name: "const void *"
      size: 8
      alignment: 8
    }
    name: "android::hardware::HexDump::buffer"
    access: public_access
    linker_set_key: "_ZNK7android8hardware7HexDump6bufferEv"
  }
  mangled_function_name: "_ZNK7android8hardware7HexDump6bufferEv"
  source_file: "/home/suhwa.kim/CONA_Proj/android/system/libhwbinder/include/hwbinder/TextOutput.h"
}
functions {
  basic_abi {
    type_abi {
      name: "unsigned long"
      size: 8
      alignment: 8
    }
    name: "android::hardware::HexDump::size"
    access: public_access
    linker_set_key: "_ZNK7android8hardware7HexDump4sizeEv"
  }
  mangled_function_name: "_ZNK7android8hardware7HexDump4sizeEv"
  source_file: "/home/suhwa.kim/CONA_Proj/android/system/libhwbinder/include/hwbinder/TextOutput.h"
}
functions {
  basic_abi {
    type_abi {
      name: "unsigned long"
      size: 8
      alignment: 8
    }
    name: "android::hardware::HexDump::bytesPerLine"
    access: public_access
    linker_set_key: "_ZNK7android8hardware7HexDump12bytesPerLineEv"
  }
  mangled_function_name: "_ZNK7android8hardware7HexDump12bytesPerLineEv"
  source_file: "/home/suhwa.kim/CONA_Proj/android/system/libhwbinder/include/hwbinder/TextOutput.h"
}
functions {
  basic_abi {
    type_abi {
      name: "int"
      size: 4
      alignment: 4
    }
    name: "android::hardware::HexDump::singleLineCutoff"
    access: public_access
    linker_set_key: "_ZNK7android8hardware7HexDump16singleLineCutoffEv"
  }
  mangled_function_name: "_ZNK7android8hardware7HexDump16singleLineCutoffEv"
  source_file: "/home/suhwa.kim/CONA_Proj/android/system/libhwbinder/include/hwbinder/TextOutput.h"
}
functions {
  basic_abi {
    type_abi {
      name: "unsigned long"
      size: 8
      alignment: 8
    }
    name: "android::hardware::HexDump::alignment"
    access: public_access
    linker_set_key: "_ZNK7android8hardware7HexDump9alignmentEv"
  }
  mangled_function_name: "_ZNK7android8hardware7HexDump9alignmentEv"
  source_file: "/home/suhwa.kim/CONA_Proj/android/system/libhwbinder/include/hwbinder/TextOutput.h"
}
functions {
  basic_abi {
    type_abi {
      name: "bool"
      size: 1
      alignment: 1
    }
    name: "android::hardware::HexDump::carrayStyle"
    access: public_access
    linker_set_key: "_ZNK7android8hardware7HexDump11carrayStyleEv"
  }
  mangled_function_name: "_ZNK7android8hardware7HexDump11carrayStyleEv"
  source_file: "/home/suhwa.kim/CONA_Proj/android/system/libhwbinder/include/hwbinder/TextOutput.h"
}
enums {
  basic_abi {
    type_abi {
      name: "unsigned int"
      size: 4
      alignment: 4
    }
    name: "android::hardware::IBinder::(anonymous)"
    access: public_access
    linker_set_key: "_ZN7android8hardware7IBinderUt_E"
  }
  enum_fields {
    basic_abi {
      type_abi {
        name: "android::hardware::IBinder::(anonymous)"
        size: 4
        alignment: 4
      }
      name: "android::hardware::IBinder::FLAG_ONEWAY"
      access: public_access
      linker_set_key: "1"
    }
    enum_field_value: 1
  }
  source_file: "/home/suhwa.kim/CONA_Proj/android/system/libhwbinder/include/hwbinder/IBinder.h"
}
enums {
  basic_abi {
    type_abi {
      name: "unsigned int"
      size: 4
      alignment: 4
    }
    name: "(anonymous)"
    access: public_access
    linker_set_key: "_Z3$_0"
  }
  enum_fields {
    basic_abi {
      type_abi {
        name: "(anonymous)"
        size: 4
        alignment: 4
      }
      name: "BINDER_TYPE_PTR"
      access: public_access
      linker_set_key: "1886661253"
    }
    enum_field_value: 1886661253
  }
  enum_fields {
    basic_abi {
      type_abi {
        name: "(anonymous)"
        size: 4
        alignment: 4
      }
      name: "BINDER_TYPE_FDA"
      access: public_access
      linker_set_key: "1717854597"
    }
    enum_field_value: 1717854597
  }
  source_file: "/home/suhwa.kim/CONA_Proj/android/system/libhwbinder/include/hwbinder/binder_kernel.h"
}
enums {
  basic_abi {
    type_abi {
      name: "unsigned int"
      size: 4
      alignment: 4
    }
    name: "(anonymous)"
    access: public_access
    linker_set_key: "_Z3$_1"
  }
  enum_fields {
    basic_abi {
      type_abi {
        name: "(anonymous)"
        size: 4
        alignment: 4
      }
      name: "BINDER_BUFFER_HAS_PARENT"
      access: public_access
      linker_set_key: "1"
    }
    enum_field_value: 1
  }
  enum_fields {
    basic_abi {
      type_abi {
        name: "(anonymous)"
        size: 4
        alignment: 4
      }
      name: "BINDER_BUFFER_REF"
      access: public_access
      linker_set_key: "2"
    }
    enum_field_value: 2
  }
  source_file: "/home/suhwa.kim/CONA_Proj/android/system/libhwbinder/include/hwbinder/binder_kernel.h"
}
enums {
  basic_abi {
    type_abi {
      name: "unsigned int"
      size: 4
      alignment: 4
    }
    name: "(anonymous)"
    access: public_access
    linker_set_key: "_Z3$_2"
  }
  enum_fields {
    basic_abi {
      type_abi {
        name: "(anonymous)"
        size: 4
        alignment: 4
      }
      name: "BC_TRANSACTION_SG"
      access: public_access
      linker_set_key: "1078485777"
    }
    enum_field_value: 1078485777
  }
  enum_fields {
    basic_abi {
      type_abi {
        name: "(anonymous)"
        size: 4
        alignment: 4
      }
      name: "BC_REPLY_SG"
      access: public_access
      linker_set_key: "1078485778"
    }
    enum_field_value: 1078485778
  }
  source_file: "/home/suhwa.kim/CONA_Proj/android/system/libhwbinder/include/hwbinder/binder_kernel.h"
}
enums {
  basic_abi {
    type_abi {
      name: "unsigned int"
      size: 4
      alignment: 4
    }
    name: "(anonymous)"
    access: public_access
    linker_set_key: "_Z3$_3"
  }
  enum_fields {
    basic_abi {
      type_abi {
        name: "(anonymous)"
        size: 4
        alignment: 4
      }
      name: "FLAT_BINDER_FLAG_SCHEDPOLICY_MASK"
      access: public_access
      linker_set_key: "1536"
    }
    enum_field_value: 1536
  }
  enum_fields {
    basic_abi {
      type_abi {
        name: "(anonymous)"
        size: 4
        alignment: 4
      }
      name: "FLAT_BINDER_FLAG_SCHEDPOLICY_SHIFT"
      access: public_access
      linker_set_key: "9"
    }
    enum_field_value: 9
  }
  source_file: "/home/suhwa.kim/CONA_Proj/android/system/libhwbinder/include/hwbinder/binder_kernel.h"
}
global_vars {
  basic_abi {
    type_abi {
      name: "android::hardware::TextOutput &"
      size: 8
      alignment: 8
    }
    name: "android::hardware::alog"
    access: public_access
    linker_set_key: "_ZN7android8hardware4alogE"
  }
  source_file: "/home/suhwa.kim/CONA_Proj/android/system/libhwbinder/include/hwbinder/TextOutput.h"
}
global_vars {
  basic_abi {
    type_abi {
      name: "android::hardware::TextOutput &"
      size: 8
      alignment: 8
    }
    name: "android::hardware::aout"
    access: public_access
    linker_set_key: "_ZN7android8hardware4aoutE"
  }
  source_file: "/home/suhwa.kim/CONA_Proj/android/system/libhwbinder/include/hwbinder/TextOutput.h"
}
global_vars {
  basic_abi {
    type_abi {
      name: "android::hardware::TextOutput &"
      size: 8
      alignment: 8
    }
    name: "android::hardware::aerr"
    access: public_access
    linker_set_key: "_ZN7android8hardware4aerrE"
  }
  source_file: "/home/suhwa.kim/CONA_Proj/android/system/libhwbinder/include/hwbinder/TextOutput.h"
}
global_vars {
  basic_abi {
    type_abi {
      name: "android::Vector<int>"
    }
    name: "android::hardware::gTextBuffers"
    access: public_access
    linker_set_key: "_ZN7android8hardware12gTextBuffersE"
  }
  source_file: "/home/suhwa.kim/CONA_Proj/android/system/libhwbinder/include/hwbinder/Static.h"
}
global_vars {
  basic_abi {
    type_abi {
      name: "android::Mutex"
      size: 40
      alignment: 4
    }
    name: "android::hardware::gProcessMutex"
    access: public_access
    linker_set_key: "_ZN7android8hardware13gProcessMutexE"
  }
  source_file: "/home/suhwa.kim/CONA_Proj/android/system/libhwbinder/include/hwbinder/Static.h"
}
global_vars {
  basic_abi {
    type_abi {
      name: "android::sp<android::hardware::ProcessState>"
      size: 8
      alignment: 8
    }
    name: "android::hardware::gProcess"
    access: public_access
    linker_set_key: "_ZN7android8hardware8gProcessE"
  }
  source_file: "/home/suhwa.kim/CONA_Proj/android/system/libhwbinder/include/hwbinder/Static.h"
}
