records {
  basic_abi {
    type_abi {
      name: "android::hidl::base::V1_0::DebugInfo"
      size: 24
      alignment: 8
    }
    name: "android::hidl::base::V1_0::DebugInfo"
    access: public_access
    linker_set_key: "_ZN7android4hidl4base4V1_09DebugInfoE"
  }
  fields {
    basic_abi {
      type_abi {
        name: "int"
        size: 4
        alignment: 4
      }
      name: "pid"
      access: public_access
    }
  }
  fields {
    basic_abi {
      type_abi {
        name: "unsigned long"
        size: 8
        alignment: 8
      }
      name: "ptr"
      access: public_access
    }
  }
  fields {
    basic_abi {
      type_abi {
        name: "android::hidl::base::V1_0::DebugInfo::Architecture"
        size: 4
        alignment: 4
      }
      name: "arch"
      access: public_access
    }
  }
  source_file: "out/soong/.intermediates/system/libhidl/transport/base/1.0/android.hidl.base@1.0_genc++_headers/gen/android/hidl/base/1.0/types.h"
  mangled_record_name: "_ZN7android4hidl4base4V1_09DebugInfoE"
}
records {
  basic_abi {
    type_abi {
      name: "android::hidl::base::V1_0::IBase"
      size: 24
      alignment: 8
    }
    name: "android::hidl::base::V1_0::IBase"
    access: public_access
    linker_set_key: "_ZN7android4hidl4base4V1_05IBaseE"
  }
  base_specifiers {
    basic_abi {
      type_abi {
        name: "android::RefBase"
        size: 16
        alignment: 8
      }
      name: ""
      access: public_access
    }
    is_virtual: true
  }
  source_file: "out/soong/.intermediates/system/libhidl/transport/base/1.0/android.hidl.base@1.0_genc++_headers/gen/android/hidl/base/1.0/IBase.h"
  mangled_record_name: "_ZN7android4hidl4base4V1_05IBaseE"
  vtable_layout {
    vtable_components {
      kind: VBaseOffset
      mangled_component_name: ""
      value: 8
    }
    vtable_components {
      kind: OffsetToTop
      mangled_component_name: ""
      value: 0
    }
    vtable_components {
      kind: RTTI
      mangled_component_name: "_ZN7android4hidl4base4V1_05IBaseE"
      value: 0
    }
    vtable_components {
      kind: FunctionPointer
      mangled_component_name: "_ZNK7android4hidl4base4V1_05IBase8isRemoteEv"
      value: 0
    }
    vtable_components {
      kind: FunctionPointer
      mangled_component_name: "_ZN7android4hidl4base4V1_05IBase14interfaceChainENSt3__18functionIFvRKNS_8hardware8hidl_vecINS6_11hidl_stringEEEEEE"
      value: 0
    }
    vtable_components {
      kind: FunctionPointer
      mangled_component_name: "_ZN7android4hidl4base4V1_05IBase5debugERKNS_8hardware11hidl_handleERKNS4_8hidl_vecINS4_11hidl_stringEEE"
      value: 0
    }
    vtable_components {
      kind: FunctionPointer
      mangled_component_name: "_ZN7android4hidl4base4V1_05IBase19interfaceDescriptorENSt3__18functionIFvRKNS_8hardware11hidl_stringEEEE"
      value: 0
    }
    vtable_components {
      kind: FunctionPointer
      mangled_component_name: "_ZN7android4hidl4base4V1_05IBase12getHashChainENSt3__18functionIFvRKNS_8hardware8hidl_vecINS6_10hidl_arrayIhLm32EJEEEEEEEE"
      value: 0
    }
    vtable_components {
      kind: FunctionPointer
      mangled_component_name: "_ZN7android4hidl4base4V1_05IBase21setHALInstrumentationEv"
      value: 0
    }
    vtable_components {
      kind: FunctionPointer
      mangled_component_name: "_ZN7android4hidl4base4V1_05IBase11linkToDeathERKNS_2spINS_8hardware20hidl_death_recipientEEEm"
      value: 0
    }
    vtable_components {
      kind: FunctionPointer
      mangled_component_name: "_ZN7android4hidl4base4V1_05IBase4pingEv"
      value: 0
    }
    vtable_components {
      kind: FunctionPointer
      mangled_component_name: "_ZN7android4hidl4base4V1_05IBase12getDebugInfoENSt3__18functionIFvRKNS2_9DebugInfoEEEE"
      value: 0
    }
    vtable_components {
      kind: FunctionPointer
      mangled_component_name: "_ZN7android4hidl4base4V1_05IBase21notifySyspropsChangedEv"
      value: 0
    }
    vtable_components {
      kind: FunctionPointer
      mangled_component_name: "_ZN7android4hidl4base4V1_05IBase13unlinkToDeathERKNS_2spINS_8hardware20hidl_death_recipientEEE"
      value: 0
    }
    vtable_components {
      kind: CompleteDtorPointer
      mangled_component_name: "_ZN7android4hidl4base4V1_05IBaseD0Ev"
      value: 0
    }
    vtable_components {
      kind: UnusedFunctionPointer
      mangled_component_name: "_ZN7android4hidl4base4V1_05IBaseD0Ev"
      value: 0
    }
    vtable_components {
      kind: VCallOffset
      mangled_component_name: ""
      value: 0
    }
    vtable_components {
      kind: VCallOffset
      mangled_component_name: ""
      value: 0
    }
    vtable_components {
      kind: VCallOffset
      mangled_component_name: ""
      value: 0
    }
    vtable_components {
      kind: VCallOffset
      mangled_component_name: ""
      value: 0
    }
    vtable_components {
      kind: VCallOffset
      mangled_component_name: ""
      value: 18446744073709551608
    }
    vtable_components {
      kind: OffsetToTop
      mangled_component_name: ""
      value: 18446744073709551608
    }
    vtable_components {
      kind: RTTI
      mangled_component_name: "_ZN7android4hidl4base4V1_05IBaseE"
      value: 0
    }
    vtable_components {
      kind: CompleteDtorPointer
      mangled_component_name: "_ZN7android4hidl4base4V1_05IBaseD0Ev"
      value: 0
    }
    vtable_components {
      kind: UnusedFunctionPointer
      mangled_component_name: "_ZN7android4hidl4base4V1_05IBaseD0Ev"
      value: 0
    }
    vtable_components {
      kind: FunctionPointer
      mangled_component_name: "_ZN7android7RefBase10onFirstRefEv"
      value: 0
    }
    vtable_components {
      kind: FunctionPointer
      mangled_component_name: "_ZN7android7RefBase15onLastStrongRefEPKv"
      value: 0
    }
    vtable_components {
      kind: FunctionPointer
      mangled_component_name: "_ZN7android7RefBase20onIncStrongAttemptedEjPKv"
      value: 0
    }
    vtable_components {
      kind: FunctionPointer
      mangled_component_name: "_ZN7android7RefBase13onLastWeakRefEPKv"
      value: 0
    }
  }
}
records {
  basic_abi {
    type_abi {
      name: "android::hidl::base::V1_0::BnHwBase"
      size: 144
      alignment: 8
    }
    name: "android::hidl::base::V1_0::BnHwBase"
    access: public_access
    linker_set_key: "_ZN7android4hidl4base4V1_08BnHwBaseE"
  }
  fields {
    basic_abi {
      type_abi {
        name: "android::sp<android::hidl::base::V1_0::IBase>"
        size: 8
        alignment: 8
      }
      name: "_hidl_mImpl"
      access: private_access
    }
  }
  base_specifiers {
    basic_abi {
      type_abi {
        name: "android::hardware::BHwBinder"
        size: 48
        alignment: 8
      }
      name: ""
      access: public_access
    }
    is_virtual: false
  }
  base_specifiers {
    basic_abi {
      type_abi {
        name: "android::hardware::details::HidlInstrumentor"
        size: 88
        alignment: 8
      }
      name: ""
      access: public_access
    }
    is_virtual: false
  }
  source_file: "out/soong/.intermediates/system/libhidl/transport/base/1.0/android.hidl.base@1.0_genc++_headers/gen/android/hidl/base/1.0/BnHwBase.h"
  mangled_record_name: "_ZN7android4hidl4base4V1_08BnHwBaseE"
  vtable_layout {
    vtable_components {
      kind: VBaseOffset
      mangled_component_name: ""
      value: 128
    }
    vtable_components {
      kind: OffsetToTop
      mangled_component_name: ""
      value: 0
    }
    vtable_components {
      kind: RTTI
      mangled_component_name: "_ZN7android4hidl4base4V1_08BnHwBaseE"
      value: 0
    }
    vtable_components {
      kind: FunctionPointer
      mangled_component_name: "_ZN7android8hardware9BHwBinder8transactEjRKNS0_6ParcelEPS2_jNSt3__18functionIFvRS2_EEE"
      value: 0
    }
    vtable_components {
      kind: FunctionPointer
      mangled_component_name: "_ZN7android8hardware9BHwBinder11linkToDeathERKNS_2spINS0_7IBinder14DeathRecipientEEEPvj"
      value: 0
    }
    vtable_components {
      kind: FunctionPointer
      mangled_component_name: "_ZN7android8hardware9BHwBinder13unlinkToDeathERKNS_2wpINS0_7IBinder14DeathRecipientEEEPvjPS5_"
      value: 0
    }
    vtable_components {
      kind: FunctionPointer
      mangled_component_name: "_ZNK7android8hardware7IBinder13checkSubclassEPKv"
      value: 0
    }
    vtable_components {
      kind: FunctionPointer
      mangled_component_name: "_ZN7android8hardware9BHwBinder12attachObjectEPKvPvS4_PFvS3_S4_S4_E"
      value: 0
    }
    vtable_components {
      kind: FunctionPointer
      mangled_component_name: "_ZNK7android8hardware9BHwBinder10findObjectEPKv"
      value: 0
    }
    vtable_components {
      kind: FunctionPointer
      mangled_component_name: "_ZN7android8hardware9BHwBinder12detachObjectEPKv"
      value: 0
    }
    vtable_components {
      kind: FunctionPointer
      mangled_component_name: "_ZN7android8hardware9BHwBinder11localBinderEv"
      value: 0
    }
    vtable_components {
      kind: FunctionPointer
      mangled_component_name: "_ZN7android8hardware7IBinder12remoteBinderEv"
      value: 0
    }
    vtable_components {
      kind: CompleteDtorPointer
      mangled_component_name: "_ZN7android4hidl4base4V1_08BnHwBaseD0Ev"
      value: 0
    }
    vtable_components {
      kind: UnusedFunctionPointer
      mangled_component_name: "_ZN7android4hidl4base4V1_08BnHwBaseD0Ev"
      value: 0
    }
    vtable_components {
      kind: FunctionPointer
      mangled_component_name: "_ZN7android4hidl4base4V1_08BnHwBase10onTransactEjRKNS_8hardware6ParcelEPS5_jNSt3__18functionIFvRS5_EEE"
      value: 0
    }
    vtable_components {
      kind: OffsetToTop
      mangled_component_name: ""
      value: 18446744073709551584
    }
    vtable_components {
      kind: RTTI
      mangled_component_name: "_ZN7android4hidl4base4V1_08BnHwBaseE"
      value: 0
    }
    vtable_components {
      kind: CompleteDtorPointer
      mangled_component_name: "_ZN7android4hidl4base4V1_08BnHwBaseD0Ev"
      value: 0
    }
    vtable_components {
      kind: UnusedFunctionPointer
      mangled_component_name: "_ZN7android4hidl4base4V1_08BnHwBaseD0Ev"
      value: 0
    }
    vtable_components {
      kind: VCallOffset
      mangled_component_name: ""
      value: 0
    }
    vtable_components {
      kind: VCallOffset
      mangled_component_name: ""
      value: 0
    }
    vtable_components {
      kind: VCallOffset
      mangled_component_name: ""
      value: 0
    }
    vtable_components {
      kind: VCallOffset
      mangled_component_name: ""
      value: 0
    }
    vtable_components {
      kind: VCallOffset
      mangled_component_name: ""
      value: 18446744073709551488
    }
    vtable_components {
      kind: OffsetToTop
      mangled_component_name: ""
      value: 18446744073709551488
    }
    vtable_components {
      kind: RTTI
      mangled_component_name: "_ZN7android4hidl4base4V1_08BnHwBaseE"
      value: 0
    }
    vtable_components {
      kind: CompleteDtorPointer
      mangled_component_name: "_ZN7android4hidl4base4V1_08BnHwBaseD0Ev"
      value: 0
    }
    vtable_components {
      kind: UnusedFunctionPointer
      mangled_component_name: "_ZN7android4hidl4base4V1_08BnHwBaseD0Ev"
      value: 0
    }
    vtable_components {
      kind: FunctionPointer
      mangled_component_name: "_ZN7android7RefBase10onFirstRefEv"
      value: 0
    }
    vtable_components {
      kind: FunctionPointer
      mangled_component_name: "_ZN7android7RefBase15onLastStrongRefEPKv"
      value: 0
    }
    vtable_components {
      kind: FunctionPointer
      mangled_component_name: "_ZN7android7RefBase20onIncStrongAttemptedEjPKv"
      value: 0
    }
    vtable_components {
      kind: FunctionPointer
      mangled_component_name: "_ZN7android7RefBase13onLastWeakRefEPKv"
      value: 0
    }
  }
}
records {
  basic_abi {
    type_abi {
      name: "ConcurrentMap<K, V>"
    }
    name: "android::hardware::ConcurrentMap"
    access: public_access
    linker_set_key: "_ZN7android8hardware13ConcurrentMapE"
  }
  fields {
    basic_abi {
      type_abi {
        name: "std::mutex"
        size: 40
        alignment: 4
      }
      name: "mMutex"
      access: private_access
    }
  }
  fields {
    basic_abi {
      type_abi {
        name: "map<type-parameter-0-0, type-parameter-0-1, less<type-parameter-0-0>, allocator<pair<const type-parameter-0-0, type-parameter-0-1> > >"
      }
      name: "mMap"
      access: private_access
    }
  }
  source_file: "system/libhidl/transport/include/hidl/ConcurrentMap.h"
  mangled_record_name: "_ZN7android8hardware13ConcurrentMapE"
}
records {
  basic_abi {
    type_abi {
      name: "android::hardware::ConcurrentMap<std::basic_string<char, std::char_traits<char>, std::allocator<char> >, std::function<sp<IBinder> (void *)> >"
      size: 64
      alignment: 8
    }
    name: "android::hardware::ConcurrentMap"
    access: public_access
    linker_set_key: "_ZN7android8hardware13ConcurrentMapINSt3__112basic_stringIcNS2_11char_traitsIcEENS2_9allocatorIcEEEENS2_8functionIFNS_2spINS0_7IBinderEEEPvEEEEE"
  }
  fields {
    basic_abi {
      type_abi {
        name: "std::mutex"
        size: 40
        alignment: 4
      }
      name: "mMutex"
      access: private_access
    }
  }
  fields {
    basic_abi {
      type_abi {
        name: "std::map<std::basic_string<char, std::char_traits<char>, std::allocator<char> >, std::function<sp<IBinder> (void *)>, std::less<std::basic_string<char, std::char_traits<char>, std::allocator<char> > >, std::allocator<std::pair<const std::basic_string<char, std::char_traits<char>, std::allocator<char> >, std::function<sp<IBinder> (void *)> > > >"
        size: 24
        alignment: 8
      }
      name: "mMap"
      access: private_access
    }
  }
  source_file: "system/libhidl/transport/include/hidl/ConcurrentMap.h"
  template_info {
    elements {
      basic_abi {
        type_abi {
          name: "std::basic_string<char, std::char_traits<char>, std::allocator<char> >"
          size: 24
          alignment: 8
        }
        linker_set_key: "std::basic_string<char, std::char_traits<char>, std::allocator<char> >"
      }
    }
    elements {
      basic_abi {
        type_abi {
          name: "std::function<sp<IBinder> (void *)>"
          size: 48
          alignment: 16
        }
        linker_set_key: "std::function<sp<IBinder> (void *)>"
      }
    }
  }
  mangled_record_name: "_ZN7android8hardware13ConcurrentMapINSt3__112basic_stringIcNS2_11char_traitsIcEENS2_9allocatorIcEEEENS2_8functionIFNS_2spINS0_7IBinderEEEPvEEEEE"
}
records {
  basic_abi {
    type_abi {
      name: "android::hardware::details::SchedPrio"
      size: 8
      alignment: 4
    }
    name: "android::hardware::details::SchedPrio"
    access: public_access
    linker_set_key: "_ZN7android8hardware7details9SchedPrioE"
  }
  fields {
    basic_abi {
      type_abi {
        name: "int"
        size: 4
        alignment: 4
      }
      name: "sched_policy"
      access: public_access
    }
  }
  fields {
    basic_abi {
      type_abi {
        name: "int"
        size: 4
        alignment: 4
      }
      name: "prio"
      access: public_access
    }
  }
  source_file: "system/libhidl/transport/include/hidl/Static.h"
  mangled_record_name: "_ZN7android8hardware7details9SchedPrioE"
}
records {
  basic_abi {
    type_abi {
      name: "android::hardware::hidl_binder_death_recipient"
      size: 64
      alignment: 8
    }
    name: "android::hardware::hidl_binder_death_recipient"
    access: public_access
    linker_set_key: "_ZN7android8hardware27hidl_binder_death_recipientE"
  }
  fields {
    basic_abi {
      type_abi {
        name: "android::wp<android::hardware::hidl_death_recipient>"
        size: 16
        alignment: 8
      }
      name: "mRecipient"
      access: private_access
    }
  }
  fields {
    basic_abi {
      type_abi {
        name: "unsigned long"
        size: 8
        alignment: 8
      }
      name: "mCookie"
      access: private_access
    }
  }
  fields {
    basic_abi {
      type_abi {
        name: "android::wp<android::hidl::base::V1_0::IBase>"
        size: 16
        alignment: 8
      }
      name: "mBase"
      access: private_access
    }
  }
  base_specifiers {
    basic_abi {
      type_abi {
        name: "android::hardware::IBinder::DeathRecipient"
        size: 24
        alignment: 8
      }
      name: ""
      access: public_access
    }
    is_virtual: false
  }
  source_file: "system/libhidl/transport/include/hidl/HidlBinderSupport.h"
  mangled_record_name: "_ZN7android8hardware27hidl_binder_death_recipientE"
  vtable_layout {
    vtable_components {
      kind: VBaseOffset
      mangled_component_name: ""
      value: 48
    }
    vtable_components {
      kind: OffsetToTop
      mangled_component_name: ""
      value: 0
    }
    vtable_components {
      kind: RTTI
      mangled_component_name: "_ZN7android8hardware27hidl_binder_death_recipientE"
      value: 0
    }
    vtable_components {
      kind: FunctionPointer
      mangled_component_name: "_ZN7android8hardware27hidl_binder_death_recipient10binderDiedERKNS_2wpINS0_7IBinderEEE"
      value: 0
    }
    vtable_components {
      kind: CompleteDtorPointer
      mangled_component_name: "_ZN7android8hardware27hidl_binder_death_recipientD0Ev"
      value: 0
    }
    vtable_components {
      kind: UnusedFunctionPointer
      mangled_component_name: "_ZN7android8hardware27hidl_binder_death_recipientD0Ev"
      value: 0
    }
    vtable_components {
      kind: VCallOffset
      mangled_component_name: ""
      value: 0
    }
    vtable_components {
      kind: VCallOffset
      mangled_component_name: ""
      value: 0
    }
    vtable_components {
      kind: VCallOffset
      mangled_component_name: ""
      value: 0
    }
    vtable_components {
      kind: VCallOffset
      mangled_component_name: ""
      value: 0
    }
    vtable_components {
      kind: VCallOffset
      mangled_component_name: ""
      value: 18446744073709551568
    }
    vtable_components {
      kind: OffsetToTop
      mangled_component_name: ""
      value: 18446744073709551568
    }
    vtable_components {
      kind: RTTI
      mangled_component_name: "_ZN7android8hardware27hidl_binder_death_recipientE"
      value: 0
    }
    vtable_components {
      kind: CompleteDtorPointer
      mangled_component_name: "_ZN7android8hardware27hidl_binder_death_recipientD0Ev"
      value: 0
    }
    vtable_components {
      kind: UnusedFunctionPointer
      mangled_component_name: "_ZN7android8hardware27hidl_binder_death_recipientD0Ev"
      value: 0
    }
    vtable_components {
      kind: FunctionPointer
      mangled_component_name: "_ZN7android7RefBase10onFirstRefEv"
      value: 0
    }
    vtable_components {
      kind: FunctionPointer
      mangled_component_name: "_ZN7android7RefBase15onLastStrongRefEPKv"
      value: 0
    }
    vtable_components {
      kind: FunctionPointer
      mangled_component_name: "_ZN7android7RefBase20onIncStrongAttemptedEjPKv"
      value: 0
    }
    vtable_components {
      kind: FunctionPointer
      mangled_component_name: "_ZN7android7RefBase13onLastWeakRefEPKv"
      value: 0
    }
  }
}
records {
  basic_abi {
    type_abi {
      name: "android::hardware::ConcurrentMap<android::wp<android::hidl::base::V1_0::IBase>, android::hardware::details::SchedPrio>"
      size: 64
      alignment: 8
    }
    name: "android::hardware::ConcurrentMap"
    access: public_access
    linker_set_key: "_ZN7android8hardware13ConcurrentMapINS_2wpINS_4hidl4base4V1_05IBaseEEENS0_7details9SchedPrioEEE"
  }
  fields {
    basic_abi {
      type_abi {
        name: "std::mutex"
        size: 40
        alignment: 4
      }
      name: "mMutex"
      access: private_access
    }
  }
  fields {
    basic_abi {
      type_abi {
        name: "std::map<android::wp<android::hidl::base::V1_0::IBase>, android::hardware::details::SchedPrio, std::less<android::wp<android::hidl::base::V1_0::IBase> >, std::allocator<std::pair<const android::wp<android::hidl::base::V1_0::IBase>, android::hardware::details::SchedPrio> > >"
        size: 24
        alignment: 8
      }
      name: "mMap"
      access: private_access
    }
  }
  source_file: "system/libhidl/transport/include/hidl/ConcurrentMap.h"
  template_info {
    elements {
      basic_abi {
        type_abi {
          name: "android::wp<android::hidl::base::V1_0::IBase>"
          size: 16
          alignment: 8
        }
        linker_set_key: "android::wp<android::hidl::base::V1_0::IBase>"
      }
    }
    elements {
      basic_abi {
        type_abi {
          name: "android::hardware::details::SchedPrio"
          size: 8
          alignment: 4
        }
        linker_set_key: "android::hardware::details::SchedPrio"
      }
    }
  }
  mangled_record_name: "_ZN7android8hardware13ConcurrentMapINS_2wpINS_4hidl4base4V1_05IBaseEEENS0_7details9SchedPrioEEE"
}
records {
  basic_abi {
    type_abi {
      name: "android::hidl::manager::V1_0::IServiceNotification"
      size: 24
      alignment: 8
    }
    name: "android::hidl::manager::V1_0::IServiceNotification"
    access: public_access
    linker_set_key: "_ZN7android4hidl7manager4V1_020IServiceNotificationE"
  }
  base_specifiers {
    basic_abi {
      type_abi {
        name: "android::hidl::base::V1_0::IBase"
        size: 24
        alignment: 8
      }
      name: ""
      access: public_access
    }
    is_virtual: false
  }
  source_file: "out/soong/.intermediates/system/libhidl/transport/manager/1.0/android.hidl.manager@1.0_genc++_headers/gen/android/hidl/manager/1.0/IServiceNotification.h"
  mangled_record_name: "_ZN7android4hidl7manager4V1_020IServiceNotificationE"
  vtable_layout {
    vtable_components {
      kind: VBaseOffset
      mangled_component_name: ""
      value: 8
    }
    vtable_components {
      kind: OffsetToTop
      mangled_component_name: ""
      value: 0
    }
    vtable_components {
      kind: RTTI
      mangled_component_name: "_ZN7android4hidl7manager4V1_020IServiceNotificationE"
      value: 0
    }
    vtable_components {
      kind: FunctionPointer
      mangled_component_name: "_ZNK7android4hidl7manager4V1_020IServiceNotification8isRemoteEv"
      value: 0
    }
    vtable_components {
      kind: FunctionPointer
      mangled_component_name: "_ZN7android4hidl7manager4V1_020IServiceNotification14interfaceChainENSt3__18functionIFvRKNS_8hardware8hidl_vecINS6_11hidl_stringEEEEEE"
      value: 0
    }
    vtable_components {
      kind: FunctionPointer
      mangled_component_name: "_ZN7android4hidl7manager4V1_020IServiceNotification5debugERKNS_8hardware11hidl_handleERKNS4_8hidl_vecINS4_11hidl_stringEEE"
      value: 0
    }
    vtable_components {
      kind: FunctionPointer
      mangled_component_name: "_ZN7android4hidl7manager4V1_020IServiceNotification19interfaceDescriptorENSt3__18functionIFvRKNS_8hardware11hidl_stringEEEE"
      value: 0
    }
    vtable_components {
      kind: FunctionPointer
      mangled_component_name: "_ZN7android4hidl7manager4V1_020IServiceNotification12getHashChainENSt3__18functionIFvRKNS_8hardware8hidl_vecINS6_10hidl_arrayIhLm32EJEEEEEEEE"
      value: 0
    }
    vtable_components {
      kind: FunctionPointer
      mangled_component_name: "_ZN7android4hidl7manager4V1_020IServiceNotification21setHALInstrumentationEv"
      value: 0
    }
    vtable_components {
      kind: FunctionPointer
      mangled_component_name: "_ZN7android4hidl7manager4V1_020IServiceNotification11linkToDeathERKNS_2spINS_8hardware20hidl_death_recipientEEEm"
      value: 0
    }
    vtable_components {
      kind: FunctionPointer
      mangled_component_name: "_ZN7android4hidl7manager4V1_020IServiceNotification4pingEv"
      value: 0
    }
    vtable_components {
      kind: FunctionPointer
      mangled_component_name: "_ZN7android4hidl7manager4V1_020IServiceNotification12getDebugInfoENSt3__18functionIFvRKNS0_4base4V1_09DebugInfoEEEE"
      value: 0
    }
    vtable_components {
      kind: FunctionPointer
      mangled_component_name: "_ZN7android4hidl7manager4V1_020IServiceNotification21notifySyspropsChangedEv"
      value: 0
    }
    vtable_components {
      kind: FunctionPointer
      mangled_component_name: "_ZN7android4hidl7manager4V1_020IServiceNotification13unlinkToDeathERKNS_2spINS_8hardware20hidl_death_recipientEEE"
      value: 0
    }
    vtable_components {
      kind: CompleteDtorPointer
      mangled_component_name: "_ZN7android4hidl7manager4V1_020IServiceNotificationD0Ev"
      value: 0
    }
    vtable_components {
      kind: UnusedFunctionPointer
      mangled_component_name: "_ZN7android4hidl7manager4V1_020IServiceNotificationD0Ev"
      value: 0
    }
    vtable_components {
      kind: FunctionPointer
      mangled_component_name: "_ZN7android4hidl7manager4V1_020IServiceNotification14onRegistrationERKNS_8hardware11hidl_stringES7_b"
      value: 0
    }
    vtable_components {
      kind: VCallOffset
      mangled_component_name: ""
      value: 0
    }
    vtable_components {
      kind: VCallOffset
      mangled_component_name: ""
      value: 0
    }
    vtable_components {
      kind: VCallOffset
      mangled_component_name: ""
      value: 0
    }
    vtable_components {
      kind: VCallOffset
      mangled_component_name: ""
      value: 0
    }
    vtable_components {
      kind: VCallOffset
      mangled_component_name: ""
      value: 18446744073709551608
    }
    vtable_components {
      kind: OffsetToTop
      mangled_component_name: ""
      value: 18446744073709551608
    }
    vtable_components {
      kind: RTTI
      mangled_component_name: "_ZN7android4hidl7manager4V1_020IServiceNotificationE"
      value: 0
    }
    vtable_components {
      kind: CompleteDtorPointer
      mangled_component_name: "_ZN7android4hidl7manager4V1_020IServiceNotificationD0Ev"
      value: 0
    }
    vtable_components {
      kind: UnusedFunctionPointer
      mangled_component_name: "_ZN7android4hidl7manager4V1_020IServiceNotificationD0Ev"
      value: 0
    }
    vtable_components {
      kind: FunctionPointer
      mangled_component_name: "_ZN7android7RefBase10onFirstRefEv"
      value: 0
    }
    vtable_components {
      kind: FunctionPointer
      mangled_component_name: "_ZN7android7RefBase15onLastStrongRefEPKv"
      value: 0
    }
    vtable_components {
      kind: FunctionPointer
      mangled_component_name: "_ZN7android7RefBase20onIncStrongAttemptedEjPKv"
      value: 0
    }
    vtable_components {
      kind: FunctionPointer
      mangled_component_name: "_ZN7android7RefBase13onLastWeakRefEPKv"
      value: 0
    }
  }
}
records {
  basic_abi {
    type_abi {
      name: "android::hidl::manager::V1_0::IServiceManager"
      size: 24
      alignment: 8
    }
    name: "android::hidl::manager::V1_0::IServiceManager"
    access: public_access
    linker_set_key: "_ZN7android4hidl7manager4V1_015IServiceManagerE"
  }
  base_specifiers {
    basic_abi {
      type_abi {
        name: "android::hidl::base::V1_0::IBase"
        size: 24
        alignment: 8
      }
      name: ""
      access: public_access
    }
    is_virtual: false
  }
  source_file: "out/soong/.intermediates/system/libhidl/transport/manager/1.0/android.hidl.manager@1.0_genc++_headers/gen/android/hidl/manager/1.0/IServiceManager.h"
  mangled_record_name: "_ZN7android4hidl7manager4V1_015IServiceManagerE"
  vtable_layout {
    vtable_components {
      kind: VBaseOffset
      mangled_component_name: ""
      value: 8
    }
    vtable_components {
      kind: OffsetToTop
      mangled_component_name: ""
      value: 0
    }
    vtable_components {
      kind: RTTI
      mangled_component_name: "_ZN7android4hidl7manager4V1_015IServiceManagerE"
      value: 0
    }
    vtable_components {
      kind: FunctionPointer
      mangled_component_name: "_ZNK7android4hidl7manager4V1_015IServiceManager8isRemoteEv"
      value: 0
    }
    vtable_components {
      kind: FunctionPointer
      mangled_component_name: "_ZN7android4hidl7manager4V1_015IServiceManager14interfaceChainENSt3__18functionIFvRKNS_8hardware8hidl_vecINS6_11hidl_stringEEEEEE"
      value: 0
    }
    vtable_components {
      kind: FunctionPointer
      mangled_component_name: "_ZN7android4hidl7manager4V1_015IServiceManager5debugERKNS_8hardware11hidl_handleERKNS4_8hidl_vecINS4_11hidl_stringEEE"
      value: 0
    }
    vtable_components {
      kind: FunctionPointer
      mangled_component_name: "_ZN7android4hidl7manager4V1_015IServiceManager19interfaceDescriptorENSt3__18functionIFvRKNS_8hardware11hidl_stringEEEE"
      value: 0
    }
    vtable_components {
      kind: FunctionPointer
      mangled_component_name: "_ZN7android4hidl7manager4V1_015IServiceManager12getHashChainENSt3__18functionIFvRKNS_8hardware8hidl_vecINS6_10hidl_arrayIhLm32EJEEEEEEEE"
      value: 0
    }
    vtable_components {
      kind: FunctionPointer
      mangled_component_name: "_ZN7android4hidl7manager4V1_015IServiceManager21setHALInstrumentationEv"
      value: 0
    }
    vtable_components {
      kind: FunctionPointer
      mangled_component_name: "_ZN7android4hidl7manager4V1_015IServiceManager11linkToDeathERKNS_2spINS_8hardware20hidl_death_recipientEEEm"
      value: 0
    }
    vtable_components {
      kind: FunctionPointer
      mangled_component_name: "_ZN7android4hidl7manager4V1_015IServiceManager4pingEv"
      value: 0
    }
    vtable_components {
      kind: FunctionPointer
      mangled_component_name: "_ZN7android4hidl7manager4V1_015IServiceManager12getDebugInfoENSt3__18functionIFvRKNS0_4base4V1_09DebugInfoEEEE"
      value: 0
    }
    vtable_components {
      kind: FunctionPointer
      mangled_component_name: "_ZN7android4hidl7manager4V1_015IServiceManager21notifySyspropsChangedEv"
      value: 0
    }
    vtable_components {
      kind: FunctionPointer
      mangled_component_name: "_ZN7android4hidl7manager4V1_015IServiceManager13unlinkToDeathERKNS_2spINS_8hardware20hidl_death_recipientEEE"
      value: 0
    }
    vtable_components {
      kind: CompleteDtorPointer
      mangled_component_name: "_ZN7android4hidl7manager4V1_015IServiceManagerD0Ev"
      value: 0
    }
    vtable_components {
      kind: UnusedFunctionPointer
      mangled_component_name: "_ZN7android4hidl7manager4V1_015IServiceManagerD0Ev"
      value: 0
    }
    vtable_components {
      kind: FunctionPointer
      mangled_component_name: "_ZN7android4hidl7manager4V1_015IServiceManager3getERKNS_8hardware11hidl_stringES7_"
      value: 0
    }
    vtable_components {
      kind: FunctionPointer
      mangled_component_name: "_ZN7android4hidl7manager4V1_015IServiceManager3addERKNS_8hardware11hidl_stringERKNS_2spINS0_4base4V1_05IBaseEEE"
      value: 0
    }
    vtable_components {
      kind: FunctionPointer
      mangled_component_name: "_ZN7android4hidl7manager4V1_015IServiceManager12getTransportERKNS_8hardware11hidl_stringES7_"
      value: 0
    }
    vtable_components {
      kind: FunctionPointer
      mangled_component_name: "_ZN7android4hidl7manager4V1_015IServiceManager4listENSt3__18functionIFvRKNS_8hardware8hidl_vecINS6_11hidl_stringEEEEEE"
      value: 0
    }
    vtable_components {
      kind: FunctionPointer
      mangled_component_name: "_ZN7android4hidl7manager4V1_015IServiceManager15listByInterfaceERKNS_8hardware11hidl_stringENSt3__18functionIFvRKNS4_8hidl_vecIS5_EEEEE"
      value: 0
    }
    vtable_components {
      kind: FunctionPointer
      mangled_component_name: "_ZN7android4hidl7manager4V1_015IServiceManager24registerForNotificationsERKNS_8hardware11hidl_stringES7_RKNS_2spINS2_20IServiceNotificationEEE"
      value: 0
    }
    vtable_components {
      kind: FunctionPointer
      mangled_component_name: "_ZN7android4hidl7manager4V1_015IServiceManager9debugDumpENSt3__18functionIFvRKNS_8hardware8hidl_vecINS3_17InstanceDebugInfoEEEEEE"
      value: 0
    }
    vtable_components {
      kind: FunctionPointer
      mangled_component_name: "_ZN7android4hidl7manager4V1_015IServiceManager25registerPassthroughClientERKNS_8hardware11hidl_stringES7_"
      value: 0
    }
    vtable_components {
      kind: VCallOffset
      mangled_component_name: ""
      value: 0
    }
    vtable_components {
      kind: VCallOffset
      mangled_component_name: ""
      value: 0
    }
    vtable_components {
      kind: VCallOffset
      mangled_component_name: ""
      value: 0
    }
    vtable_components {
      kind: VCallOffset
      mangled_component_name: ""
      value: 0
    }
    vtable_components {
      kind: VCallOffset
      mangled_component_name: ""
      value: 18446744073709551608
    }
    vtable_components {
      kind: OffsetToTop
      mangled_component_name: ""
      value: 18446744073709551608
    }
    vtable_components {
      kind: RTTI
      mangled_component_name: "_ZN7android4hidl7manager4V1_015IServiceManagerE"
      value: 0
    }
    vtable_components {
      kind: CompleteDtorPointer
      mangled_component_name: "_ZN7android4hidl7manager4V1_015IServiceManagerD0Ev"
      value: 0
    }
    vtable_components {
      kind: UnusedFunctionPointer
      mangled_component_name: "_ZN7android4hidl7manager4V1_015IServiceManagerD0Ev"
      value: 0
    }
    vtable_components {
      kind: FunctionPointer
      mangled_component_name: "_ZN7android7RefBase10onFirstRefEv"
      value: 0
    }
    vtable_components {
      kind: FunctionPointer
      mangled_component_name: "_ZN7android7RefBase15onLastStrongRefEPKv"
      value: 0
    }
    vtable_components {
      kind: FunctionPointer
      mangled_component_name: "_ZN7android7RefBase20onIncStrongAttemptedEjPKv"
      value: 0
    }
    vtable_components {
      kind: FunctionPointer
      mangled_component_name: "_ZN7android7RefBase13onLastWeakRefEPKv"
      value: 0
    }
  }
}
records {
  basic_abi {
    type_abi {
      name: "android::hidl::manager::V1_0::IServiceManager::InstanceDebugInfo"
      size: 64
      alignment: 8
    }
    name: "android::hidl::manager::V1_0::IServiceManager::InstanceDebugInfo"
    access: public_access
    linker_set_key: "_ZN7android4hidl7manager4V1_015IServiceManager17InstanceDebugInfoE"
  }
  fields {
    basic_abi {
      type_abi {
        name: "android::hardware::hidl_string"
        size: 16
        alignment: 8
      }
      name: "interfaceName"
      access: public_access
    }
  }
  fields {
    basic_abi {
      type_abi {
        name: "android::hardware::hidl_string"
        size: 16
        alignment: 8
      }
      name: "instanceName"
      access: public_access
    }
  }
  fields {
    basic_abi {
      type_abi {
        name: "int"
        size: 4
        alignment: 4
      }
      name: "pid"
      access: public_access
    }
  }
  fields {
    basic_abi {
      type_abi {
        name: "android::hardware::hidl_vec<int>"
        size: 16
        alignment: 8
      }
      name: "clientPids"
      access: public_access
    }
  }
  fields {
    basic_abi {
      type_abi {
        name: "android::hidl::base::V1_0::DebugInfo::Architecture"
        size: 4
        alignment: 4
      }
      name: "arch"
      access: public_access
    }
  }
  source_file: "out/soong/.intermediates/system/libhidl/transport/manager/1.0/android.hidl.manager@1.0_genc++_headers/gen/android/hidl/manager/1.0/IServiceManager.h"
  mangled_record_name: "_ZN7android4hidl7manager4V1_015IServiceManager17InstanceDebugInfoE"
}
records {
  basic_abi {
    type_abi {
      name: "android::hidl::base::V1_0::BpHwBase"
      size: 216
      alignment: 8
    }
    name: "android::hidl::base::V1_0::BpHwBase"
    access: public_access
    linker_set_key: "_ZN7android4hidl4base4V1_08BpHwBaseE"
  }
  fields {
    basic_abi {
      type_abi {
        name: "std::mutex"
        size: 40
        alignment: 4
      }
      name: "_hidl_mMutex"
      access: private_access
    }
  }
  fields {
    basic_abi {
      type_abi {
        name: "std::vector<android::sp<android::hardware::hidl_binder_death_recipient>, std::allocator<android::sp<android::hardware::hidl_binder_death_recipient> > >"
        size: 24
        alignment: 8
      }
      name: "_hidl_mDeathRecipients"
      access: private_access
    }
  }
  base_specifiers {
    basic_abi {
      type_abi {
        name: "android::hardware::BpInterface<android::hidl::base::V1_0::IBase>"
        size: 64
        alignment: 8
      }
      name: ""
      access: public_access
    }
    is_virtual: false
  }
  base_specifiers {
    basic_abi {
      type_abi {
        name: "android::hardware::details::HidlInstrumentor"
        size: 88
        alignment: 8
      }
      name: ""
      access: public_access
    }
    is_virtual: false
  }
  source_file: "out/soong/.intermediates/system/libhidl/transport/base/1.0/android.hidl.base@1.0_genc++_headers/gen/android/hidl/base/1.0/BpHwBase.h"
  mangled_record_name: "_ZN7android4hidl4base4V1_08BpHwBaseE"
  vtable_layout {
    vtable_components {
      kind: VBaseOffset
      mangled_component_name: ""
      value: 200
    }
    vtable_components {
      kind: OffsetToTop
      mangled_component_name: ""
      value: 0
    }
    vtable_components {
      kind: RTTI
      mangled_component_name: "_ZN7android4hidl4base4V1_08BpHwBaseE"
      value: 0
    }
    vtable_components {
      kind: FunctionPointer
      mangled_component_name: "_ZNK7android4hidl4base4V1_08BpHwBase8isRemoteEv"
      value: 0
    }
    vtable_components {
      kind: FunctionPointer
      mangled_component_name: "_ZN7android4hidl4base4V1_08BpHwBase14interfaceChainENSt3__18functionIFvRKNS_8hardware8hidl_vecINS6_11hidl_stringEEEEEE"
      value: 0
    }
    vtable_components {
      kind: FunctionPointer
      mangled_component_name: "_ZN7android4hidl4base4V1_08BpHwBase5debugERKNS_8hardware11hidl_handleERKNS4_8hidl_vecINS4_11hidl_stringEEE"
      value: 0
    }
    vtable_components {
      kind: FunctionPointer
      mangled_component_name: "_ZN7android4hidl4base4V1_08BpHwBase19interfaceDescriptorENSt3__18functionIFvRKNS_8hardware11hidl_stringEEEE"
      value: 0
    }
    vtable_components {
      kind: FunctionPointer
      mangled_component_name: "_ZN7android4hidl4base4V1_08BpHwBase12getHashChainENSt3__18functionIFvRKNS_8hardware8hidl_vecINS6_10hidl_arrayIhLm32EJEEEEEEEE"
      value: 0
    }
    vtable_components {
      kind: FunctionPointer
      mangled_component_name: "_ZN7android4hidl4base4V1_08BpHwBase21setHALInstrumentationEv"
      value: 0
    }
    vtable_components {
      kind: FunctionPointer
      mangled_component_name: "_ZN7android4hidl4base4V1_08BpHwBase11linkToDeathERKNS_2spINS_8hardware20hidl_death_recipientEEEm"
      value: 0
    }
    vtable_components {
      kind: FunctionPointer
      mangled_component_name: "_ZN7android4hidl4base4V1_08BpHwBase4pingEv"
      value: 0
    }
    vtable_components {
      kind: FunctionPointer
      mangled_component_name: "_ZN7android4hidl4base4V1_08BpHwBase12getDebugInfoENSt3__18functionIFvRKNS2_9DebugInfoEEEE"
      value: 0
    }
    vtable_components {
      kind: FunctionPointer
      mangled_component_name: "_ZN7android4hidl4base4V1_08BpHwBase21notifySyspropsChangedEv"
      value: 0
    }
    vtable_components {
      kind: FunctionPointer
      mangled_component_name: "_ZN7android4hidl4base4V1_08BpHwBase13unlinkToDeathERKNS_2spINS_8hardware20hidl_death_recipientEEE"
      value: 0
    }
    vtable_components {
      kind: CompleteDtorPointer
      mangled_component_name: "_ZN7android4hidl4base4V1_08BpHwBaseD0Ev"
      value: 0
    }
    vtable_components {
      kind: UnusedFunctionPointer
      mangled_component_name: "_ZN7android4hidl4base4V1_08BpHwBaseD0Ev"
      value: 0
    }
    vtable_components {
      kind: FunctionPointer
      mangled_component_name: "_ZN7android8hardware11BpInterfaceINS_4hidl4base4V1_05IBaseEE10onAsBinderEv"
      value: 0
    }
    vtable_components {
      kind: VBaseOffset
      mangled_component_name: ""
      value: 192
    }
    vtable_components {
      kind: OffsetToTop
      mangled_component_name: ""
      value: 18446744073709551608
    }
    vtable_components {
      kind: RTTI
      mangled_component_name: "_ZN7android4hidl4base4V1_08BpHwBaseE"
      value: 0
    }
    vtable_components {
      kind: CompleteDtorPointer
      mangled_component_name: "_ZN7android4hidl4base4V1_08BpHwBaseD0Ev"
      value: 0
    }
    vtable_components {
      kind: UnusedFunctionPointer
      mangled_component_name: "_ZN7android4hidl4base4V1_08BpHwBaseD0Ev"
      value: 0
    }
    vtable_components {
      kind: FunctionPointer
      mangled_component_name: "_ZN7android8hardware11BpInterfaceINS_4hidl4base4V1_05IBaseEE10onAsBinderEv"
      value: 0
    }
    vtable_components {
      kind: VBaseOffset
      mangled_component_name: ""
      value: 184
    }
    vtable_components {
      kind: OffsetToTop
      mangled_component_name: ""
      value: 18446744073709551600
    }
    vtable_components {
      kind: RTTI
      mangled_component_name: "_ZN7android4hidl4base4V1_08BpHwBaseE"
      value: 0
    }
    vtable_components {
      kind: CompleteDtorPointer
      mangled_component_name: "_ZN7android4hidl4base4V1_08BpHwBaseD0Ev"
      value: 0
    }
    vtable_components {
      kind: UnusedFunctionPointer
      mangled_component_name: "_ZN7android4hidl4base4V1_08BpHwBaseD0Ev"
      value: 0
    }
    vtable_components {
      kind: FunctionPointer
      mangled_component_name: "_ZN7android8hardware11BpHwRefBase10onFirstRefEv"
      value: 0
    }
    vtable_components {
      kind: FunctionPointer
      mangled_component_name: "_ZN7android8hardware11BpHwRefBase15onLastStrongRefEPKv"
      value: 0
    }
    vtable_components {
      kind: FunctionPointer
      mangled_component_name: "_ZN7android8hardware11BpHwRefBase20onIncStrongAttemptedEjPKv"
      value: 0
    }
    vtable_components {
      kind: OffsetToTop
      mangled_component_name: ""
      value: 18446744073709551568
    }
    vtable_components {
      kind: RTTI
      mangled_component_name: "_ZN7android4hidl4base4V1_08BpHwBaseE"
      value: 0
    }
    vtable_components {
      kind: CompleteDtorPointer
      mangled_component_name: "_ZN7android4hidl4base4V1_08BpHwBaseD0Ev"
      value: 0
    }
    vtable_components {
      kind: UnusedFunctionPointer
      mangled_component_name: "_ZN7android4hidl4base4V1_08BpHwBaseD0Ev"
      value: 0
    }
    vtable_components {
      kind: VCallOffset
      mangled_component_name: ""
      value: 0
    }
    vtable_components {
      kind: VCallOffset
      mangled_component_name: ""
      value: 18446744073709551432
    }
    vtable_components {
      kind: VCallOffset
      mangled_component_name: ""
      value: 18446744073709551432
    }
    vtable_components {
      kind: VCallOffset
      mangled_component_name: ""
      value: 18446744073709551432
    }
    vtable_components {
      kind: VCallOffset
      mangled_component_name: ""
      value: 18446744073709551416
    }
    vtable_components {
      kind: OffsetToTop
      mangled_component_name: ""
      value: 18446744073709551416
    }
    vtable_components {
      kind: RTTI
      mangled_component_name: "_ZN7android4hidl4base4V1_08BpHwBaseE"
      value: 0
    }
    vtable_components {
      kind: CompleteDtorPointer
      mangled_component_name: "_ZN7android4hidl4base4V1_08BpHwBaseD0Ev"
      value: 0
    }
    vtable_components {
      kind: UnusedFunctionPointer
      mangled_component_name: "_ZN7android4hidl4base4V1_08BpHwBaseD0Ev"
      value: 0
    }
    vtable_components {
      kind: FunctionPointer
      mangled_component_name: "_ZN7android8hardware11BpHwRefBase10onFirstRefEv"
      value: 0
    }
    vtable_components {
      kind: FunctionPointer
      mangled_component_name: "_ZN7android8hardware11BpHwRefBase15onLastStrongRefEPKv"
      value: 0
    }
    vtable_components {
      kind: FunctionPointer
      mangled_component_name: "_ZN7android8hardware11BpHwRefBase20onIncStrongAttemptedEjPKv"
      value: 0
    }
    vtable_components {
      kind: FunctionPointer
      mangled_component_name: "_ZN7android7RefBase13onLastWeakRefEPKv"
      value: 0
    }
  }
}
records {
  basic_abi {
    type_abi {
      name: "android::hidl::manager::V1_0::BnHwServiceNotification"
      size: 152
      alignment: 8
    }
    name: "android::hidl::manager::V1_0::BnHwServiceNotification"
    access: public_access
    linker_set_key: "_ZN7android4hidl7manager4V1_023BnHwServiceNotificationE"
  }
  fields {
    basic_abi {
      type_abi {
        name: "android::sp<android::hidl::manager::V1_0::IServiceNotification>"
        size: 8
        alignment: 8
      }
      name: "_hidl_mImpl"
      access: private_access
    }
  }
  base_specifiers {
    basic_abi {
      type_abi {
        name: "android::hidl::base::V1_0::BnHwBase"
        size: 144
        alignment: 8
      }
      name: ""
      access: public_access
    }
    is_virtual: false
  }
  source_file: "out/soong/.intermediates/system/libhidl/transport/manager/1.0/android.hidl.manager@1.0_genc++_headers/gen/android/hidl/manager/1.0/BnHwServiceNotification.h"
  mangled_record_name: "_ZN7android4hidl7manager4V1_023BnHwServiceNotificationE"
  vtable_layout {
    vtable_components {
      kind: VBaseOffset
      mangled_component_name: ""
      value: 136
    }
    vtable_components {
      kind: OffsetToTop
      mangled_component_name: ""
      value: 0
    }
    vtable_components {
      kind: RTTI
      mangled_component_name: "_ZN7android4hidl7manager4V1_023BnHwServiceNotificationE"
      value: 0
    }
    vtable_components {
      kind: FunctionPointer
      mangled_component_name: "_ZN7android8hardware9BHwBinder8transactEjRKNS0_6ParcelEPS2_jNSt3__18functionIFvRS2_EEE"
      value: 0
    }
    vtable_components {
      kind: FunctionPointer
      mangled_component_name: "_ZN7android8hardware9BHwBinder11linkToDeathERKNS_2spINS0_7IBinder14DeathRecipientEEEPvj"
      value: 0
    }
    vtable_components {
      kind: FunctionPointer
      mangled_component_name: "_ZN7android8hardware9BHwBinder13unlinkToDeathERKNS_2wpINS0_7IBinder14DeathRecipientEEEPvjPS5_"
      value: 0
    }
    vtable_components {
      kind: FunctionPointer
      mangled_component_name: "_ZNK7android8hardware7IBinder13checkSubclassEPKv"
      value: 0
    }
    vtable_components {
      kind: FunctionPointer
      mangled_component_name: "_ZN7android8hardware9BHwBinder12attachObjectEPKvPvS4_PFvS3_S4_S4_E"
      value: 0
    }
    vtable_components {
      kind: FunctionPointer
      mangled_component_name: "_ZNK7android8hardware9BHwBinder10findObjectEPKv"
      value: 0
    }
    vtable_components {
      kind: FunctionPointer
      mangled_component_name: "_ZN7android8hardware9BHwBinder12detachObjectEPKv"
      value: 0
    }
    vtable_components {
      kind: FunctionPointer
      mangled_component_name: "_ZN7android8hardware9BHwBinder11localBinderEv"
      value: 0
    }
    vtable_components {
      kind: FunctionPointer
      mangled_component_name: "_ZN7android8hardware7IBinder12remoteBinderEv"
      value: 0
    }
    vtable_components {
      kind: CompleteDtorPointer
      mangled_component_name: "_ZN7android4hidl7manager4V1_023BnHwServiceNotificationD0Ev"
      value: 0
    }
    vtable_components {
      kind: UnusedFunctionPointer
      mangled_component_name: "_ZN7android4hidl7manager4V1_023BnHwServiceNotificationD0Ev"
      value: 0
    }
    vtable_components {
      kind: FunctionPointer
      mangled_component_name: "_ZN7android4hidl7manager4V1_023BnHwServiceNotification10onTransactEjRKNS_8hardware6ParcelEPS5_jNSt3__18functionIFvRS5_EEE"
      value: 0
    }
    vtable_components {
      kind: OffsetToTop
      mangled_component_name: ""
      value: 18446744073709551584
    }
    vtable_components {
      kind: RTTI
      mangled_component_name: "_ZN7android4hidl7manager4V1_023BnHwServiceNotificationE"
      value: 0
    }
    vtable_components {
      kind: CompleteDtorPointer
      mangled_component_name: "_ZN7android4hidl7manager4V1_023BnHwServiceNotificationD0Ev"
      value: 0
    }
    vtable_components {
      kind: UnusedFunctionPointer
      mangled_component_name: "_ZN7android4hidl7manager4V1_023BnHwServiceNotificationD0Ev"
      value: 0
    }
    vtable_components {
      kind: VCallOffset
      mangled_component_name: ""
      value: 0
    }
    vtable_components {
      kind: VCallOffset
      mangled_component_name: ""
      value: 0
    }
    vtable_components {
      kind: VCallOffset
      mangled_component_name: ""
      value: 0
    }
    vtable_components {
      kind: VCallOffset
      mangled_component_name: ""
      value: 0
    }
    vtable_components {
      kind: VCallOffset
      mangled_component_name: ""
      value: 18446744073709551480
    }
    vtable_components {
      kind: OffsetToTop
      mangled_component_name: ""
      value: 18446744073709551480
    }
    vtable_components {
      kind: RTTI
      mangled_component_name: "_ZN7android4hidl7manager4V1_023BnHwServiceNotificationE"
      value: 0
    }
    vtable_components {
      kind: CompleteDtorPointer
      mangled_component_name: "_ZN7android4hidl7manager4V1_023BnHwServiceNotificationD0Ev"
      value: 0
    }
    vtable_components {
      kind: UnusedFunctionPointer
      mangled_component_name: "_ZN7android4hidl7manager4V1_023BnHwServiceNotificationD0Ev"
      value: 0
    }
    vtable_components {
      kind: FunctionPointer
      mangled_component_name: "_ZN7android7RefBase10onFirstRefEv"
      value: 0
    }
    vtable_components {
      kind: FunctionPointer
      mangled_component_name: "_ZN7android7RefBase15onLastStrongRefEPKv"
      value: 0
    }
    vtable_components {
      kind: FunctionPointer
      mangled_component_name: "_ZN7android7RefBase20onIncStrongAttemptedEjPKv"
      value: 0
    }
    vtable_components {
      kind: FunctionPointer
      mangled_component_name: "_ZN7android7RefBase13onLastWeakRefEPKv"
      value: 0
    }
  }
}
records {
  basic_abi {
    type_abi {
      name: "android::hidl::manager::V1_0::BpHwServiceNotification"
      size: 216
      alignment: 8
    }
    name: "android::hidl::manager::V1_0::BpHwServiceNotification"
    access: public_access
    linker_set_key: "_ZN7android4hidl7manager4V1_023BpHwServiceNotificationE"
  }
  fields {
    basic_abi {
      type_abi {
        name: "std::mutex"
        size: 40
        alignment: 4
      }
      name: "_hidl_mMutex"
      access: private_access
    }
  }
  fields {
    basic_abi {
      type_abi {
        name: "std::vector<android::sp<android::hardware::hidl_binder_death_recipient>, std::allocator<android::sp<android::hardware::hidl_binder_death_recipient> > >"
        size: 24
        alignment: 8
      }
      name: "_hidl_mDeathRecipients"
      access: private_access
    }
  }
  base_specifiers {
    basic_abi {
      type_abi {
        name: "android::hardware::BpInterface<android::hidl::manager::V1_0::IServiceNotification>"
        size: 64
        alignment: 8
      }
      name: ""
      access: public_access
    }
    is_virtual: false
  }
  base_specifiers {
    basic_abi {
      type_abi {
        name: "android::hardware::details::HidlInstrumentor"
        size: 88
        alignment: 8
      }
      name: ""
      access: public_access
    }
    is_virtual: false
  }
  source_file: "out/soong/.intermediates/system/libhidl/transport/manager/1.0/android.hidl.manager@1.0_genc++_headers/gen/android/hidl/manager/1.0/BpHwServiceNotification.h"
  mangled_record_name: "_ZN7android4hidl7manager4V1_023BpHwServiceNotificationE"
  vtable_layout {
    vtable_components {
      kind: VBaseOffset
      mangled_component_name: ""
      value: 200
    }
    vtable_components {
      kind: OffsetToTop
      mangled_component_name: ""
      value: 0
    }
    vtable_components {
      kind: RTTI
      mangled_component_name: "_ZN7android4hidl7manager4V1_023BpHwServiceNotificationE"
      value: 0
    }
    vtable_components {
      kind: FunctionPointer
      mangled_component_name: "_ZNK7android4hidl7manager4V1_023BpHwServiceNotification8isRemoteEv"
      value: 0
    }
    vtable_components {
      kind: FunctionPointer
      mangled_component_name: "_ZN7android4hidl7manager4V1_023BpHwServiceNotification14interfaceChainENSt3__18functionIFvRKNS_8hardware8hidl_vecINS6_11hidl_stringEEEEEE"
      value: 0
    }
    vtable_components {
      kind: FunctionPointer
      mangled_component_name: "_ZN7android4hidl7manager4V1_023BpHwServiceNotification5debugERKNS_8hardware11hidl_handleERKNS4_8hidl_vecINS4_11hidl_stringEEE"
      value: 0
    }
    vtable_components {
      kind: FunctionPointer
      mangled_component_name: "_ZN7android4hidl7manager4V1_023BpHwServiceNotification19interfaceDescriptorENSt3__18functionIFvRKNS_8hardware11hidl_stringEEEE"
      value: 0
    }
    vtable_components {
      kind: FunctionPointer
      mangled_component_name: "_ZN7android4hidl7manager4V1_023BpHwServiceNotification12getHashChainENSt3__18functionIFvRKNS_8hardware8hidl_vecINS6_10hidl_arrayIhLm32EJEEEEEEEE"
      value: 0
    }
    vtable_components {
      kind: FunctionPointer
      mangled_component_name: "_ZN7android4hidl7manager4V1_023BpHwServiceNotification21setHALInstrumentationEv"
      value: 0
    }
    vtable_components {
      kind: FunctionPointer
      mangled_component_name: "_ZN7android4hidl7manager4V1_023BpHwServiceNotification11linkToDeathERKNS_2spINS_8hardware20hidl_death_recipientEEEm"
      value: 0
    }
    vtable_components {
      kind: FunctionPointer
      mangled_component_name: "_ZN7android4hidl7manager4V1_023BpHwServiceNotification4pingEv"
      value: 0
    }
    vtable_components {
      kind: FunctionPointer
      mangled_component_name: "_ZN7android4hidl7manager4V1_023BpHwServiceNotification12getDebugInfoENSt3__18functionIFvRKNS0_4base4V1_09DebugInfoEEEE"
      value: 0
    }
    vtable_components {
      kind: FunctionPointer
      mangled_component_name: "_ZN7android4hidl7manager4V1_023BpHwServiceNotification21notifySyspropsChangedEv"
      value: 0
    }
    vtable_components {
      kind: FunctionPointer
      mangled_component_name: "_ZN7android4hidl7manager4V1_023BpHwServiceNotification13unlinkToDeathERKNS_2spINS_8hardware20hidl_death_recipientEEE"
      value: 0
    }
    vtable_components {
      kind: CompleteDtorPointer
      mangled_component_name: "_ZN7android4hidl7manager4V1_023BpHwServiceNotificationD0Ev"
      value: 0
    }
    vtable_components {
      kind: UnusedFunctionPointer
      mangled_component_name: "_ZN7android4hidl7manager4V1_023BpHwServiceNotificationD0Ev"
      value: 0
    }
    vtable_components {
      kind: FunctionPointer
      mangled_component_name: "_ZN7android4hidl7manager4V1_023BpHwServiceNotification14onRegistrationERKNS_8hardware11hidl_stringES7_b"
      value: 0
    }
    vtable_components {
      kind: FunctionPointer
      mangled_component_name: "_ZN7android8hardware11BpInterfaceINS_4hidl7manager4V1_020IServiceNotificationEE10onAsBinderEv"
      value: 0
    }
    vtable_components {
      kind: VBaseOffset
      mangled_component_name: ""
      value: 192
    }
    vtable_components {
      kind: OffsetToTop
      mangled_component_name: ""
      value: 18446744073709551608
    }
    vtable_components {
      kind: RTTI
      mangled_component_name: "_ZN7android4hidl7manager4V1_023BpHwServiceNotificationE"
      value: 0
    }
    vtable_components {
      kind: CompleteDtorPointer
      mangled_component_name: "_ZN7android4hidl7manager4V1_023BpHwServiceNotificationD0Ev"
      value: 0
    }
    vtable_components {
      kind: UnusedFunctionPointer
      mangled_component_name: "_ZN7android4hidl7manager4V1_023BpHwServiceNotificationD0Ev"
      value: 0
    }
    vtable_components {
      kind: FunctionPointer
      mangled_component_name: "_ZN7android8hardware11BpInterfaceINS_4hidl7manager4V1_020IServiceNotificationEE10onAsBinderEv"
      value: 0
    }
    vtable_components {
      kind: VBaseOffset
      mangled_component_name: ""
      value: 184
    }
    vtable_components {
      kind: OffsetToTop
      mangled_component_name: ""
      value: 18446744073709551600
    }
    vtable_components {
      kind: RTTI
      mangled_component_name: "_ZN7android4hidl7manager4V1_023BpHwServiceNotificationE"
      value: 0
    }
    vtable_components {
      kind: CompleteDtorPointer
      mangled_component_name: "_ZN7android4hidl7manager4V1_023BpHwServiceNotificationD0Ev"
      value: 0
    }
    vtable_components {
      kind: UnusedFunctionPointer
      mangled_component_name: "_ZN7android4hidl7manager4V1_023BpHwServiceNotificationD0Ev"
      value: 0
    }
    vtable_components {
      kind: FunctionPointer
      mangled_component_name: "_ZN7android8hardware11BpHwRefBase10onFirstRefEv"
      value: 0
    }
    vtable_components {
      kind: FunctionPointer
      mangled_component_name: "_ZN7android8hardware11BpHwRefBase15onLastStrongRefEPKv"
      value: 0
    }
    vtable_components {
      kind: FunctionPointer
      mangled_component_name: "_ZN7android8hardware11BpHwRefBase20onIncStrongAttemptedEjPKv"
      value: 0
    }
    vtable_components {
      kind: OffsetToTop
      mangled_component_name: ""
      value: 18446744073709551568
    }
    vtable_components {
      kind: RTTI
      mangled_component_name: "_ZN7android4hidl7manager4V1_023BpHwServiceNotificationE"
      value: 0
    }
    vtable_components {
      kind: CompleteDtorPointer
      mangled_component_name: "_ZN7android4hidl7manager4V1_023BpHwServiceNotificationD0Ev"
      value: 0
    }
    vtable_components {
      kind: UnusedFunctionPointer
      mangled_component_name: "_ZN7android4hidl7manager4V1_023BpHwServiceNotificationD0Ev"
      value: 0
    }
    vtable_components {
      kind: VCallOffset
      mangled_component_name: ""
      value: 0
    }
    vtable_components {
      kind: VCallOffset
      mangled_component_name: ""
      value: 18446744073709551432
    }
    vtable_components {
      kind: VCallOffset
      mangled_component_name: ""
      value: 18446744073709551432
    }
    vtable_components {
      kind: VCallOffset
      mangled_component_name: ""
      value: 18446744073709551432
    }
    vtable_components {
      kind: VCallOffset
      mangled_component_name: ""
      value: 18446744073709551416
    }
    vtable_components {
      kind: OffsetToTop
      mangled_component_name: ""
      value: 18446744073709551416
    }
    vtable_components {
      kind: RTTI
      mangled_component_name: "_ZN7android4hidl7manager4V1_023BpHwServiceNotificationE"
      value: 0
    }
    vtable_components {
      kind: CompleteDtorPointer
      mangled_component_name: "_ZN7android4hidl7manager4V1_023BpHwServiceNotificationD0Ev"
      value: 0
    }
    vtable_components {
      kind: UnusedFunctionPointer
      mangled_component_name: "_ZN7android4hidl7manager4V1_023BpHwServiceNotificationD0Ev"
      value: 0
    }
    vtable_components {
      kind: FunctionPointer
      mangled_component_name: "_ZN7android8hardware11BpHwRefBase10onFirstRefEv"
      value: 0
    }
    vtable_components {
      kind: FunctionPointer
      mangled_component_name: "_ZN7android8hardware11BpHwRefBase15onLastStrongRefEPKv"
      value: 0
    }
    vtable_components {
      kind: FunctionPointer
      mangled_component_name: "_ZN7android8hardware11BpHwRefBase20onIncStrongAttemptedEjPKv"
      value: 0
    }
    vtable_components {
      kind: FunctionPointer
      mangled_component_name: "_ZN7android7RefBase13onLastWeakRefEPKv"
      value: 0
    }
  }
}
records {
  basic_abi {
    type_abi {
      name: "android::hidl::manager::V1_0::BpHwServiceManager"
      size: 216
      alignment: 8
    }
    name: "android::hidl::manager::V1_0::BpHwServiceManager"
    access: public_access
    linker_set_key: "_ZN7android4hidl7manager4V1_018BpHwServiceManagerE"
  }
  fields {
    basic_abi {
      type_abi {
        name: "std::mutex"
        size: 40
        alignment: 4
      }
      name: "_hidl_mMutex"
      access: private_access
    }
  }
  fields {
    basic_abi {
      type_abi {
        name: "std::vector<android::sp<android::hardware::hidl_binder_death_recipient>, std::allocator<android::sp<android::hardware::hidl_binder_death_recipient> > >"
        size: 24
        alignment: 8
      }
      name: "_hidl_mDeathRecipients"
      access: private_access
    }
  }
  base_specifiers {
    basic_abi {
      type_abi {
        name: "android::hardware::BpInterface<android::hidl::manager::V1_0::IServiceManager>"
        size: 64
        alignment: 8
      }
      name: ""
      access: public_access
    }
    is_virtual: false
  }
  base_specifiers {
    basic_abi {
      type_abi {
        name: "android::hardware::details::HidlInstrumentor"
        size: 88
        alignment: 8
      }
      name: ""
      access: public_access
    }
    is_virtual: false
  }
  source_file: "out/soong/.intermediates/system/libhidl/transport/manager/1.0/android.hidl.manager@1.0_genc++_headers/gen/android/hidl/manager/1.0/BpHwServiceManager.h"
  mangled_record_name: "_ZN7android4hidl7manager4V1_018BpHwServiceManagerE"
  vtable_layout {
    vtable_components {
      kind: VBaseOffset
      mangled_component_name: ""
      value: 200
    }
    vtable_components {
      kind: OffsetToTop
      mangled_component_name: ""
      value: 0
    }
    vtable_components {
      kind: RTTI
      mangled_component_name: "_ZN7android4hidl7manager4V1_018BpHwServiceManagerE"
      value: 0
    }
    vtable_components {
      kind: FunctionPointer
      mangled_component_name: "_ZNK7android4hidl7manager4V1_018BpHwServiceManager8isRemoteEv"
      value: 0
    }
    vtable_components {
      kind: FunctionPointer
      mangled_component_name: "_ZN7android4hidl7manager4V1_018BpHwServiceManager14interfaceChainENSt3__18functionIFvRKNS_8hardware8hidl_vecINS6_11hidl_stringEEEEEE"
      value: 0
    }
    vtable_components {
      kind: FunctionPointer
      mangled_component_name: "_ZN7android4hidl7manager4V1_018BpHwServiceManager5debugERKNS_8hardware11hidl_handleERKNS4_8hidl_vecINS4_11hidl_stringEEE"
      value: 0
    }
    vtable_components {
      kind: FunctionPointer
      mangled_component_name: "_ZN7android4hidl7manager4V1_018BpHwServiceManager19interfaceDescriptorENSt3__18functionIFvRKNS_8hardware11hidl_stringEEEE"
      value: 0
    }
    vtable_components {
      kind: FunctionPointer
      mangled_component_name: "_ZN7android4hidl7manager4V1_018BpHwServiceManager12getHashChainENSt3__18functionIFvRKNS_8hardware8hidl_vecINS6_10hidl_arrayIhLm32EJEEEEEEEE"
      value: 0
    }
    vtable_components {
      kind: FunctionPointer
      mangled_component_name: "_ZN7android4hidl7manager4V1_018BpHwServiceManager21setHALInstrumentationEv"
      value: 0
    }
    vtable_components {
      kind: FunctionPointer
      mangled_component_name: "_ZN7android4hidl7manager4V1_018BpHwServiceManager11linkToDeathERKNS_2spINS_8hardware20hidl_death_recipientEEEm"
      value: 0
    }
    vtable_components {
      kind: FunctionPointer
      mangled_component_name: "_ZN7android4hidl7manager4V1_018BpHwServiceManager4pingEv"
      value: 0
    }
    vtable_components {
      kind: FunctionPointer
      mangled_component_name: "_ZN7android4hidl7manager4V1_018BpHwServiceManager12getDebugInfoENSt3__18functionIFvRKNS0_4base4V1_09DebugInfoEEEE"
      value: 0
    }
    vtable_components {
      kind: FunctionPointer
      mangled_component_name: "_ZN7android4hidl7manager4V1_018BpHwServiceManager21notifySyspropsChangedEv"
      value: 0
    }
    vtable_components {
      kind: FunctionPointer
      mangled_component_name: "_ZN7android4hidl7manager4V1_018BpHwServiceManager13unlinkToDeathERKNS_2spINS_8hardware20hidl_death_recipientEEE"
      value: 0
    }
    vtable_components {
      kind: CompleteDtorPointer
      mangled_component_name: "_ZN7android4hidl7manager4V1_018BpHwServiceManagerD0Ev"
      value: 0
    }
    vtable_components {
      kind: UnusedFunctionPointer
      mangled_component_name: "_ZN7android4hidl7manager4V1_018BpHwServiceManagerD0Ev"
      value: 0
    }
    vtable_components {
      kind: FunctionPointer
      mangled_component_name: "_ZN7android4hidl7manager4V1_018BpHwServiceManager3getERKNS_8hardware11hidl_stringES7_"
      value: 0
    }
    vtable_components {
      kind: FunctionPointer
      mangled_component_name: "_ZN7android4hidl7manager4V1_018BpHwServiceManager3addERKNS_8hardware11hidl_stringERKNS_2spINS0_4base4V1_05IBaseEEE"
      value: 0
    }
    vtable_components {
      kind: FunctionPointer
      mangled_component_name: "_ZN7android4hidl7manager4V1_018BpHwServiceManager12getTransportERKNS_8hardware11hidl_stringES7_"
      value: 0
    }
    vtable_components {
      kind: FunctionPointer
      mangled_component_name: "_ZN7android4hidl7manager4V1_018BpHwServiceManager4listENSt3__18functionIFvRKNS_8hardware8hidl_vecINS6_11hidl_stringEEEEEE"
      value: 0
    }
    vtable_components {
      kind: FunctionPointer
      mangled_component_name: "_ZN7android4hidl7manager4V1_018BpHwServiceManager15listByInterfaceERKNS_8hardware11hidl_stringENSt3__18functionIFvRKNS4_8hidl_vecIS5_EEEEE"
      value: 0
    }
    vtable_components {
      kind: FunctionPointer
      mangled_component_name: "_ZN7android4hidl7manager4V1_018BpHwServiceManager24registerForNotificationsERKNS_8hardware11hidl_stringES7_RKNS_2spINS2_20IServiceNotificationEEE"
      value: 0
    }
    vtable_components {
      kind: FunctionPointer
      mangled_component_name: "_ZN7android4hidl7manager4V1_018BpHwServiceManager9debugDumpENSt3__18functionIFvRKNS_8hardware8hidl_vecINS2_15IServiceManager17InstanceDebugInfoEEEEEE"
      value: 0
    }
    vtable_components {
      kind: FunctionPointer
      mangled_component_name: "_ZN7android4hidl7manager4V1_018BpHwServiceManager25registerPassthroughClientERKNS_8hardware11hidl_stringES7_"
      value: 0
    }
    vtable_components {
      kind: FunctionPointer
      mangled_component_name: "_ZN7android8hardware11BpInterfaceINS_4hidl7manager4V1_015IServiceManagerEE10onAsBinderEv"
      value: 0
    }
    vtable_components {
      kind: VBaseOffset
      mangled_component_name: ""
      value: 192
    }
    vtable_components {
      kind: OffsetToTop
      mangled_component_name: ""
      value: 18446744073709551608
    }
    vtable_components {
      kind: RTTI
      mangled_component_name: "_ZN7android4hidl7manager4V1_018BpHwServiceManagerE"
      value: 0
    }
    vtable_components {
      kind: CompleteDtorPointer
      mangled_component_name: "_ZN7android4hidl7manager4V1_018BpHwServiceManagerD0Ev"
      value: 0
    }
    vtable_components {
      kind: UnusedFunctionPointer
      mangled_component_name: "_ZN7android4hidl7manager4V1_018BpHwServiceManagerD0Ev"
      value: 0
    }
    vtable_components {
      kind: FunctionPointer
      mangled_component_name: "_ZN7android8hardware11BpInterfaceINS_4hidl7manager4V1_015IServiceManagerEE10onAsBinderEv"
      value: 0
    }
    vtable_components {
      kind: VBaseOffset
      mangled_component_name: ""
      value: 184
    }
    vtable_components {
      kind: OffsetToTop
      mangled_component_name: ""
      value: 18446744073709551600
    }
    vtable_components {
      kind: RTTI
      mangled_component_name: "_ZN7android4hidl7manager4V1_018BpHwServiceManagerE"
      value: 0
    }
    vtable_components {
      kind: CompleteDtorPointer
      mangled_component_name: "_ZN7android4hidl7manager4V1_018BpHwServiceManagerD0Ev"
      value: 0
    }
    vtable_components {
      kind: UnusedFunctionPointer
      mangled_component_name: "_ZN7android4hidl7manager4V1_018BpHwServiceManagerD0Ev"
      value: 0
    }
    vtable_components {
      kind: FunctionPointer
      mangled_component_name: "_ZN7android8hardware11BpHwRefBase10onFirstRefEv"
      value: 0
    }
    vtable_components {
      kind: FunctionPointer
      mangled_component_name: "_ZN7android8hardware11BpHwRefBase15onLastStrongRefEPKv"
      value: 0
    }
    vtable_components {
      kind: FunctionPointer
      mangled_component_name: "_ZN7android8hardware11BpHwRefBase20onIncStrongAttemptedEjPKv"
      value: 0
    }
    vtable_components {
      kind: OffsetToTop
      mangled_component_name: ""
      value: 18446744073709551568
    }
    vtable_components {
      kind: RTTI
      mangled_component_name: "_ZN7android4hidl7manager4V1_018BpHwServiceManagerE"
      value: 0
    }
    vtable_components {
      kind: CompleteDtorPointer
      mangled_component_name: "_ZN7android4hidl7manager4V1_018BpHwServiceManagerD0Ev"
      value: 0
    }
    vtable_components {
      kind: UnusedFunctionPointer
      mangled_component_name: "_ZN7android4hidl7manager4V1_018BpHwServiceManagerD0Ev"
      value: 0
    }
    vtable_components {
      kind: VCallOffset
      mangled_component_name: ""
      value: 0
    }
    vtable_components {
      kind: VCallOffset
      mangled_component_name: ""
      value: 18446744073709551432
    }
    vtable_components {
      kind: VCallOffset
      mangled_component_name: ""
      value: 18446744073709551432
    }
    vtable_components {
      kind: VCallOffset
      mangled_component_name: ""
      value: 18446744073709551432
    }
    vtable_components {
      kind: VCallOffset
      mangled_component_name: ""
      value: 18446744073709551416
    }
    vtable_components {
      kind: OffsetToTop
      mangled_component_name: ""
      value: 18446744073709551416
    }
    vtable_components {
      kind: RTTI
      mangled_component_name: "_ZN7android4hidl7manager4V1_018BpHwServiceManagerE"
      value: 0
    }
    vtable_components {
      kind: CompleteDtorPointer
      mangled_component_name: "_ZN7android4hidl7manager4V1_018BpHwServiceManagerD0Ev"
      value: 0
    }
    vtable_components {
      kind: UnusedFunctionPointer
      mangled_component_name: "_ZN7android4hidl7manager4V1_018BpHwServiceManagerD0Ev"
      value: 0
    }
    vtable_components {
      kind: FunctionPointer
      mangled_component_name: "_ZN7android8hardware11BpHwRefBase10onFirstRefEv"
      value: 0
    }
    vtable_components {
      kind: FunctionPointer
      mangled_component_name: "_ZN7android8hardware11BpHwRefBase15onLastStrongRefEPKv"
      value: 0
    }
    vtable_components {
      kind: FunctionPointer
      mangled_component_name: "_ZN7android8hardware11BpHwRefBase20onIncStrongAttemptedEjPKv"
      value: 0
    }
    vtable_components {
      kind: FunctionPointer
      mangled_component_name: "_ZN7android7RefBase13onLastWeakRefEPKv"
      value: 0
    }
  }
}
records {
  basic_abi {
    type_abi {
      name: "android::hidl::manager::V1_0::BnHwServiceManager"
      size: 152
      alignment: 8
    }
    name: "android::hidl::manager::V1_0::BnHwServiceManager"
    access: public_access
    linker_set_key: "_ZN7android4hidl7manager4V1_018BnHwServiceManagerE"
  }
  fields {
    basic_abi {
      type_abi {
        name: "android::sp<android::hidl::manager::V1_0::IServiceManager>"
        size: 8
        alignment: 8
      }
      name: "_hidl_mImpl"
      access: private_access
    }
  }
  base_specifiers {
    basic_abi {
      type_abi {
        name: "android::hidl::base::V1_0::BnHwBase"
        size: 144
        alignment: 8
      }
      name: ""
      access: public_access
    }
    is_virtual: false
  }
  source_file: "out/soong/.intermediates/system/libhidl/transport/manager/1.0/android.hidl.manager@1.0_genc++_headers/gen/android/hidl/manager/1.0/BnHwServiceManager.h"
  mangled_record_name: "_ZN7android4hidl7manager4V1_018BnHwServiceManagerE"
  vtable_layout {
    vtable_components {
      kind: VBaseOffset
      mangled_component_name: ""
      value: 136
    }
    vtable_components {
      kind: OffsetToTop
      mangled_component_name: ""
      value: 0
    }
    vtable_components {
      kind: RTTI
      mangled_component_name: "_ZN7android4hidl7manager4V1_018BnHwServiceManagerE"
      value: 0
    }
    vtable_components {
      kind: FunctionPointer
      mangled_component_name: "_ZN7android8hardware9BHwBinder8transactEjRKNS0_6ParcelEPS2_jNSt3__18functionIFvRS2_EEE"
      value: 0
    }
    vtable_components {
      kind: FunctionPointer
      mangled_component_name: "_ZN7android8hardware9BHwBinder11linkToDeathERKNS_2spINS0_7IBinder14DeathRecipientEEEPvj"
      value: 0
    }
    vtable_components {
      kind: FunctionPointer
      mangled_component_name: "_ZN7android8hardware9BHwBinder13unlinkToDeathERKNS_2wpINS0_7IBinder14DeathRecipientEEEPvjPS5_"
      value: 0
    }
    vtable_components {
      kind: FunctionPointer
      mangled_component_name: "_ZNK7android8hardware7IBinder13checkSubclassEPKv"
      value: 0
    }
    vtable_components {
      kind: FunctionPointer
      mangled_component_name: "_ZN7android8hardware9BHwBinder12attachObjectEPKvPvS4_PFvS3_S4_S4_E"
      value: 0
    }
    vtable_components {
      kind: FunctionPointer
      mangled_component_name: "_ZNK7android8hardware9BHwBinder10findObjectEPKv"
      value: 0
    }
    vtable_components {
      kind: FunctionPointer
      mangled_component_name: "_ZN7android8hardware9BHwBinder12detachObjectEPKv"
      value: 0
    }
    vtable_components {
      kind: FunctionPointer
      mangled_component_name: "_ZN7android8hardware9BHwBinder11localBinderEv"
      value: 0
    }
    vtable_components {
      kind: FunctionPointer
      mangled_component_name: "_ZN7android8hardware7IBinder12remoteBinderEv"
      value: 0
    }
    vtable_components {
      kind: CompleteDtorPointer
      mangled_component_name: "_ZN7android4hidl7manager4V1_018BnHwServiceManagerD0Ev"
      value: 0
    }
    vtable_components {
      kind: UnusedFunctionPointer
      mangled_component_name: "_ZN7android4hidl7manager4V1_018BnHwServiceManagerD0Ev"
      value: 0
    }
    vtable_components {
      kind: FunctionPointer
      mangled_component_name: "_ZN7android4hidl7manager4V1_018BnHwServiceManager10onTransactEjRKNS_8hardware6ParcelEPS5_jNSt3__18functionIFvRS5_EEE"
      value: 0
    }
    vtable_components {
      kind: OffsetToTop
      mangled_component_name: ""
      value: 18446744073709551584
    }
    vtable_components {
      kind: RTTI
      mangled_component_name: "_ZN7android4hidl7manager4V1_018BnHwServiceManagerE"
      value: 0
    }
    vtable_components {
      kind: CompleteDtorPointer
      mangled_component_name: "_ZN7android4hidl7manager4V1_018BnHwServiceManagerD0Ev"
      value: 0
    }
    vtable_components {
      kind: UnusedFunctionPointer
      mangled_component_name: "_ZN7android4hidl7manager4V1_018BnHwServiceManagerD0Ev"
      value: 0
    }
    vtable_components {
      kind: VCallOffset
      mangled_component_name: ""
      value: 0
    }
    vtable_components {
      kind: VCallOffset
      mangled_component_name: ""
      value: 0
    }
    vtable_components {
      kind: VCallOffset
      mangled_component_name: ""
      value: 0
    }
    vtable_components {
      kind: VCallOffset
      mangled_component_name: ""
      value: 0
    }
    vtable_components {
      kind: VCallOffset
      mangled_component_name: ""
      value: 18446744073709551480
    }
    vtable_components {
      kind: OffsetToTop
      mangled_component_name: ""
      value: 18446744073709551480
    }
    vtable_components {
      kind: RTTI
      mangled_component_name: "_ZN7android4hidl7manager4V1_018BnHwServiceManagerE"
      value: 0
    }
    vtable_components {
      kind: CompleteDtorPointer
      mangled_component_name: "_ZN7android4hidl7manager4V1_018BnHwServiceManagerD0Ev"
      value: 0
    }
    vtable_components {
      kind: UnusedFunctionPointer
      mangled_component_name: "_ZN7android4hidl7manager4V1_018BnHwServiceManagerD0Ev"
      value: 0
    }
    vtable_components {
      kind: FunctionPointer
      mangled_component_name: "_ZN7android7RefBase10onFirstRefEv"
      value: 0
    }
    vtable_components {
      kind: FunctionPointer
      mangled_component_name: "_ZN7android7RefBase15onLastStrongRefEPKv"
      value: 0
    }
    vtable_components {
      kind: FunctionPointer
      mangled_component_name: "_ZN7android7RefBase20onIncStrongAttemptedEjPKv"
      value: 0
    }
    vtable_components {
      kind: FunctionPointer
      mangled_component_name: "_ZN7android7RefBase13onLastWeakRefEPKv"
      value: 0
    }
  }
}
records {
  basic_abi {
    type_abi {
      name: "android::hardware::ConcurrentMap<std::basic_string<char, std::char_traits<char>, std::allocator<char> >, std::function<sp<IBase> (void *)> >"
      size: 64
      alignment: 8
    }
    name: "android::hardware::ConcurrentMap"
    access: public_access
    linker_set_key: "_ZN7android8hardware13ConcurrentMapINSt3__112basic_stringIcNS2_11char_traitsIcEENS2_9allocatorIcEEEENS2_8functionIFNS_2spINS_4hidl4base4V1_05IBaseEEEPvEEEEE"
  }
  fields {
    basic_abi {
      type_abi {
        name: "std::mutex"
        size: 40
        alignment: 4
      }
      name: "mMutex"
      access: private_access
    }
  }
  fields {
    basic_abi {
      type_abi {
        name: "std::map<std::basic_string<char, std::char_traits<char>, std::allocator<char> >, std::function<sp<IBase> (void *)>, std::less<std::basic_string<char, std::char_traits<char>, std::allocator<char> > >, std::allocator<std::pair<const std::basic_string<char, std::char_traits<char>, std::allocator<char> >, std::function<sp<IBase> (void *)> > > >"
        size: 24
        alignment: 8
      }
      name: "mMap"
      access: private_access
    }
  }
  source_file: "system/libhidl/transport/include/hidl/ConcurrentMap.h"
  template_info {
    elements {
      basic_abi {
        type_abi {
          name: "std::basic_string<char, std::char_traits<char>, std::allocator<char> >"
          size: 24
          alignment: 8
        }
        linker_set_key: "std::basic_string<char, std::char_traits<char>, std::allocator<char> >"
      }
    }
    elements {
      basic_abi {
        type_abi {
          name: "std::function<sp<IBase> (void *)>"
          size: 48
          alignment: 16
        }
        linker_set_key: "std::function<sp<IBase> (void *)>"
      }
    }
  }
  mangled_record_name: "_ZN7android8hardware13ConcurrentMapINSt3__112basic_stringIcNS2_11char_traitsIcEENS2_9allocatorIcEEEENS2_8functionIFNS_2spINS_4hidl4base4V1_05IBaseEEEPvEEEEE"
}
records {
  basic_abi {
    type_abi {
      name: "android::hidl::manager::V1_0::BsServiceManager"
      size: 136
      alignment: 8
    }
    name: "android::hidl::manager::V1_0::BsServiceManager"
    access: public_access
    linker_set_key: "_ZN7android4hidl7manager4V1_016BsServiceManagerE"
  }
  fields {
    basic_abi {
      type_abi {
        name: "const android::sp<android::hidl::manager::V1_0::IServiceManager>"
        size: 8
        alignment: 8
      }
      name: "mImpl"
      access: private_access
    }
  }
  fields {
    basic_abi {
      type_abi {
        name: "android::hardware::details::TaskRunner"
        size: 16
        alignment: 8
      }
      name: "mOnewayQueue"
      access: private_access
    }
  }
  base_specifiers {
    basic_abi {
      type_abi {
        name: "android::hidl::manager::V1_0::IServiceManager"
        size: 24
        alignment: 8
      }
      name: ""
      access: public_access
    }
    is_virtual: false
  }
  base_specifiers {
    basic_abi {
      type_abi {
        name: "android::hardware::details::HidlInstrumentor"
        size: 88
        alignment: 8
      }
      name: ""
      access: public_access
    }
    is_virtual: false
  }
  source_file: "out/soong/.intermediates/system/libhidl/transport/manager/1.0/android.hidl.manager@1.0_genc++_headers/gen/android/hidl/manager/1.0/BsServiceManager.h"
  mangled_record_name: "_ZN7android4hidl7manager4V1_016BsServiceManagerE"
  vtable_layout {
    vtable_components {
      kind: VBaseOffset
      mangled_component_name: ""
      value: 120
    }
    vtable_components {
      kind: OffsetToTop
      mangled_component_name: ""
      value: 0
    }
    vtable_components {
      kind: RTTI
      mangled_component_name: "_ZN7android4hidl7manager4V1_016BsServiceManagerE"
      value: 0
    }
    vtable_components {
      kind: FunctionPointer
      mangled_component_name: "_ZNK7android4hidl7manager4V1_015IServiceManager8isRemoteEv"
      value: 0
    }
    vtable_components {
      kind: FunctionPointer
      mangled_component_name: "_ZN7android4hidl7manager4V1_016BsServiceManager14interfaceChainENSt3__18functionIFvRKNS_8hardware8hidl_vecINS6_11hidl_stringEEEEEE"
      value: 0
    }
    vtable_components {
      kind: FunctionPointer
      mangled_component_name: "_ZN7android4hidl7manager4V1_016BsServiceManager5debugERKNS_8hardware11hidl_handleERKNS4_8hidl_vecINS4_11hidl_stringEEE"
      value: 0
    }
    vtable_components {
      kind: FunctionPointer
      mangled_component_name: "_ZN7android4hidl7manager4V1_016BsServiceManager19interfaceDescriptorENSt3__18functionIFvRKNS_8hardware11hidl_stringEEEE"
      value: 0
    }
    vtable_components {
      kind: FunctionPointer
      mangled_component_name: "_ZN7android4hidl7manager4V1_016BsServiceManager12getHashChainENSt3__18functionIFvRKNS_8hardware8hidl_vecINS6_10hidl_arrayIhLm32EJEEEEEEEE"
      value: 0
    }
    vtable_components {
      kind: FunctionPointer
      mangled_component_name: "_ZN7android4hidl7manager4V1_016BsServiceManager21setHALInstrumentationEv"
      value: 0
    }
    vtable_components {
      kind: FunctionPointer
      mangled_component_name: "_ZN7android4hidl7manager4V1_016BsServiceManager11linkToDeathERKNS_2spINS_8hardware20hidl_death_recipientEEEm"
      value: 0
    }
    vtable_components {
      kind: FunctionPointer
      mangled_component_name: "_ZN7android4hidl7manager4V1_016BsServiceManager4pingEv"
      value: 0
    }
    vtable_components {
      kind: FunctionPointer
      mangled_component_name: "_ZN7android4hidl7manager4V1_016BsServiceManager12getDebugInfoENSt3__18functionIFvRKNS0_4base4V1_09DebugInfoEEEE"
      value: 0
    }
    vtable_components {
      kind: FunctionPointer
      mangled_component_name: "_ZN7android4hidl7manager4V1_016BsServiceManager21notifySyspropsChangedEv"
      value: 0
    }
    vtable_components {
      kind: FunctionPointer
      mangled_component_name: "_ZN7android4hidl7manager4V1_016BsServiceManager13unlinkToDeathERKNS_2spINS_8hardware20hidl_death_recipientEEE"
      value: 0
    }
    vtable_components {
      kind: CompleteDtorPointer
      mangled_component_name: "_ZN7android4hidl7manager4V1_016BsServiceManagerD0Ev"
      value: 0
    }
    vtable_components {
      kind: UnusedFunctionPointer
      mangled_component_name: "_ZN7android4hidl7manager4V1_016BsServiceManagerD0Ev"
      value: 0
    }
    vtable_components {
      kind: FunctionPointer
      mangled_component_name: "_ZN7android4hidl7manager4V1_016BsServiceManager3getERKNS_8hardware11hidl_stringES7_"
      value: 0
    }
    vtable_components {
      kind: FunctionPointer
      mangled_component_name: "_ZN7android4hidl7manager4V1_016BsServiceManager3addERKNS_8hardware11hidl_stringERKNS_2spINS0_4base4V1_05IBaseEEE"
      value: 0
    }
    vtable_components {
      kind: FunctionPointer
      mangled_component_name: "_ZN7android4hidl7manager4V1_016BsServiceManager12getTransportERKNS_8hardware11hidl_stringES7_"
      value: 0
    }
    vtable_components {
      kind: FunctionPointer
      mangled_component_name: "_ZN7android4hidl7manager4V1_016BsServiceManager4listENSt3__18functionIFvRKNS_8hardware8hidl_vecINS6_11hidl_stringEEEEEE"
      value: 0
    }
    vtable_components {
      kind: FunctionPointer
      mangled_component_name: "_ZN7android4hidl7manager4V1_016BsServiceManager15listByInterfaceERKNS_8hardware11hidl_stringENSt3__18functionIFvRKNS4_8hidl_vecIS5_EEEEE"
      value: 0
    }
    vtable_components {
      kind: FunctionPointer
      mangled_component_name: "_ZN7android4hidl7manager4V1_016BsServiceManager24registerForNotificationsERKNS_8hardware11hidl_stringES7_RKNS_2spINS2_20IServiceNotificationEEE"
      value: 0
    }
    vtable_components {
      kind: FunctionPointer
      mangled_component_name: "_ZN7android4hidl7manager4V1_016BsServiceManager9debugDumpENSt3__18functionIFvRKNS_8hardware8hidl_vecINS2_15IServiceManager17InstanceDebugInfoEEEEEE"
      value: 0
    }
    vtable_components {
      kind: FunctionPointer
      mangled_component_name: "_ZN7android4hidl7manager4V1_016BsServiceManager25registerPassthroughClientERKNS_8hardware11hidl_stringES7_"
      value: 0
    }
    vtable_components {
      kind: OffsetToTop
      mangled_component_name: ""
      value: 18446744073709551608
    }
    vtable_components {
      kind: RTTI
      mangled_component_name: "_ZN7android4hidl7manager4V1_016BsServiceManagerE"
      value: 0
    }
    vtable_components {
      kind: CompleteDtorPointer
      mangled_component_name: "_ZN7android4hidl7manager4V1_016BsServiceManagerD0Ev"
      value: 0
    }
    vtable_components {
      kind: UnusedFunctionPointer
      mangled_component_name: "_ZN7android4hidl7manager4V1_016BsServiceManagerD0Ev"
      value: 0
    }
    vtable_components {
      kind: VCallOffset
      mangled_component_name: ""
      value: 0
    }
    vtable_components {
      kind: VCallOffset
      mangled_component_name: ""
      value: 0
    }
    vtable_components {
      kind: VCallOffset
      mangled_component_name: ""
      value: 0
    }
    vtable_components {
      kind: VCallOffset
      mangled_component_name: ""
      value: 0
    }
    vtable_components {
      kind: VCallOffset
      mangled_component_name: ""
      value: 18446744073709551496
    }
    vtable_components {
      kind: OffsetToTop
      mangled_component_name: ""
      value: 18446744073709551496
    }
    vtable_components {
      kind: RTTI
      mangled_component_name: "_ZN7android4hidl7manager4V1_016BsServiceManagerE"
      value: 0
    }
    vtable_components {
      kind: CompleteDtorPointer
      mangled_component_name: "_ZN7android4hidl7manager4V1_016BsServiceManagerD0Ev"
      value: 0
    }
    vtable_components {
      kind: UnusedFunctionPointer
      mangled_component_name: "_ZN7android4hidl7manager4V1_016BsServiceManagerD0Ev"
      value: 0
    }
    vtable_components {
      kind: FunctionPointer
      mangled_component_name: "_ZN7android7RefBase10onFirstRefEv"
      value: 0
    }
    vtable_components {
      kind: FunctionPointer
      mangled_component_name: "_ZN7android7RefBase15onLastStrongRefEPKv"
      value: 0
    }
    vtable_components {
      kind: FunctionPointer
      mangled_component_name: "_ZN7android7RefBase20onIncStrongAttemptedEjPKv"
      value: 0
    }
    vtable_components {
      kind: FunctionPointer
      mangled_component_name: "_ZN7android7RefBase13onLastWeakRefEPKv"
      value: 0
    }
  }
}
records {
  basic_abi {
    type_abi {
      name: "android::hidl::manager::V1_0::BsServiceNotification"
      size: 136
      alignment: 8
    }
    name: "android::hidl::manager::V1_0::BsServiceNotification"
    access: public_access
    linker_set_key: "_ZN7android4hidl7manager4V1_021BsServiceNotificationE"
  }
  fields {
    basic_abi {
      type_abi {
        name: "const android::sp<android::hidl::manager::V1_0::IServiceNotification>"
        size: 8
        alignment: 8
      }
      name: "mImpl"
      access: private_access
    }
  }
  fields {
    basic_abi {
      type_abi {
        name: "android::hardware::details::TaskRunner"
        size: 16
        alignment: 8
      }
      name: "mOnewayQueue"
      access: private_access
    }
  }
  base_specifiers {
    basic_abi {
      type_abi {
        name: "android::hidl::manager::V1_0::IServiceNotification"
        size: 24
        alignment: 8
      }
      name: ""
      access: public_access
    }
    is_virtual: false
  }
  base_specifiers {
    basic_abi {
      type_abi {
        name: "android::hardware::details::HidlInstrumentor"
        size: 88
        alignment: 8
      }
      name: ""
      access: public_access
    }
    is_virtual: false
  }
  source_file: "out/soong/.intermediates/system/libhidl/transport/manager/1.0/android.hidl.manager@1.0_genc++_headers/gen/android/hidl/manager/1.0/BsServiceNotification.h"
  mangled_record_name: "_ZN7android4hidl7manager4V1_021BsServiceNotificationE"
  vtable_layout {
    vtable_components {
      kind: VBaseOffset
      mangled_component_name: ""
      value: 120
    }
    vtable_components {
      kind: OffsetToTop
      mangled_component_name: ""
      value: 0
    }
    vtable_components {
      kind: RTTI
      mangled_component_name: "_ZN7android4hidl7manager4V1_021BsServiceNotificationE"
      value: 0
    }
    vtable_components {
      kind: FunctionPointer
      mangled_component_name: "_ZNK7android4hidl7manager4V1_020IServiceNotification8isRemoteEv"
      value: 0
    }
    vtable_components {
      kind: FunctionPointer
      mangled_component_name: "_ZN7android4hidl7manager4V1_021BsServiceNotification14interfaceChainENSt3__18functionIFvRKNS_8hardware8hidl_vecINS6_11hidl_stringEEEEEE"
      value: 0
    }
    vtable_components {
      kind: FunctionPointer
      mangled_component_name: "_ZN7android4hidl7manager4V1_021BsServiceNotification5debugERKNS_8hardware11hidl_handleERKNS4_8hidl_vecINS4_11hidl_stringEEE"
      value: 0
    }
    vtable_components {
      kind: FunctionPointer
      mangled_component_name: "_ZN7android4hidl7manager4V1_021BsServiceNotification19interfaceDescriptorENSt3__18functionIFvRKNS_8hardware11hidl_stringEEEE"
      value: 0
    }
    vtable_components {
      kind: FunctionPointer
      mangled_component_name: "_ZN7android4hidl7manager4V1_021BsServiceNotification12getHashChainENSt3__18functionIFvRKNS_8hardware8hidl_vecINS6_10hidl_arrayIhLm32EJEEEEEEEE"
      value: 0
    }
    vtable_components {
      kind: FunctionPointer
      mangled_component_name: "_ZN7android4hidl7manager4V1_021BsServiceNotification21setHALInstrumentationEv"
      value: 0
    }
    vtable_components {
      kind: FunctionPointer
      mangled_component_name: "_ZN7android4hidl7manager4V1_021BsServiceNotification11linkToDeathERKNS_2spINS_8hardware20hidl_death_recipientEEEm"
      value: 0
    }
    vtable_components {
      kind: FunctionPointer
      mangled_component_name: "_ZN7android4hidl7manager4V1_021BsServiceNotification4pingEv"
      value: 0
    }
    vtable_components {
      kind: FunctionPointer
      mangled_component_name: "_ZN7android4hidl7manager4V1_021BsServiceNotification12getDebugInfoENSt3__18functionIFvRKNS0_4base4V1_09DebugInfoEEEE"
      value: 0
    }
    vtable_components {
      kind: FunctionPointer
      mangled_component_name: "_ZN7android4hidl7manager4V1_021BsServiceNotification21notifySyspropsChangedEv"
      value: 0
    }
    vtable_components {
      kind: FunctionPointer
      mangled_component_name: "_ZN7android4hidl7manager4V1_021BsServiceNotification13unlinkToDeathERKNS_2spINS_8hardware20hidl_death_recipientEEE"
      value: 0
    }
    vtable_components {
      kind: CompleteDtorPointer
      mangled_component_name: "_ZN7android4hidl7manager4V1_021BsServiceNotificationD0Ev"
      value: 0
    }
    vtable_components {
      kind: UnusedFunctionPointer
      mangled_component_name: "_ZN7android4hidl7manager4V1_021BsServiceNotificationD0Ev"
      value: 0
    }
    vtable_components {
      kind: FunctionPointer
      mangled_component_name: "_ZN7android4hidl7manager4V1_021BsServiceNotification14onRegistrationERKNS_8hardware11hidl_stringES7_b"
      value: 0
    }
    vtable_components {
      kind: OffsetToTop
      mangled_component_name: ""
      value: 18446744073709551608
    }
    vtable_components {
      kind: RTTI
      mangled_component_name: "_ZN7android4hidl7manager4V1_021BsServiceNotificationE"
      value: 0
    }
    vtable_components {
      kind: CompleteDtorPointer
      mangled_component_name: "_ZN7android4hidl7manager4V1_021BsServiceNotificationD0Ev"
      value: 0
    }
    vtable_components {
      kind: UnusedFunctionPointer
      mangled_component_name: "_ZN7android4hidl7manager4V1_021BsServiceNotificationD0Ev"
      value: 0
    }
    vtable_components {
      kind: VCallOffset
      mangled_component_name: ""
      value: 0
    }
    vtable_components {
      kind: VCallOffset
      mangled_component_name: ""
      value: 0
    }
    vtable_components {
      kind: VCallOffset
      mangled_component_name: ""
      value: 0
    }
    vtable_components {
      kind: VCallOffset
      mangled_component_name: ""
      value: 0
    }
    vtable_components {
      kind: VCallOffset
      mangled_component_name: ""
      value: 18446744073709551496
    }
    vtable_components {
      kind: OffsetToTop
      mangled_component_name: ""
      value: 18446744073709551496
    }
    vtable_components {
      kind: RTTI
      mangled_component_name: "_ZN7android4hidl7manager4V1_021BsServiceNotificationE"
      value: 0
    }
    vtable_components {
      kind: CompleteDtorPointer
      mangled_component_name: "_ZN7android4hidl7manager4V1_021BsServiceNotificationD0Ev"
      value: 0
    }
    vtable_components {
      kind: UnusedFunctionPointer
      mangled_component_name: "_ZN7android4hidl7manager4V1_021BsServiceNotificationD0Ev"
      value: 0
    }
    vtable_components {
      kind: FunctionPointer
      mangled_component_name: "_ZN7android7RefBase10onFirstRefEv"
      value: 0
    }
    vtable_components {
      kind: FunctionPointer
      mangled_component_name: "_ZN7android7RefBase15onLastStrongRefEPKv"
      value: 0
    }
    vtable_components {
      kind: FunctionPointer
      mangled_component_name: "_ZN7android7RefBase20onIncStrongAttemptedEjPKv"
      value: 0
    }
    vtable_components {
      kind: FunctionPointer
      mangled_component_name: "_ZN7android7RefBase13onLastWeakRefEPKv"
      value: 0
    }
  }
}
records {
  basic_abi {
    type_abi {
      name: "android::hidl::base::V1_0::BsBase"
      size: 136
      alignment: 8
    }
    name: "android::hidl::base::V1_0::BsBase"
    access: public_access
    linker_set_key: "_ZN7android4hidl4base4V1_06BsBaseE"
  }
  fields {
    basic_abi {
      type_abi {
        name: "const android::sp<android::hidl::base::V1_0::IBase>"
        size: 8
        alignment: 8
      }
      name: "mImpl"
      access: private_access
    }
  }
  fields {
    basic_abi {
      type_abi {
        name: "android::hardware::details::TaskRunner"
        size: 16
        alignment: 8
      }
      name: "mOnewayQueue"
      access: private_access
    }
  }
  base_specifiers {
    basic_abi {
      type_abi {
        name: "android::hidl::base::V1_0::IBase"
        size: 24
        alignment: 8
      }
      name: ""
      access: public_access
    }
    is_virtual: false
  }
  base_specifiers {
    basic_abi {
      type_abi {
        name: "android::hardware::details::HidlInstrumentor"
        size: 88
        alignment: 8
      }
      name: ""
      access: public_access
    }
    is_virtual: false
  }
  source_file: "out/soong/.intermediates/system/libhidl/transport/base/1.0/android.hidl.base@1.0_genc++_headers/gen/android/hidl/base/1.0/BsBase.h"
  mangled_record_name: "_ZN7android4hidl4base4V1_06BsBaseE"
  vtable_layout {
    vtable_components {
      kind: VBaseOffset
      mangled_component_name: ""
      value: 120
    }
    vtable_components {
      kind: OffsetToTop
      mangled_component_name: ""
      value: 0
    }
    vtable_components {
      kind: RTTI
      mangled_component_name: "_ZN7android4hidl4base4V1_06BsBaseE"
      value: 0
    }
    vtable_components {
      kind: FunctionPointer
      mangled_component_name: "_ZNK7android4hidl4base4V1_05IBase8isRemoteEv"
      value: 0
    }
    vtable_components {
      kind: FunctionPointer
      mangled_component_name: "_ZN7android4hidl4base4V1_06BsBase14interfaceChainENSt3__18functionIFvRKNS_8hardware8hidl_vecINS6_11hidl_stringEEEEEE"
      value: 0
    }
    vtable_components {
      kind: FunctionPointer
      mangled_component_name: "_ZN7android4hidl4base4V1_06BsBase5debugERKNS_8hardware11hidl_handleERKNS4_8hidl_vecINS4_11hidl_stringEEE"
      value: 0
    }
    vtable_components {
      kind: FunctionPointer
      mangled_component_name: "_ZN7android4hidl4base4V1_06BsBase19interfaceDescriptorENSt3__18functionIFvRKNS_8hardware11hidl_stringEEEE"
      value: 0
    }
    vtable_components {
      kind: FunctionPointer
      mangled_component_name: "_ZN7android4hidl4base4V1_06BsBase12getHashChainENSt3__18functionIFvRKNS_8hardware8hidl_vecINS6_10hidl_arrayIhLm32EJEEEEEEEE"
      value: 0
    }
    vtable_components {
      kind: FunctionPointer
      mangled_component_name: "_ZN7android4hidl4base4V1_06BsBase21setHALInstrumentationEv"
      value: 0
    }
    vtable_components {
      kind: FunctionPointer
      mangled_component_name: "_ZN7android4hidl4base4V1_06BsBase11linkToDeathERKNS_2spINS_8hardware20hidl_death_recipientEEEm"
      value: 0
    }
    vtable_components {
      kind: FunctionPointer
      mangled_component_name: "_ZN7android4hidl4base4V1_06BsBase4pingEv"
      value: 0
    }
    vtable_components {
      kind: FunctionPointer
      mangled_component_name: "_ZN7android4hidl4base4V1_06BsBase12getDebugInfoENSt3__18functionIFvRKNS2_9DebugInfoEEEE"
      value: 0
    }
    vtable_components {
      kind: FunctionPointer
      mangled_component_name: "_ZN7android4hidl4base4V1_06BsBase21notifySyspropsChangedEv"
      value: 0
    }
    vtable_components {
      kind: FunctionPointer
      mangled_component_name: "_ZN7android4hidl4base4V1_06BsBase13unlinkToDeathERKNS_2spINS_8hardware20hidl_death_recipientEEE"
      value: 0
    }
    vtable_components {
      kind: CompleteDtorPointer
      mangled_component_name: "_ZN7android4hidl4base4V1_06BsBaseD0Ev"
      value: 0
    }
    vtable_components {
      kind: UnusedFunctionPointer
      mangled_component_name: "_ZN7android4hidl4base4V1_06BsBaseD0Ev"
      value: 0
    }
    vtable_components {
      kind: OffsetToTop
      mangled_component_name: ""
      value: 18446744073709551608
    }
    vtable_components {
      kind: RTTI
      mangled_component_name: "_ZN7android4hidl4base4V1_06BsBaseE"
      value: 0
    }
    vtable_components {
      kind: CompleteDtorPointer
      mangled_component_name: "_ZN7android4hidl4base4V1_06BsBaseD0Ev"
      value: 0
    }
    vtable_components {
      kind: UnusedFunctionPointer
      mangled_component_name: "_ZN7android4hidl4base4V1_06BsBaseD0Ev"
      value: 0
    }
    vtable_components {
      kind: VCallOffset
      mangled_component_name: ""
      value: 0
    }
    vtable_components {
      kind: VCallOffset
      mangled_component_name: ""
      value: 0
    }
    vtable_components {
      kind: VCallOffset
      mangled_component_name: ""
      value: 0
    }
    vtable_components {
      kind: VCallOffset
      mangled_component_name: ""
      value: 0
    }
    vtable_components {
      kind: VCallOffset
      mangled_component_name: ""
      value: 18446744073709551496
    }
    vtable_components {
      kind: OffsetToTop
      mangled_component_name: ""
      value: 18446744073709551496
    }
    vtable_components {
      kind: RTTI
      mangled_component_name: "_ZN7android4hidl4base4V1_06BsBaseE"
      value: 0
    }
    vtable_components {
      kind: CompleteDtorPointer
      mangled_component_name: "_ZN7android4hidl4base4V1_06BsBaseD0Ev"
      value: 0
    }
    vtable_components {
      kind: UnusedFunctionPointer
      mangled_component_name: "_ZN7android4hidl4base4V1_06BsBaseD0Ev"
      value: 0
    }
    vtable_components {
      kind: FunctionPointer
      mangled_component_name: "_ZN7android7RefBase10onFirstRefEv"
      value: 0
    }
    vtable_components {
      kind: FunctionPointer
      mangled_component_name: "_ZN7android7RefBase15onLastStrongRefEPKv"
      value: 0
    }
    vtable_components {
      kind: FunctionPointer
      mangled_component_name: "_ZN7android7RefBase20onIncStrongAttemptedEjPKv"
      value: 0
    }
    vtable_components {
      kind: FunctionPointer
      mangled_component_name: "_ZN7android7RefBase13onLastWeakRefEPKv"
      value: 0
    }
  }
}
functions {
  basic_abi {
    type_abi {
      name: "int"
      size: 4
      alignment: 4
    }
    name: "android::hidl::base::V1_0::operator|"
    access: public_access
    linker_set_key: "_ZN7android4hidl4base4V1_0orENS2_9DebugInfo12ArchitectureES4_"
  }
  mangled_function_name: "_ZN7android4hidl4base4V1_0orENS2_9DebugInfo12ArchitectureES4_"
  source_file: "out/soong/.intermediates/system/libhidl/transport/base/1.0/android.hidl.base@1.0_genc++_headers/gen/android/hidl/base/1.0/types.h"
  parameters {
    basic_abi {
      type_abi {
        name: "const android::hidl::base::V1_0::DebugInfo::Architecture"
        size: 4
        alignment: 4
      }
      name: "lhs"
      access: public_access
      linker_set_key: "false"
    }
    default_arg: false
  }
  parameters {
    basic_abi {
      type_abi {
        name: "const android::hidl::base::V1_0::DebugInfo::Architecture"
        size: 4
        alignment: 4
      }
      name: "rhs"
      access: public_access
      linker_set_key: "false"
    }
    default_arg: false
  }
}
functions {
  basic_abi {
    type_abi {
      name: "int"
      size: 4
      alignment: 4
    }
    name: "android::hidl::base::V1_0::operator|"
    access: public_access
    linker_set_key: "_ZN7android4hidl4base4V1_0orEiNS2_9DebugInfo12ArchitectureE"
  }
  mangled_function_name: "_ZN7android4hidl4base4V1_0orEiNS2_9DebugInfo12ArchitectureE"
  source_file: "out/soong/.intermediates/system/libhidl/transport/base/1.0/android.hidl.base@1.0_genc++_headers/gen/android/hidl/base/1.0/types.h"
  parameters {
    basic_abi {
      type_abi {
        name: "const int"
        size: 4
        alignment: 4
      }
      name: "lhs"
      access: public_access
      linker_set_key: "false"
    }
    default_arg: false
  }
  parameters {
    basic_abi {
      type_abi {
        name: "const android::hidl::base::V1_0::DebugInfo::Architecture"
        size: 4
        alignment: 4
      }
      name: "rhs"
      access: public_access
      linker_set_key: "false"
    }
    default_arg: false
  }
}
functions {
  basic_abi {
    type_abi {
      name: "int"
      size: 4
      alignment: 4
    }
    name: "android::hidl::base::V1_0::operator|"
    access: public_access
    linker_set_key: "_ZN7android4hidl4base4V1_0orENS2_9DebugInfo12ArchitectureEi"
  }
  mangled_function_name: "_ZN7android4hidl4base4V1_0orENS2_9DebugInfo12ArchitectureEi"
  source_file: "out/soong/.intermediates/system/libhidl/transport/base/1.0/android.hidl.base@1.0_genc++_headers/gen/android/hidl/base/1.0/types.h"
  parameters {
    basic_abi {
      type_abi {
        name: "const android::hidl::base::V1_0::DebugInfo::Architecture"
        size: 4
        alignment: 4
      }
      name: "lhs"
      access: public_access
      linker_set_key: "false"
    }
    default_arg: false
  }
  parameters {
    basic_abi {
      type_abi {
        name: "const int"
        size: 4
        alignment: 4
      }
      name: "rhs"
      access: public_access
      linker_set_key: "false"
    }
    default_arg: false
  }
}
functions {
  basic_abi {
    type_abi {
      name: "int"
      size: 4
      alignment: 4
    }
    name: "android::hidl::base::V1_0::operator&"
    access: public_access
    linker_set_key: "_ZN7android4hidl4base4V1_0anENS2_9DebugInfo12ArchitectureES4_"
  }
  mangled_function_name: "_ZN7android4hidl4base4V1_0anENS2_9DebugInfo12ArchitectureES4_"
  source_file: "out/soong/.intermediates/system/libhidl/transport/base/1.0/android.hidl.base@1.0_genc++_headers/gen/android/hidl/base/1.0/types.h"
  parameters {
    basic_abi {
      type_abi {
        name: "const android::hidl::base::V1_0::DebugInfo::Architecture"
        size: 4
        alignment: 4
      }
      name: "lhs"
      access: public_access
      linker_set_key: "false"
    }
    default_arg: false
  }
  parameters {
    basic_abi {
      type_abi {
        name: "const android::hidl::base::V1_0::DebugInfo::Architecture"
        size: 4
        alignment: 4
      }
      name: "rhs"
      access: public_access
      linker_set_key: "false"
    }
    default_arg: false
  }
}
functions {
  basic_abi {
    type_abi {
      name: "int"
      size: 4
      alignment: 4
    }
    name: "android::hidl::base::V1_0::operator&"
    access: public_access
    linker_set_key: "_ZN7android4hidl4base4V1_0anEiNS2_9DebugInfo12ArchitectureE"
  }
  mangled_function_name: "_ZN7android4hidl4base4V1_0anEiNS2_9DebugInfo12ArchitectureE"
  source_file: "out/soong/.intermediates/system/libhidl/transport/base/1.0/android.hidl.base@1.0_genc++_headers/gen/android/hidl/base/1.0/types.h"
  parameters {
    basic_abi {
      type_abi {
        name: "const int"
        size: 4
        alignment: 4
      }
      name: "lhs"
      access: public_access
      linker_set_key: "false"
    }
    default_arg: false
  }
  parameters {
    basic_abi {
      type_abi {
        name: "const android::hidl::base::V1_0::DebugInfo::Architecture"
        size: 4
        alignment: 4
      }
      name: "rhs"
      access: public_access
      linker_set_key: "false"
    }
    default_arg: false
  }
}
functions {
  basic_abi {
    type_abi {
      name: "int"
      size: 4
      alignment: 4
    }
    name: "android::hidl::base::V1_0::operator&"
    access: public_access
    linker_set_key: "_ZN7android4hidl4base4V1_0anENS2_9DebugInfo12ArchitectureEi"
  }
  mangled_function_name: "_ZN7android4hidl4base4V1_0anENS2_9DebugInfo12ArchitectureEi"
  source_file: "out/soong/.intermediates/system/libhidl/transport/base/1.0/android.hidl.base@1.0_genc++_headers/gen/android/hidl/base/1.0/types.h"
  parameters {
    basic_abi {
      type_abi {
        name: "const android::hidl::base::V1_0::DebugInfo::Architecture"
        size: 4
        alignment: 4
      }
      name: "lhs"
      access: public_access
      linker_set_key: "false"
    }
    default_arg: false
  }
  parameters {
    basic_abi {
      type_abi {
        name: "const int"
        size: 4
        alignment: 4
      }
      name: "rhs"
      access: public_access
      linker_set_key: "false"
    }
    default_arg: false
  }
}
functions {
  basic_abi {
    type_abi {
      name: "int &"
      size: 8
      alignment: 8
    }
    name: "android::hidl::base::V1_0::operator|="
    access: public_access
    linker_set_key: "_ZN7android4hidl4base4V1_0oRERiNS2_9DebugInfo12ArchitectureE"
  }
  mangled_function_name: "_ZN7android4hidl4base4V1_0oRERiNS2_9DebugInfo12ArchitectureE"
  source_file: "out/soong/.intermediates/system/libhidl/transport/base/1.0/android.hidl.base@1.0_genc++_headers/gen/android/hidl/base/1.0/types.h"
  parameters {
    basic_abi {
      type_abi {
        name: "int &"
        size: 8
        alignment: 8
      }
      name: "v"
      access: public_access
      linker_set_key: "false"
    }
    default_arg: false
  }
  parameters {
    basic_abi {
      type_abi {
        name: "const android::hidl::base::V1_0::DebugInfo::Architecture"
        size: 4
        alignment: 4
      }
      name: "e"
      access: public_access
      linker_set_key: "false"
    }
    default_arg: false
  }
}
functions {
  basic_abi {
    type_abi {
      name: "int &"
      size: 8
      alignment: 8
    }
    name: "android::hidl::base::V1_0::operator&="
    access: public_access
    linker_set_key: "_ZN7android4hidl4base4V1_0aNERiNS2_9DebugInfo12ArchitectureE"
  }
  mangled_function_name: "_ZN7android4hidl4base4V1_0aNERiNS2_9DebugInfo12ArchitectureE"
  source_file: "out/soong/.intermediates/system/libhidl/transport/base/1.0/android.hidl.base@1.0_genc++_headers/gen/android/hidl/base/1.0/types.h"
  parameters {
    basic_abi {
      type_abi {
        name: "int &"
        size: 8
        alignment: 8
      }
      name: "v"
      access: public_access
      linker_set_key: "false"
    }
    default_arg: false
  }
  parameters {
    basic_abi {
      type_abi {
        name: "const android::hidl::base::V1_0::DebugInfo::Architecture"
        size: 4
        alignment: 4
      }
      name: "e"
      access: public_access
      linker_set_key: "false"
    }
    default_arg: false
  }
}
functions {
  basic_abi {
    type_abi {
      name: "std::basic_string<char, std::char_traits<char>, std::allocator<char> >"
      size: 24
      alignment: 8
    }
    name: "android::hidl::base::V1_0::toString"
    access: public_access
    linker_set_key: "_ZN7android4hidl4base4V1_08toStringEi"
  }
  mangled_function_name: "_ZN7android4hidl4base4V1_08toStringEi"
  source_file: "out/soong/.intermediates/system/libhidl/transport/base/1.0/android.hidl.base@1.0_genc++_headers/gen/android/hidl/base/1.0/types.h"
  parameters {
    basic_abi {
      type_abi {
        name: "int"
        size: 4
        alignment: 4
      }
      name: "o"
      access: public_access
      linker_set_key: "false"
    }
    default_arg: false
  }
  template_info {
    elements {
      basic_abi {
        name: ""
        linker_set_key: ""
      }
    }
  }
}
functions {
  basic_abi {
    type_abi {
      name: "std::basic_string<char, std::char_traits<char>, std::allocator<char> >"
      size: 24
      alignment: 8
    }
    name: "android::hidl::base::V1_0::toString"
    access: public_access
    linker_set_key: "_ZN7android4hidl4base4V1_08toStringINS2_9DebugInfo12ArchitectureEEENSt3__112basic_stringIcNS6_11char_traitsIcEENS6_9allocatorIcEEEEi"
  }
  mangled_function_name: "_ZN7android4hidl4base4V1_08toStringINS2_9DebugInfo12ArchitectureEEENSt3__112basic_stringIcNS6_11char_traitsIcEENS6_9allocatorIcEEEEi"
  source_file: "out/soong/.intermediates/system/libhidl/transport/base/1.0/android.hidl.base@1.0_genc++_headers/gen/android/hidl/base/1.0/types.h"
  parameters {
    basic_abi {
      type_abi {
        name: "int"
        size: 4
        alignment: 4
      }
      name: "o"
      access: public_access
      linker_set_key: "false"
    }
    default_arg: false
  }
  template_info {
    elements {
      basic_abi {
        type_abi {
          name: "android::hidl::base::V1_0::DebugInfo::Architecture"
          size: 4
          alignment: 4
        }
        linker_set_key: "android::hidl::base::V1_0::DebugInfo::Architecture"
      }
    }
  }
}
functions {
  basic_abi {
    type_abi {
      name: "std::basic_string<char, std::char_traits<char>, std::allocator<char> >"
      size: 24
      alignment: 8
    }
    name: "android::hidl::base::V1_0::toString"
    access: public_access
    linker_set_key: "_ZN7android4hidl4base4V1_08toStringENS2_9DebugInfo12ArchitectureE"
  }
  mangled_function_name: "_ZN7android4hidl4base4V1_08toStringENS2_9DebugInfo12ArchitectureE"
  source_file: "out/soong/.intermediates/system/libhidl/transport/base/1.0/android.hidl.base@1.0_genc++_headers/gen/android/hidl/base/1.0/types.h"
  parameters {
    basic_abi {
      type_abi {
        name: "android::hidl::base::V1_0::DebugInfo::Architecture"
        size: 4
        alignment: 4
      }
      name: "o"
      access: public_access
      linker_set_key: "false"
    }
    default_arg: false
  }
}
functions {
  basic_abi {
    type_abi {
      name: "std::basic_string<char, std::char_traits<char>, std::allocator<char> >"
      size: 24
      alignment: 8
    }
    name: "android::hidl::base::V1_0::toString"
    access: public_access
    linker_set_key: "_ZN7android4hidl4base4V1_08toStringERKNS2_9DebugInfoE"
  }
  mangled_function_name: "_ZN7android4hidl4base4V1_08toStringERKNS2_9DebugInfoE"
  source_file: "out/soong/.intermediates/system/libhidl/transport/base/1.0/android.hidl.base@1.0_genc++_headers/gen/android/hidl/base/1.0/types.h"
  parameters {
    basic_abi {
      type_abi {
        name: "const android::hidl::base::V1_0::DebugInfo &"
        size: 8
        alignment: 8
      }
      name: ""
      access: public_access
      linker_set_key: "false"
    }
    default_arg: false
  }
}
functions {
  basic_abi {
    type_abi {
      name: "bool"
      size: 1
      alignment: 1
    }
    name: "android::hidl::base::V1_0::operator=="
    access: public_access
    linker_set_key: "_ZN7android4hidl4base4V1_0eqERKNS2_9DebugInfoES5_"
  }
  mangled_function_name: "_ZN7android4hidl4base4V1_0eqERKNS2_9DebugInfoES5_"
  source_file: "out/soong/.intermediates/system/libhidl/transport/base/1.0/android.hidl.base@1.0_genc++_headers/gen/android/hidl/base/1.0/types.h"
  parameters {
    basic_abi {
      type_abi {
        name: "const android::hidl::base::V1_0::DebugInfo &"
        size: 8
        alignment: 8
      }
      name: ""
      access: public_access
      linker_set_key: "false"
    }
    default_arg: false
  }
  parameters {
    basic_abi {
      type_abi {
        name: "const android::hidl::base::V1_0::DebugInfo &"
        size: 8
        alignment: 8
      }
      name: ""
      access: public_access
      linker_set_key: "false"
    }
    default_arg: false
  }
}
functions {
  basic_abi {
    type_abi {
      name: "bool"
      size: 1
      alignment: 1
    }
    name: "android::hidl::base::V1_0::operator!="
    access: public_access
    linker_set_key: "_ZN7android4hidl4base4V1_0neERKNS2_9DebugInfoES5_"
  }
  mangled_function_name: "_ZN7android4hidl4base4V1_0neERKNS2_9DebugInfoES5_"
  source_file: "out/soong/.intermediates/system/libhidl/transport/base/1.0/android.hidl.base@1.0_genc++_headers/gen/android/hidl/base/1.0/types.h"
  parameters {
    basic_abi {
      type_abi {
        name: "const android::hidl::base::V1_0::DebugInfo &"
        size: 8
        alignment: 8
      }
      name: ""
      access: public_access
      linker_set_key: "false"
    }
    default_arg: false
  }
  parameters {
    basic_abi {
      type_abi {
        name: "const android::hidl::base::V1_0::DebugInfo &"
        size: 8
        alignment: 8
      }
      name: ""
      access: public_access
      linker_set_key: "false"
    }
    default_arg: false
  }
}
functions {
  basic_abi {
    type_abi {
      name: "bool"
      size: 1
      alignment: 1
    }
    name: "android::hidl::base::V1_0::IBase::isRemote"
    access: public_access
    linker_set_key: "_ZNK7android4hidl4base4V1_05IBase8isRemoteEv"
  }
  mangled_function_name: "_ZNK7android4hidl4base4V1_05IBase8isRemoteEv"
  source_file: "out/soong/.intermediates/system/libhidl/transport/base/1.0/android.hidl.base@1.0_genc++_headers/gen/android/hidl/base/1.0/IBase.h"
}
functions {
  basic_abi {
    type_abi {
      name: "android::hardware::Return<void>"
      size: 40
      alignment: 8
    }
    name: "android::hidl::base::V1_0::IBase::interfaceChain"
    access: public_access
    linker_set_key: "_ZN7android4hidl4base4V1_05IBase14interfaceChainENSt3__18functionIFvRKNS_8hardware8hidl_vecINS6_11hidl_stringEEEEEE"
  }
  mangled_function_name: "_ZN7android4hidl4base4V1_05IBase14interfaceChainENSt3__18functionIFvRKNS_8hardware8hidl_vecINS6_11hidl_stringEEEEEE"
  source_file: "out/soong/.intermediates/system/libhidl/transport/base/1.0/android.hidl.base@1.0_genc++_headers/gen/android/hidl/base/1.0/IBase.h"
  parameters {
    basic_abi {
      type_abi {
        name: "std::function<void (const hidl_vec<hidl_string> &)>"
        size: 48
        alignment: 16
      }
      name: "_hidl_cb"
      access: public_access
      linker_set_key: "false"
    }
    default_arg: false
  }
}
functions {
  basic_abi {
    type_abi {
      name: "android::hardware::Return<void>"
      size: 40
      alignment: 8
    }
    name: "android::hidl::base::V1_0::IBase::debug"
    access: public_access
    linker_set_key: "_ZN7android4hidl4base4V1_05IBase5debugERKNS_8hardware11hidl_handleERKNS4_8hidl_vecINS4_11hidl_stringEEE"
  }
  mangled_function_name: "_ZN7android4hidl4base4V1_05IBase5debugERKNS_8hardware11hidl_handleERKNS4_8hidl_vecINS4_11hidl_stringEEE"
  source_file: "out/soong/.intermediates/system/libhidl/transport/base/1.0/android.hidl.base@1.0_genc++_headers/gen/android/hidl/base/1.0/IBase.h"
  parameters {
    basic_abi {
      type_abi {
        name: "const android::hardware::hidl_handle &"
        size: 8
        alignment: 8
      }
      name: "fd"
      access: public_access
      linker_set_key: "false"
    }
    default_arg: false
  }
  parameters {
    basic_abi {
      type_abi {
        name: "const android::hardware::hidl_vec<android::hardware::hidl_string> &"
        size: 8
        alignment: 8
      }
      name: "options"
      access: public_access
      linker_set_key: "false"
    }
    default_arg: false
  }
}
functions {
  basic_abi {
    type_abi {
      name: "android::hardware::Return<void>"
      size: 40
      alignment: 8
    }
    name: "android::hidl::base::V1_0::IBase::interfaceDescriptor"
    access: public_access
    linker_set_key: "_ZN7android4hidl4base4V1_05IBase19interfaceDescriptorENSt3__18functionIFvRKNS_8hardware11hidl_stringEEEE"
  }
  mangled_function_name: "_ZN7android4hidl4base4V1_05IBase19interfaceDescriptorENSt3__18functionIFvRKNS_8hardware11hidl_stringEEEE"
  source_file: "out/soong/.intermediates/system/libhidl/transport/base/1.0/android.hidl.base@1.0_genc++_headers/gen/android/hidl/base/1.0/IBase.h"
  parameters {
    basic_abi {
      type_abi {
        name: "std::function<void (const hidl_string &)>"
        size: 48
        alignment: 16
      }
      name: "_hidl_cb"
      access: public_access
      linker_set_key: "false"
    }
    default_arg: false
  }
}
functions {
  basic_abi {
    type_abi {
      name: "android::hardware::Return<void>"
      size: 40
      alignment: 8
    }
    name: "android::hidl::base::V1_0::IBase::getHashChain"
    access: public_access
    linker_set_key: "_ZN7android4hidl4base4V1_05IBase12getHashChainENSt3__18functionIFvRKNS_8hardware8hidl_vecINS6_10hidl_arrayIhLm32EJEEEEEEEE"
  }
  mangled_function_name: "_ZN7android4hidl4base4V1_05IBase12getHashChainENSt3__18functionIFvRKNS_8hardware8hidl_vecINS6_10hidl_arrayIhLm32EJEEEEEEEE"
  source_file: "out/soong/.intermediates/system/libhidl/transport/base/1.0/android.hidl.base@1.0_genc++_headers/gen/android/hidl/base/1.0/IBase.h"
  parameters {
    basic_abi {
      type_abi {
        name: "std::function<void (const hidl_vec<hidl_array<unsigned char, 32> > &)>"
      }
      name: "_hidl_cb"
      access: public_access
      linker_set_key: "false"
    }
    default_arg: false
  }
}
functions {
  basic_abi {
    type_abi {
      name: "android::hardware::Return<void>"
      size: 40
      alignment: 8
    }
    name: "android::hidl::base::V1_0::IBase::setHALInstrumentation"
    access: public_access
    linker_set_key: "_ZN7android4hidl4base4V1_05IBase21setHALInstrumentationEv"
  }
  mangled_function_name: "_ZN7android4hidl4base4V1_05IBase21setHALInstrumentationEv"
  source_file: "out/soong/.intermediates/system/libhidl/transport/base/1.0/android.hidl.base@1.0_genc++_headers/gen/android/hidl/base/1.0/IBase.h"
}
functions {
  basic_abi {
    type_abi {
      name: "android::hardware::Return<bool>"
      size: 40
      alignment: 8
    }
    name: "android::hidl::base::V1_0::IBase::linkToDeath"
    access: public_access
    linker_set_key: "_ZN7android4hidl4base4V1_05IBase11linkToDeathERKNS_2spINS_8hardware20hidl_death_recipientEEEm"
  }
  mangled_function_name: "_ZN7android4hidl4base4V1_05IBase11linkToDeathERKNS_2spINS_8hardware20hidl_death_recipientEEEm"
  source_file: "out/soong/.intermediates/system/libhidl/transport/base/1.0/android.hidl.base@1.0_genc++_headers/gen/android/hidl/base/1.0/IBase.h"
  parameters {
    basic_abi {
      type_abi {
        name: "const android::sp<android::hardware::hidl_death_recipient> &"
        size: 8
        alignment: 8
      }
      name: "recipient"
      access: public_access
      linker_set_key: "false"
    }
    default_arg: false
  }
  parameters {
    basic_abi {
      type_abi {
        name: "unsigned long"
        size: 8
        alignment: 8
      }
      name: "cookie"
      access: public_access
      linker_set_key: "false"
    }
    default_arg: false
  }
}
functions {
  basic_abi {
    type_abi {
      name: "android::hardware::Return<void>"
      size: 40
      alignment: 8
    }
    name: "android::hidl::base::V1_0::IBase::ping"
    access: public_access
    linker_set_key: "_ZN7android4hidl4base4V1_05IBase4pingEv"
  }
  mangled_function_name: "_ZN7android4hidl4base4V1_05IBase4pingEv"
  source_file: "out/soong/.intermediates/system/libhidl/transport/base/1.0/android.hidl.base@1.0_genc++_headers/gen/android/hidl/base/1.0/IBase.h"
}
functions {
  basic_abi {
    type_abi {
      name: "android::hardware::Return<void>"
      size: 40
      alignment: 8
    }
    name: "android::hidl::base::V1_0::IBase::getDebugInfo"
    access: public_access
    linker_set_key: "_ZN7android4hidl4base4V1_05IBase12getDebugInfoENSt3__18functionIFvRKNS2_9DebugInfoEEEE"
  }
  mangled_function_name: "_ZN7android4hidl4base4V1_05IBase12getDebugInfoENSt3__18functionIFvRKNS2_9DebugInfoEEEE"
  source_file: "out/soong/.intermediates/system/libhidl/transport/base/1.0/android.hidl.base@1.0_genc++_headers/gen/android/hidl/base/1.0/IBase.h"
  parameters {
    basic_abi {
      type_abi {
        name: "std::function<void (const DebugInfo &)>"
      }
      name: "_hidl_cb"
      access: public_access
      linker_set_key: "false"
    }
    default_arg: false
  }
}
functions {
  basic_abi {
    type_abi {
      name: "android::hardware::Return<void>"
      size: 40
      alignment: 8
    }
    name: "android::hidl::base::V1_0::IBase::notifySyspropsChanged"
    access: public_access
    linker_set_key: "_ZN7android4hidl4base4V1_05IBase21notifySyspropsChangedEv"
  }
  mangled_function_name: "_ZN7android4hidl4base4V1_05IBase21notifySyspropsChangedEv"
  source_file: "out/soong/.intermediates/system/libhidl/transport/base/1.0/android.hidl.base@1.0_genc++_headers/gen/android/hidl/base/1.0/IBase.h"
}
functions {
  basic_abi {
    type_abi {
      name: "android::hardware::Return<bool>"
      size: 40
      alignment: 8
    }
    name: "android::hidl::base::V1_0::IBase::unlinkToDeath"
    access: public_access
    linker_set_key: "_ZN7android4hidl4base4V1_05IBase13unlinkToDeathERKNS_2spINS_8hardware20hidl_death_recipientEEE"
  }
  mangled_function_name: "_ZN7android4hidl4base4V1_05IBase13unlinkToDeathERKNS_2spINS_8hardware20hidl_death_recipientEEE"
  source_file: "out/soong/.intermediates/system/libhidl/transport/base/1.0/android.hidl.base@1.0_genc++_headers/gen/android/hidl/base/1.0/IBase.h"
  parameters {
    basic_abi {
      type_abi {
        name: "const android::sp<android::hardware::hidl_death_recipient> &"
        size: 8
        alignment: 8
      }
      name: "recipient"
      access: public_access
      linker_set_key: "false"
    }
    default_arg: false
  }
}
functions {
  basic_abi {
    type_abi {
      name: "android::hardware::Return<android::sp<android::hidl::base::V1_0::IBase> >"
    }
    name: "android::hidl::base::V1_0::IBase::castFrom"
    access: public_access
    linker_set_key: "_ZN7android4hidl4base4V1_05IBase8castFromERKNS_2spIS3_EEb"
  }
  mangled_function_name: "_ZN7android4hidl4base4V1_05IBase8castFromERKNS_2spIS3_EEb"
  source_file: "out/soong/.intermediates/system/libhidl/transport/base/1.0/android.hidl.base@1.0_genc++_headers/gen/android/hidl/base/1.0/IBase.h"
  parameters {
    basic_abi {
      type_abi {
        name: "const android::sp<android::hidl::base::V1_0::IBase> &"
        size: 8
        alignment: 8
      }
      name: "parent"
      access: public_access
      linker_set_key: "false"
    }
    default_arg: false
  }
  parameters {
    basic_abi {
      type_abi {
        name: "bool"
        size: 1
        alignment: 1
      }
      name: "emitError"
      access: public_access
      linker_set_key: "true"
    }
    default_arg: true
  }
}
functions {
  basic_abi {
    type_abi {
      name: "std::basic_string<char, std::char_traits<char>, std::allocator<char> >"
      size: 24
      alignment: 8
    }
    name: "android::hidl::base::V1_0::toString"
    access: public_access
    linker_set_key: "_ZN7android4hidl4base4V1_08toStringERKNS_2spINS2_5IBaseEEE"
  }
  mangled_function_name: "_ZN7android4hidl4base4V1_08toStringERKNS_2spINS2_5IBaseEEE"
  source_file: "out/soong/.intermediates/system/libhidl/transport/base/1.0/android.hidl.base@1.0_genc++_headers/gen/android/hidl/base/1.0/IBase.h"
  parameters {
    basic_abi {
      type_abi {
        name: "const android::sp<android::hidl::base::V1_0::IBase> &"
        size: 8
        alignment: 8
      }
      name: ""
      access: public_access
      linker_set_key: "false"
    }
    default_arg: false
  }
}
functions {
  basic_abi {
    type_abi {
      name: "void"
    }
    name: "android::hidl::base::V1_0::BnHwBase::BnHwBase"
    access: public_access
    linker_set_key: "_ZN7android4hidl4base4V1_08BnHwBaseC1ERKNS_2spINS2_5IBaseEEE"
  }
  mangled_function_name: "_ZN7android4hidl4base4V1_08BnHwBaseC1ERKNS_2spINS2_5IBaseEEE"
  source_file: "out/soong/.intermediates/system/libhidl/transport/base/1.0/android.hidl.base@1.0_genc++_headers/gen/android/hidl/base/1.0/BnHwBase.h"
  parameters {
    basic_abi {
      type_abi {
        name: "const android::sp<android::hidl::base::V1_0::IBase> &"
        size: 8
        alignment: 8
      }
      name: "_hidl_impl"
      access: public_access
      linker_set_key: "false"
    }
    default_arg: false
  }
}
functions {
  basic_abi {
    type_abi {
      name: "void"
    }
    name: "android::hidl::base::V1_0::BnHwBase::BnHwBase"
    access: public_access
    linker_set_key: "_ZN7android4hidl4base4V1_08BnHwBaseC1ERKNS_2spINS2_5IBaseEEERKNSt3__112basic_stringIcNS9_11char_traitsIcEENS9_9allocatorIcEEEESH_"
  }
  mangled_function_name: "_ZN7android4hidl4base4V1_08BnHwBaseC1ERKNS_2spINS2_5IBaseEEERKNSt3__112basic_stringIcNS9_11char_traitsIcEENS9_9allocatorIcEEEESH_"
  source_file: "out/soong/.intermediates/system/libhidl/transport/base/1.0/android.hidl.base@1.0_genc++_headers/gen/android/hidl/base/1.0/BnHwBase.h"
  parameters {
    basic_abi {
      type_abi {
        name: "const android::sp<android::hidl::base::V1_0::IBase> &"
        size: 8
        alignment: 8
      }
      name: "_hidl_impl"
      access: public_access
      linker_set_key: "false"
    }
    default_arg: false
  }
  parameters {
    basic_abi {
      type_abi {
        name: "const std::basic_string<char, std::char_traits<char>, std::allocator<char> > &"
        size: 8
        alignment: 8
      }
      name: "HidlInstrumentor_package"
      access: public_access
      linker_set_key: "false"
    }
    default_arg: false
  }
  parameters {
    basic_abi {
      type_abi {
        name: "const std::basic_string<char, std::char_traits<char>, std::allocator<char> > &"
        size: 8
        alignment: 8
      }
      name: "HidlInstrumentor_interface"
      access: public_access
      linker_set_key: "false"
    }
    default_arg: false
  }
}
functions {
  basic_abi {
    type_abi {
      name: "int"
      size: 4
      alignment: 4
    }
    name: "android::hidl::base::V1_0::BnHwBase::onTransact"
    access: public_access
    linker_set_key: "_ZN7android4hidl4base4V1_08BnHwBase10onTransactEjRKNS_8hardware6ParcelEPS5_jNSt3__18functionIFvRS5_EEE"
  }
  mangled_function_name: "_ZN7android4hidl4base4V1_08BnHwBase10onTransactEjRKNS_8hardware6ParcelEPS5_jNSt3__18functionIFvRS5_EEE"
  source_file: "out/soong/.intermediates/system/libhidl/transport/base/1.0/android.hidl.base@1.0_genc++_headers/gen/android/hidl/base/1.0/BnHwBase.h"
  parameters {
    basic_abi {
      type_abi {
        name: "unsigned int"
        size: 4
        alignment: 4
      }
      name: "_hidl_code"
      access: public_access
      linker_set_key: "false"
    }
    default_arg: false
  }
  parameters {
    basic_abi {
      type_abi {
        name: "const android::hardware::Parcel &"
        size: 8
        alignment: 8
      }
      name: "_hidl_data"
      access: public_access
      linker_set_key: "false"
    }
    default_arg: false
  }
  parameters {
    basic_abi {
      type_abi {
        name: "android::hardware::Parcel *"
        size: 8
        alignment: 8
      }
      name: "_hidl_reply"
      access: public_access
      linker_set_key: "false"
    }
    default_arg: false
  }
  parameters {
    basic_abi {
      type_abi {
        name: "unsigned int"
        size: 4
        alignment: 4
      }
      name: "_hidl_flags"
      access: public_access
      linker_set_key: "true"
    }
    default_arg: true
  }
  parameters {
    basic_abi {
      type_abi {
        name: "std::function<void (Parcel &)>"
        size: 48
        alignment: 16
      }
      name: "_hidl_cb"
      access: public_access
      linker_set_key: "true"
    }
    default_arg: true
  }
}
functions {
  basic_abi {
    type_abi {
      name: "android::sp<android::hidl::base::V1_0::IBase>"
      size: 8
      alignment: 8
    }
    name: "android::hidl::base::V1_0::BnHwBase::getImpl"
    access: public_access
    linker_set_key: "_ZN7android4hidl4base4V1_08BnHwBase7getImplEv"
  }
  mangled_function_name: "_ZN7android4hidl4base4V1_08BnHwBase7getImplEv"
  source_file: "out/soong/.intermediates/system/libhidl/transport/base/1.0/android.hidl.base@1.0_genc++_headers/gen/android/hidl/base/1.0/BnHwBase.h"
}
functions {
  basic_abi {
    type_abi {
      name: "android::hardware::Return<void>"
      size: 40
      alignment: 8
    }
    name: "android::hidl::base::V1_0::BnHwBase::ping"
    access: private_access
    linker_set_key: "_ZN7android4hidl4base4V1_08BnHwBase4pingEv"
  }
  mangled_function_name: "_ZN7android4hidl4base4V1_08BnHwBase4pingEv"
  source_file: "out/soong/.intermediates/system/libhidl/transport/base/1.0/android.hidl.base@1.0_genc++_headers/gen/android/hidl/base/1.0/BnHwBase.h"
}
functions {
  basic_abi {
    type_abi {
      name: "android::hardware::Return<void>"
      size: 40
      alignment: 8
    }
    name: "android::hidl::base::V1_0::BnHwBase::getDebugInfo"
    access: private_access
    linker_set_key: "_ZN7android4hidl4base4V1_08BnHwBase12getDebugInfoENSt3__18functionIFvRKNS2_9DebugInfoEEEE"
  }
  mangled_function_name: "_ZN7android4hidl4base4V1_08BnHwBase12getDebugInfoENSt3__18functionIFvRKNS2_9DebugInfoEEEE"
  source_file: "out/soong/.intermediates/system/libhidl/transport/base/1.0/android.hidl.base@1.0_genc++_headers/gen/android/hidl/base/1.0/BnHwBase.h"
  parameters {
    basic_abi {
      type_abi {
        name: "std::function<void (const DebugInfo &)>"
      }
      name: "_hidl_cb"
      access: public_access
      linker_set_key: "false"
    }
    default_arg: false
  }
}
functions {
  basic_abi {
    type_abi {
      name: "android::hardware::Return<bool>"
      size: 40
      alignment: 8
    }
    name: "android::hardware::details::canCastInterface"
    access: public_access
    linker_set_key: "_ZN7android8hardware7details16canCastInterfaceEPNS_4hidl4base4V1_05IBaseEPKcb"
  }
  mangled_function_name: "_ZN7android8hardware7details16canCastInterfaceEPNS_4hidl4base4V1_05IBaseEPKcb"
  source_file: "system/libhidl/transport/include/hidl/HidlTransportUtils.h"
  parameters {
    basic_abi {
      type_abi {
        name: "android::hidl::base::V1_0::IBase *"
        size: 8
        alignment: 8
      }
      name: "interface"
      access: public_access
      linker_set_key: "false"
    }
    default_arg: false
  }
  parameters {
    basic_abi {
      type_abi {
        name: "const char *"
        size: 8
        alignment: 8
      }
      name: "castTo"
      access: public_access
      linker_set_key: "false"
    }
    default_arg: false
  }
  parameters {
    basic_abi {
      type_abi {
        name: "bool"
        size: 1
        alignment: 1
      }
      name: "emitError"
      access: public_access
      linker_set_key: "true"
    }
    default_arg: true
  }
}
functions {
  basic_abi {
    type_abi {
      name: "std::basic_string<char, std::char_traits<char>, std::allocator<char> >"
      size: 24
      alignment: 8
    }
    name: "android::hardware::details::getDescriptor"
    access: public_access
    linker_set_key: "_ZN7android8hardware7details13getDescriptorEPNS_4hidl4base4V1_05IBaseE"
  }
  mangled_function_name: "_ZN7android8hardware7details13getDescriptorEPNS_4hidl4base4V1_05IBaseE"
  source_file: "system/libhidl/transport/include/hidl/HidlTransportUtils.h"
  parameters {
    basic_abi {
      type_abi {
        name: "android::hidl::base::V1_0::IBase *"
        size: 8
        alignment: 8
      }
      name: "interface"
      access: public_access
      linker_set_key: "false"
    }
    default_arg: false
  }
}
functions {
  basic_abi {
    type_abi {
      name: "void"
    }
    name: "android::hardware::ConcurrentMap::set"
    access: public_access
    linker_set_key: "_ZN7android8hardware13ConcurrentMap3setEOT_OT0_"
  }
  mangled_function_name: "_ZN7android8hardware13ConcurrentMap3setEOT_OT0_"
  source_file: "system/libhidl/transport/include/hidl/ConcurrentMap.h"
  parameters {
    basic_abi {
      type_abi {
        name: "type-parameter-0-0 &&"
      }
      name: "k"
      access: public_access
      linker_set_key: "false"
    }
    default_arg: false
  }
  parameters {
    basic_abi {
      type_abi {
        name: "type-parameter-0-1 &&"
      }
      name: "v"
      access: public_access
      linker_set_key: "false"
    }
    default_arg: false
  }
}
functions {
  basic_abi {
    type_abi {
      name: "const type-parameter-0-1 &"
    }
    name: "android::hardware::ConcurrentMap::get"
    access: public_access
    linker_set_key: "_ZNK7android8hardware13ConcurrentMap3getERKT_RKT0_"
  }
  mangled_function_name: "_ZNK7android8hardware13ConcurrentMap3getERKT_RKT0_"
  source_file: "system/libhidl/transport/include/hidl/ConcurrentMap.h"
  parameters {
    basic_abi {
      type_abi {
        name: "const type-parameter-0-0 &"
      }
      name: "k"
      access: public_access
      linker_set_key: "false"
    }
    default_arg: false
  }
  parameters {
    basic_abi {
      type_abi {
        name: "const type-parameter-0-1 &"
      }
      name: "def"
      access: public_access
      linker_set_key: "false"
    }
    default_arg: false
  }
}
functions {
  basic_abi {
    type_abi {
      name: "typename map<type-parameter-0-0, type-parameter-0-1, less<type-parameter-0-0>, allocator<pair<const type-parameter-0-0, type-parameter-0-1> > >::size_type"
    }
    name: "android::hardware::ConcurrentMap::erase"
    access: public_access
    linker_set_key: "_ZN7android8hardware13ConcurrentMap5eraseERKT_"
  }
  mangled_function_name: "_ZN7android8hardware13ConcurrentMap5eraseERKT_"
  source_file: "system/libhidl/transport/include/hidl/ConcurrentMap.h"
  parameters {
    basic_abi {
      type_abi {
        name: "const type-parameter-0-0 &"
      }
      name: "k"
      access: public_access
      linker_set_key: "false"
    }
    default_arg: false
  }
}
functions {
  basic_abi {
    type_abi {
      name: "void"
    }
    name: "android::hardware::ConcurrentMap<std::__1::basic_string<char, std::__1::char_traits<char>, std::__1::allocator<char> >, std::__1::function<android::sp<android::hardware::IBinder> (void *)> >::set"
    access: public_access
    linker_set_key: "_ZN7android8hardware13ConcurrentMapINSt3__112basic_stringIcNS2_11char_traitsIcEENS2_9allocatorIcEEEENS2_8functionIFNS_2spINS0_7IBinderEEEPvEEEE3setEOS8_OSF_"
  }
  mangled_function_name: "_ZN7android8hardware13ConcurrentMapINSt3__112basic_stringIcNS2_11char_traitsIcEENS2_9allocatorIcEEEENS2_8functionIFNS_2spINS0_7IBinderEEEPvEEEE3setEOS8_OSF_"
  source_file: "system/libhidl/transport/include/hidl/ConcurrentMap.h"
  parameters {
    basic_abi {
      type_abi {
        name: "std::basic_string<char, std::char_traits<char>, std::allocator<char> > &&"
        size: 8
        alignment: 8
      }
      name: "k"
      access: public_access
      linker_set_key: "false"
    }
    default_arg: false
  }
  parameters {
    basic_abi {
      type_abi {
        name: "std::function<sp<IBinder> (void *)> &&"
        size: 8
        alignment: 8
      }
      name: "v"
      access: public_access
      linker_set_key: "false"
    }
    default_arg: false
  }
}
functions {
  basic_abi {
    type_abi {
      name: "const std::function<sp<IBinder> (void *)> &"
      size: 8
      alignment: 8
    }
    name: "android::hardware::ConcurrentMap<std::__1::basic_string<char, std::__1::char_traits<char>, std::__1::allocator<char> >, std::__1::function<android::sp<android::hardware::IBinder> (void *)> >::get"
    access: public_access
    linker_set_key: "_ZNK7android8hardware13ConcurrentMapINSt3__112basic_stringIcNS2_11char_traitsIcEENS2_9allocatorIcEEEENS2_8functionIFNS_2spINS0_7IBinderEEEPvEEEE3getERKS8_RKSF_"
  }
  mangled_function_name: "_ZNK7android8hardware13ConcurrentMapINSt3__112basic_stringIcNS2_11char_traitsIcEENS2_9allocatorIcEEEENS2_8functionIFNS_2spINS0_7IBinderEEEPvEEEE3getERKS8_RKSF_"
  source_file: "system/libhidl/transport/include/hidl/ConcurrentMap.h"
  parameters {
    basic_abi {
      type_abi {
        name: "const std::basic_string<char, std::char_traits<char>, std::allocator<char> > &"
        size: 8
        alignment: 8
      }
      name: "k"
      access: public_access
      linker_set_key: "false"
    }
    default_arg: false
  }
  parameters {
    basic_abi {
      type_abi {
        name: "const std::function<sp<IBinder> (void *)> &"
        size: 8
        alignment: 8
      }
      name: "def"
      access: public_access
      linker_set_key: "false"
    }
    default_arg: false
  }
}
functions {
  basic_abi {
    type_abi {
      name: "unsigned long"
      size: 8
      alignment: 8
    }
    name: "android::hardware::ConcurrentMap<std::__1::basic_string<char, std::__1::char_traits<char>, std::__1::allocator<char> >, std::__1::function<android::sp<android::hardware::IBinder> (void *)> >::erase"
    access: public_access
    linker_set_key: "_ZN7android8hardware13ConcurrentMapINSt3__112basic_stringIcNS2_11char_traitsIcEENS2_9allocatorIcEEEENS2_8functionIFNS_2spINS0_7IBinderEEEPvEEEE5eraseERKS8_"
  }
  mangled_function_name: "_ZN7android8hardware13ConcurrentMapINSt3__112basic_stringIcNS2_11char_traitsIcEENS2_9allocatorIcEEEENS2_8functionIFNS_2spINS0_7IBinderEEEPvEEEE5eraseERKS8_"
  source_file: "system/libhidl/transport/include/hidl/ConcurrentMap.h"
  parameters {
    basic_abi {
      type_abi {
        name: "const std::basic_string<char, std::char_traits<char>, std::allocator<char> > &"
        size: 8
        alignment: 8
      }
      name: "k"
      access: public_access
      linker_set_key: "false"
    }
    default_arg: false
  }
}
functions {
  basic_abi {
    type_abi {
      name: "void"
    }
    name: "android::hardware::hidl_binder_death_recipient::hidl_binder_death_recipient"
    access: public_access
    linker_set_key: "_ZN7android8hardware27hidl_binder_death_recipientC1ERKNS_2spINS0_20hidl_death_recipientEEEmRKNS2_INS_4hidl4base4V1_05IBaseEEE"
  }
  mangled_function_name: "_ZN7android8hardware27hidl_binder_death_recipientC1ERKNS_2spINS0_20hidl_death_recipientEEEmRKNS2_INS_4hidl4base4V1_05IBaseEEE"
  source_file: "system/libhidl/transport/include/hidl/HidlBinderSupport.h"
  parameters {
    basic_abi {
      type_abi {
        name: "const android::sp<android::hardware::hidl_death_recipient> &"
        size: 8
        alignment: 8
      }
      name: "recipient"
      access: public_access
      linker_set_key: "false"
    }
    default_arg: false
  }
  parameters {
    basic_abi {
      type_abi {
        name: "unsigned long"
        size: 8
        alignment: 8
      }
      name: "cookie"
      access: public_access
      linker_set_key: "false"
    }
    default_arg: false
  }
  parameters {
    basic_abi {
      type_abi {
        name: "const android::sp<android::hidl::base::V1_0::IBase> &"
        size: 8
        alignment: 8
      }
      name: "base"
      access: public_access
      linker_set_key: "false"
    }
    default_arg: false
  }
}
functions {
  basic_abi {
    type_abi {
      name: "void"
    }
    name: "android::hardware::hidl_binder_death_recipient::binderDied"
    access: public_access
    linker_set_key: "_ZN7android8hardware27hidl_binder_death_recipient10binderDiedERKNS_2wpINS0_7IBinderEEE"
  }
  mangled_function_name: "_ZN7android8hardware27hidl_binder_death_recipient10binderDiedERKNS_2wpINS0_7IBinderEEE"
  source_file: "system/libhidl/transport/include/hidl/HidlBinderSupport.h"
  parameters {
    basic_abi {
      type_abi {
        name: "const android::wp<android::hardware::IBinder> &"
        size: 8
        alignment: 8
      }
      name: ""
      access: public_access
      linker_set_key: "false"
    }
    default_arg: false
  }
}
functions {
  basic_abi {
    type_abi {
      name: "android::wp<android::hardware::hidl_death_recipient>"
      size: 16
      alignment: 8
    }
    name: "android::hardware::hidl_binder_death_recipient::getRecipient"
    access: public_access
    linker_set_key: "_ZN7android8hardware27hidl_binder_death_recipient12getRecipientEv"
  }
  mangled_function_name: "_ZN7android8hardware27hidl_binder_death_recipient12getRecipientEv"
  source_file: "system/libhidl/transport/include/hidl/HidlBinderSupport.h"
}
functions {
  basic_abi {
    type_abi {
      name: "int"
      size: 4
      alignment: 4
    }
    name: "android::hardware::readEmbeddedFromParcel"
    access: public_access
    linker_set_key: "_ZN7android8hardware22readEmbeddedFromParcelERKNS0_11hidl_memoryERKNS0_6ParcelEmm"
  }
  mangled_function_name: "_ZN7android8hardware22readEmbeddedFromParcelERKNS0_11hidl_memoryERKNS0_6ParcelEmm"
  source_file: "system/libhidl/transport/include/hidl/HidlBinderSupport.h"
  parameters {
    basic_abi {
      type_abi {
        name: "const android::hardware::hidl_memory &"
        size: 8
        alignment: 8
      }
      name: "memory"
      access: public_access
      linker_set_key: "false"
    }
    default_arg: false
  }
  parameters {
    basic_abi {
      type_abi {
        name: "const android::hardware::Parcel &"
        size: 8
        alignment: 8
      }
      name: "parcel"
      access: public_access
      linker_set_key: "false"
    }
    default_arg: false
  }
  parameters {
    basic_abi {
      type_abi {
        name: "unsigned long"
        size: 8
        alignment: 8
      }
      name: "parentHandle"
      access: public_access
      linker_set_key: "false"
    }
    default_arg: false
  }
  parameters {
    basic_abi {
      type_abi {
        name: "unsigned long"
        size: 8
        alignment: 8
      }
      name: "parentOffset"
      access: public_access
      linker_set_key: "false"
    }
    default_arg: false
  }
}
functions {
  basic_abi {
    type_abi {
      name: "int"
      size: 4
      alignment: 4
    }
    name: "android::hardware::writeEmbeddedToParcel"
    access: public_access
    linker_set_key: "_ZN7android8hardware21writeEmbeddedToParcelERKNS0_11hidl_memoryEPNS0_6ParcelEmm"
  }
  mangled_function_name: "_ZN7android8hardware21writeEmbeddedToParcelERKNS0_11hidl_memoryEPNS0_6ParcelEmm"
  source_file: "system/libhidl/transport/include/hidl/HidlBinderSupport.h"
  parameters {
    basic_abi {
      type_abi {
        name: "const android::hardware::hidl_memory &"
        size: 8
        alignment: 8
      }
      name: "memory"
      access: public_access
      linker_set_key: "false"
    }
    default_arg: false
  }
  parameters {
    basic_abi {
      type_abi {
        name: "android::hardware::Parcel *"
        size: 8
        alignment: 8
      }
      name: "parcel"
      access: public_access
      linker_set_key: "false"
    }
    default_arg: false
  }
  parameters {
    basic_abi {
      type_abi {
        name: "unsigned long"
        size: 8
        alignment: 8
      }
      name: "parentHandle"
      access: public_access
      linker_set_key: "false"
    }
    default_arg: false
  }
  parameters {
    basic_abi {
      type_abi {
        name: "unsigned long"
        size: 8
        alignment: 8
      }
      name: "parentOffset"
      access: public_access
      linker_set_key: "false"
    }
    default_arg: false
  }
}
functions {
  basic_abi {
    type_abi {
      name: "int"
      size: 4
      alignment: 4
    }
    name: "android::hardware::readEmbeddedFromParcel"
    access: public_access
    linker_set_key: "_ZN7android8hardware22readEmbeddedFromParcelERKNS0_11hidl_stringERKNS0_6ParcelEmm"
  }
  mangled_function_name: "_ZN7android8hardware22readEmbeddedFromParcelERKNS0_11hidl_stringERKNS0_6ParcelEmm"
  source_file: "system/libhidl/transport/include/hidl/HidlBinderSupport.h"
  parameters {
    basic_abi {
      type_abi {
        name: "const android::hardware::hidl_string &"
        size: 8
        alignment: 8
      }
      name: "string"
      access: public_access
      linker_set_key: "false"
    }
    default_arg: false
  }
  parameters {
    basic_abi {
      type_abi {
        name: "const android::hardware::Parcel &"
        size: 8
        alignment: 8
      }
      name: "parcel"
      access: public_access
      linker_set_key: "false"
    }
    default_arg: false
  }
  parameters {
    basic_abi {
      type_abi {
        name: "unsigned long"
        size: 8
        alignment: 8
      }
      name: "parentHandle"
      access: public_access
      linker_set_key: "false"
    }
    default_arg: false
  }
  parameters {
    basic_abi {
      type_abi {
        name: "unsigned long"
        size: 8
        alignment: 8
      }
      name: "parentOffset"
      access: public_access
      linker_set_key: "false"
    }
    default_arg: false
  }
}
functions {
  basic_abi {
    type_abi {
      name: "int"
      size: 4
      alignment: 4
    }
    name: "android::hardware::writeEmbeddedToParcel"
    access: public_access
    linker_set_key: "_ZN7android8hardware21writeEmbeddedToParcelERKNS0_11hidl_stringEPNS0_6ParcelEmm"
  }
  mangled_function_name: "_ZN7android8hardware21writeEmbeddedToParcelERKNS0_11hidl_stringEPNS0_6ParcelEmm"
  source_file: "system/libhidl/transport/include/hidl/HidlBinderSupport.h"
  parameters {
    basic_abi {
      type_abi {
        name: "const android::hardware::hidl_string &"
        size: 8
        alignment: 8
      }
      name: "string"
      access: public_access
      linker_set_key: "false"
    }
    default_arg: false
  }
  parameters {
    basic_abi {
      type_abi {
        name: "android::hardware::Parcel *"
        size: 8
        alignment: 8
      }
      name: "parcel"
      access: public_access
      linker_set_key: "false"
    }
    default_arg: false
  }
  parameters {
    basic_abi {
      type_abi {
        name: "unsigned long"
        size: 8
        alignment: 8
      }
      name: "parentHandle"
      access: public_access
      linker_set_key: "false"
    }
    default_arg: false
  }
  parameters {
    basic_abi {
      type_abi {
        name: "unsigned long"
        size: 8
        alignment: 8
      }
      name: "parentOffset"
      access: public_access
      linker_set_key: "false"
    }
    default_arg: false
  }
}
functions {
  basic_abi {
    type_abi {
      name: "int"
      size: 4
      alignment: 4
    }
    name: "android::hardware::writeToParcel"
    access: public_access
    linker_set_key: "_ZN7android8hardware13writeToParcelERKNS0_12hidl_versionERNS0_6ParcelE"
  }
  mangled_function_name: "_ZN7android8hardware13writeToParcelERKNS0_12hidl_versionERNS0_6ParcelE"
  source_file: "system/libhidl/transport/include/hidl/HidlBinderSupport.h"
  parameters {
    basic_abi {
      type_abi {
        name: "const android::hardware::hidl_version &"
        size: 8
        alignment: 8
      }
      name: "version"
      access: public_access
      linker_set_key: "false"
    }
    default_arg: false
  }
  parameters {
    basic_abi {
      type_abi {
        name: "android::hardware::Parcel &"
        size: 8
        alignment: 8
      }
      name: "parcel"
      access: public_access
      linker_set_key: "false"
    }
    default_arg: false
  }
}
functions {
  basic_abi {
    type_abi {
      name: "android::hardware::hidl_version *"
      size: 8
      alignment: 8
    }
    name: "android::hardware::readFromParcel"
    access: public_access
    linker_set_key: "_ZN7android8hardware14readFromParcelERKNS0_6ParcelE"
  }
  mangled_function_name: "_ZN7android8hardware14readFromParcelERKNS0_6ParcelE"
  source_file: "system/libhidl/transport/include/hidl/HidlBinderSupport.h"
  parameters {
    basic_abi {
      type_abi {
        name: "const android::hardware::Parcel &"
        size: 8
        alignment: 8
      }
      name: "parcel"
      access: public_access
      linker_set_key: "false"
    }
    default_arg: false
  }
}
functions {
  basic_abi {
    type_abi {
      name: "int"
      size: 4
      alignment: 4
    }
    name: "android::hardware::readFromParcel"
    access: public_access
    linker_set_key: "_ZN7android8hardware14readFromParcelEPNS0_6StatusERKNS0_6ParcelE"
  }
  mangled_function_name: "_ZN7android8hardware14readFromParcelEPNS0_6StatusERKNS0_6ParcelE"
  source_file: "system/libhidl/transport/include/hidl/HidlBinderSupport.h"
  parameters {
    basic_abi {
      type_abi {
        name: "android::hardware::Status *"
        size: 8
        alignment: 8
      }
      name: "status"
      access: public_access
      linker_set_key: "false"
    }
    default_arg: false
  }
  parameters {
    basic_abi {
      type_abi {
        name: "const android::hardware::Parcel &"
        size: 8
        alignment: 8
      }
      name: "parcel"
      access: public_access
      linker_set_key: "false"
    }
    default_arg: false
  }
}
functions {
  basic_abi {
    type_abi {
      name: "int"
      size: 4
      alignment: 4
    }
    name: "android::hardware::writeToParcel"
    access: public_access
    linker_set_key: "_ZN7android8hardware13writeToParcelERKNS0_6StatusEPNS0_6ParcelE"
  }
  mangled_function_name: "_ZN7android8hardware13writeToParcelERKNS0_6StatusEPNS0_6ParcelE"
  source_file: "system/libhidl/transport/include/hidl/HidlBinderSupport.h"
  parameters {
    basic_abi {
      type_abi {
        name: "const android::hardware::Status &"
        size: 8
        alignment: 8
      }
      name: "status"
      access: public_access
      linker_set_key: "false"
    }
    default_arg: false
  }
  parameters {
    basic_abi {
      type_abi {
        name: "android::hardware::Parcel *"
        size: 8
        alignment: 8
      }
      name: "parcel"
      access: public_access
      linker_set_key: "false"
    }
    default_arg: false
  }
}
functions {
  basic_abi {
    type_abi {
      name: "int"
      size: 4
      alignment: 4
    }
    name: "android::hardware::readEmbeddedFromParcel"
    access: public_access
    linker_set_key: "_ZN7android8hardware22readEmbeddedFromParcelERKNS0_8hidl_vecIT_EERKNS0_6ParcelEmmPm"
  }
  mangled_function_name: "_ZN7android8hardware22readEmbeddedFromParcelERKNS0_8hidl_vecIT_EERKNS0_6ParcelEmmPm"
  source_file: "system/libhidl/transport/include/hidl/HidlBinderSupport.h"
  parameters {
    basic_abi {
      type_abi {
        name: "const hidl_vec<type-parameter-0-0> &"
      }
      name: "vec"
      access: public_access
      linker_set_key: "false"
    }
    default_arg: false
  }
  parameters {
    basic_abi {
      type_abi {
        name: "const android::hardware::Parcel &"
        size: 8
        alignment: 8
      }
      name: "parcel"
      access: public_access
      linker_set_key: "false"
    }
    default_arg: false
  }
  parameters {
    basic_abi {
      type_abi {
        name: "unsigned long"
        size: 8
        alignment: 8
      }
      name: "parentHandle"
      access: public_access
      linker_set_key: "false"
    }
    default_arg: false
  }
  parameters {
    basic_abi {
      type_abi {
        name: "unsigned long"
        size: 8
        alignment: 8
      }
      name: "parentOffset"
      access: public_access
      linker_set_key: "false"
    }
    default_arg: false
  }
  parameters {
    basic_abi {
      type_abi {
        name: "unsigned long *"
        size: 8
        alignment: 8
      }
      name: "handle"
      access: public_access
      linker_set_key: "false"
    }
    default_arg: false
  }
  template_info {
    elements {
      basic_abi {
        name: "T"
        linker_set_key: "T"
      }
    }
  }
}
functions {
  basic_abi {
    type_abi {
      name: "int"
      size: 4
      alignment: 4
    }
    name: "android::hardware::writeEmbeddedToParcel"
    access: public_access
    linker_set_key: "_ZN7android8hardware21writeEmbeddedToParcelERKNS0_8hidl_vecIT_EEPNS0_6ParcelEmmPm"
  }
  mangled_function_name: "_ZN7android8hardware21writeEmbeddedToParcelERKNS0_8hidl_vecIT_EEPNS0_6ParcelEmmPm"
  source_file: "system/libhidl/transport/include/hidl/HidlBinderSupport.h"
  parameters {
    basic_abi {
      type_abi {
        name: "const hidl_vec<type-parameter-0-0> &"
      }
      name: "vec"
      access: public_access
      linker_set_key: "false"
    }
    default_arg: false
  }
  parameters {
    basic_abi {
      type_abi {
        name: "android::hardware::Parcel *"
        size: 8
        alignment: 8
      }
      name: "parcel"
      access: public_access
      linker_set_key: "false"
    }
    default_arg: false
  }
  parameters {
    basic_abi {
      type_abi {
        name: "unsigned long"
        size: 8
        alignment: 8
      }
      name: "parentHandle"
      access: public_access
      linker_set_key: "false"
    }
    default_arg: false
  }
  parameters {
    basic_abi {
      type_abi {
        name: "unsigned long"
        size: 8
        alignment: 8
      }
      name: "parentOffset"
      access: public_access
      linker_set_key: "false"
    }
    default_arg: false
  }
  parameters {
    basic_abi {
      type_abi {
        name: "unsigned long *"
        size: 8
        alignment: 8
      }
      name: "handle"
      access: public_access
      linker_set_key: "false"
    }
    default_arg: false
  }
  template_info {
    elements {
      basic_abi {
        name: "T"
        linker_set_key: "T"
      }
    }
  }
}
functions {
  basic_abi {
    type_abi {
      name: "int"
      size: 4
      alignment: 4
    }
    name: "android::hardware::findInParcel"
    access: public_access
    linker_set_key: "_ZN7android8hardware12findInParcelERKNS0_8hidl_vecIT_EERKNS0_6ParcelEPm"
  }
  mangled_function_name: "_ZN7android8hardware12findInParcelERKNS0_8hidl_vecIT_EERKNS0_6ParcelEPm"
  source_file: "system/libhidl/transport/include/hidl/HidlBinderSupport.h"
  parameters {
    basic_abi {
      type_abi {
        name: "const hidl_vec<type-parameter-0-0> &"
      }
      name: "vec"
      access: public_access
      linker_set_key: "false"
    }
    default_arg: false
  }
  parameters {
    basic_abi {
      type_abi {
        name: "const android::hardware::Parcel &"
        size: 8
        alignment: 8
      }
      name: "parcel"
      access: public_access
      linker_set_key: "false"
    }
    default_arg: false
  }
  parameters {
    basic_abi {
      type_abi {
        name: "unsigned long *"
        size: 8
        alignment: 8
      }
      name: "handle"
      access: public_access
      linker_set_key: "false"
    }
    default_arg: false
  }
  template_info {
    elements {
      basic_abi {
        name: "T"
        linker_set_key: "T"
      }
    }
  }
}
functions {
  basic_abi {
    type_abi {
      name: "int"
      size: 4
      alignment: 4
    }
    name: "android::hardware::readEmbeddedFromParcel"
    access: public_access
    linker_set_key: "_ZN7android8hardware22readEmbeddedFromParcelERNS0_12MQDescriptorIT_XT0_EEERKNS0_6ParcelEmm"
  }
  mangled_function_name: "_ZN7android8hardware22readEmbeddedFromParcelERNS0_12MQDescriptorIT_XT0_EEERKNS0_6ParcelEmm"
  source_file: "system/libhidl/transport/include/hidl/HidlBinderSupport.h"
  parameters {
    basic_abi {
      type_abi {
        name: "MQDescriptor<type-parameter-0-0, flavor> &"
      }
      name: "obj"
      access: public_access
      linker_set_key: "false"
    }
    default_arg: false
  }
  parameters {
    basic_abi {
      type_abi {
        name: "const android::hardware::Parcel &"
        size: 8
        alignment: 8
      }
      name: "parcel"
      access: public_access
      linker_set_key: "false"
    }
    default_arg: false
  }
  parameters {
    basic_abi {
      type_abi {
        name: "unsigned long"
        size: 8
        alignment: 8
      }
      name: "parentHandle"
      access: public_access
      linker_set_key: "false"
    }
    default_arg: false
  }
  parameters {
    basic_abi {
      type_abi {
        name: "unsigned long"
        size: 8
        alignment: 8
      }
      name: "parentOffset"
      access: public_access
      linker_set_key: "false"
    }
    default_arg: false
  }
  template_info {
    elements {
      basic_abi {
        name: "T"
        linker_set_key: "T"
      }
    }
    elements {
      basic_abi {
        name: "flavor"
        linker_set_key: "flavor"
      }
    }
  }
}
functions {
  basic_abi {
    type_abi {
      name: "int"
      size: 4
      alignment: 4
    }
    name: "android::hardware::writeEmbeddedToParcel"
    access: public_access
    linker_set_key: "_ZN7android8hardware21writeEmbeddedToParcelERKNS0_12MQDescriptorIT_XT0_EEEPNS0_6ParcelEmm"
  }
  mangled_function_name: "_ZN7android8hardware21writeEmbeddedToParcelERKNS0_12MQDescriptorIT_XT0_EEEPNS0_6ParcelEmm"
  source_file: "system/libhidl/transport/include/hidl/HidlBinderSupport.h"
  parameters {
    basic_abi {
      type_abi {
        name: "const MQDescriptor<type-parameter-0-0, flavor> &"
      }
      name: "obj"
      access: public_access
      linker_set_key: "false"
    }
    default_arg: false
  }
  parameters {
    basic_abi {
      type_abi {
        name: "android::hardware::Parcel *"
        size: 8
        alignment: 8
      }
      name: "parcel"
      access: public_access
      linker_set_key: "false"
    }
    default_arg: false
  }
  parameters {
    basic_abi {
      type_abi {
        name: "unsigned long"
        size: 8
        alignment: 8
      }
      name: "parentHandle"
      access: public_access
      linker_set_key: "false"
    }
    default_arg: false
  }
  parameters {
    basic_abi {
      type_abi {
        name: "unsigned long"
        size: 8
        alignment: 8
      }
      name: "parentOffset"
      access: public_access
      linker_set_key: "false"
    }
    default_arg: false
  }
  template_info {
    elements {
      basic_abi {
        name: "T"
        linker_set_key: "T"
      }
    }
    elements {
      basic_abi {
        name: "flavor"
        linker_set_key: "flavor"
      }
    }
  }
}
functions {
  basic_abi {
    type_abi {
      name: "int"
      size: 4
      alignment: 4
    }
    name: "android::hardware::readEmbeddedReferenceFromParcel"
    access: public_access
    linker_set_key: "_ZN7android8hardwareL31readEmbeddedReferenceFromParcelEPPKT_RKNS0_6ParcelEmmPmPb"
  }
  mangled_function_name: "_ZN7android8hardwareL31readEmbeddedReferenceFromParcelEPPKT_RKNS0_6ParcelEmmPmPb"
  source_file: "system/libhidl/transport/include/hidl/HidlBinderSupport.h"
  parameters {
    basic_abi {
      type_abi {
        name: "const type-parameter-0-0 **"
      }
      name: ""
      access: public_access
      linker_set_key: "false"
    }
    default_arg: false
  }
  parameters {
    basic_abi {
      type_abi {
        name: "const android::hardware::Parcel &"
        size: 8
        alignment: 8
      }
      name: "parcel"
      access: public_access
      linker_set_key: "false"
    }
    default_arg: false
  }
  parameters {
    basic_abi {
      type_abi {
        name: "unsigned long"
        size: 8
        alignment: 8
      }
      name: "parentHandle"
      access: public_access
      linker_set_key: "false"
    }
    default_arg: false
  }
  parameters {
    basic_abi {
      type_abi {
        name: "unsigned long"
        size: 8
        alignment: 8
      }
      name: "parentOffset"
      access: public_access
      linker_set_key: "false"
    }
    default_arg: false
  }
  parameters {
    basic_abi {
      type_abi {
        name: "unsigned long *"
        size: 8
        alignment: 8
      }
      name: "handle"
      access: public_access
      linker_set_key: "false"
    }
    default_arg: false
  }
  parameters {
    basic_abi {
      type_abi {
        name: "bool *"
        size: 8
        alignment: 8
      }
      name: "shouldResolveRefInBuffer"
      access: public_access
      linker_set_key: "false"
    }
    default_arg: false
  }
  template_info {
    elements {
      basic_abi {
        name: "T"
        linker_set_key: "T"
      }
    }
  }
}
functions {
  basic_abi {
    type_abi {
      name: "int"
      size: 4
      alignment: 4
    }
    name: "android::hardware::writeEmbeddedReferenceToParcel"
    access: public_access
    linker_set_key: "_ZN7android8hardwareL30writeEmbeddedReferenceToParcelEPKT_PNS0_6ParcelEmmPmPb"
  }
  mangled_function_name: "_ZN7android8hardwareL30writeEmbeddedReferenceToParcelEPKT_PNS0_6ParcelEmmPmPb"
  source_file: "system/libhidl/transport/include/hidl/HidlBinderSupport.h"
  parameters {
    basic_abi {
      type_abi {
        name: "const type-parameter-0-0 *"
      }
      name: "buf"
      access: public_access
      linker_set_key: "false"
    }
    default_arg: false
  }
  parameters {
    basic_abi {
      type_abi {
        name: "android::hardware::Parcel *"
        size: 8
        alignment: 8
      }
      name: "parcel"
      access: public_access
      linker_set_key: "false"
    }
    default_arg: false
  }
  parameters {
    basic_abi {
      type_abi {
        name: "unsigned long"
        size: 8
        alignment: 8
      }
      name: "parentHandle"
      access: public_access
      linker_set_key: "false"
    }
    default_arg: false
  }
  parameters {
    basic_abi {
      type_abi {
        name: "unsigned long"
        size: 8
        alignment: 8
      }
      name: "parentOffset"
      access: public_access
      linker_set_key: "false"
    }
    default_arg: false
  }
  parameters {
    basic_abi {
      type_abi {
        name: "unsigned long *"
        size: 8
        alignment: 8
      }
      name: "handle"
      access: public_access
      linker_set_key: "false"
    }
    default_arg: false
  }
  parameters {
    basic_abi {
      type_abi {
        name: "bool *"
        size: 8
        alignment: 8
      }
      name: "shouldResolveRefInBuffer"
      access: public_access
      linker_set_key: "false"
    }
    default_arg: false
  }
  template_info {
    elements {
      basic_abi {
        name: "T"
        linker_set_key: "T"
      }
    }
  }
}
functions {
  basic_abi {
    type_abi {
      name: "int"
      size: 4
      alignment: 4
    }
    name: "android::hardware::readReferenceFromParcel"
    access: public_access
    linker_set_key: "_ZN7android8hardwareL23readReferenceFromParcelEPPKT_RKNS0_6ParcelEPmPb"
  }
  mangled_function_name: "_ZN7android8hardwareL23readReferenceFromParcelEPPKT_RKNS0_6ParcelEPmPb"
  source_file: "system/libhidl/transport/include/hidl/HidlBinderSupport.h"
  parameters {
    basic_abi {
      type_abi {
        name: "const type-parameter-0-0 **"
      }
      name: "bufptr"
      access: public_access
      linker_set_key: "false"
    }
    default_arg: false
  }
  parameters {
    basic_abi {
      type_abi {
        name: "const android::hardware::Parcel &"
        size: 8
        alignment: 8
      }
      name: "parcel"
      access: public_access
      linker_set_key: "false"
    }
    default_arg: false
  }
  parameters {
    basic_abi {
      type_abi {
        name: "unsigned long *"
        size: 8
        alignment: 8
      }
      name: "handle"
      access: public_access
      linker_set_key: "false"
    }
    default_arg: false
  }
  parameters {
    basic_abi {
      type_abi {
        name: "bool *"
        size: 8
        alignment: 8
      }
      name: "shouldResolveRefInBuffer"
      access: public_access
      linker_set_key: "false"
    }
    default_arg: false
  }
  template_info {
    elements {
      basic_abi {
        name: "T"
        linker_set_key: "T"
      }
    }
  }
}
functions {
  basic_abi {
    type_abi {
      name: "int"
      size: 4
      alignment: 4
    }
    name: "android::hardware::writeReferenceToParcel"
    access: public_access
    linker_set_key: "_ZN7android8hardwareL22writeReferenceToParcelEPKT_PNS0_6ParcelEPmPb"
  }
  mangled_function_name: "_ZN7android8hardwareL22writeReferenceToParcelEPKT_PNS0_6ParcelEPmPb"
  source_file: "system/libhidl/transport/include/hidl/HidlBinderSupport.h"
  parameters {
    basic_abi {
      type_abi {
        name: "const type-parameter-0-0 *"
      }
      name: "buf"
      access: public_access
      linker_set_key: "false"
    }
    default_arg: false
  }
  parameters {
    basic_abi {
      type_abi {
        name: "android::hardware::Parcel *"
        size: 8
        alignment: 8
      }
      name: "parcel"
      access: public_access
      linker_set_key: "false"
    }
    default_arg: false
  }
  parameters {
    basic_abi {
      type_abi {
        name: "unsigned long *"
        size: 8
        alignment: 8
      }
      name: "handle"
      access: public_access
      linker_set_key: "false"
    }
    default_arg: false
  }
  parameters {
    basic_abi {
      type_abi {
        name: "bool *"
        size: 8
        alignment: 8
      }
      name: "shouldResolveRefInBuffer"
      access: public_access
      linker_set_key: "false"
    }
    default_arg: false
  }
  template_info {
    elements {
      basic_abi {
        name: "T"
        linker_set_key: "T"
      }
    }
  }
}
functions {
  basic_abi {
    type_abi {
      name: "android::sp<android::hardware::IBinder>"
      size: 8
      alignment: 8
    }
    name: "android::hardware::toBinder"
    access: public_access
    linker_set_key: "_ZN7android8hardware8toBinderENS_2spIT_EE"
  }
  mangled_function_name: "_ZN7android8hardware8toBinderENS_2spIT_EE"
  source_file: "system/libhidl/transport/include/hidl/HidlBinderSupport.h"
  parameters {
    basic_abi {
      type_abi {
        name: "sp<type-parameter-0-0>"
      }
      name: "iface"
      access: public_access
      linker_set_key: "false"
    }
    default_arg: false
  }
  template_info {
    elements {
      basic_abi {
        name: "IType"
        linker_set_key: "IType"
      }
    }
    elements {
      basic_abi {
        name: "ProxyType"
        linker_set_key: "ProxyType"
      }
    }
  }
}
functions {
  basic_abi {
    type_abi {
      name: "sp<type-parameter-0-0>"
    }
    name: "android::hardware::fromBinder"
    access: public_access
    linker_set_key: "_ZN7android8hardware10fromBinderERKNS_2spINS0_7IBinderEEE"
  }
  mangled_function_name: "_ZN7android8hardware10fromBinderERKNS_2spINS0_7IBinderEEE"
  source_file: "system/libhidl/transport/include/hidl/HidlBinderSupport.h"
  parameters {
    basic_abi {
      type_abi {
        name: "const android::sp<android::hardware::IBinder> &"
        size: 8
        alignment: 8
      }
      name: "binderIface"
      access: public_access
      linker_set_key: "false"
    }
    default_arg: false
  }
  template_info {
    elements {
      basic_abi {
        name: "IType"
        linker_set_key: "IType"
      }
    }
    elements {
      basic_abi {
        name: "ProxyType"
        linker_set_key: "ProxyType"
      }
    }
    elements {
      basic_abi {
        name: "StubType"
        linker_set_key: "StubType"
      }
    }
  }
}
functions {
  basic_abi {
    type_abi {
      name: "void"
    }
    name: "android::hardware::configureBinderRpcThreadpool"
    access: public_access
    linker_set_key: "_ZN7android8hardware28configureBinderRpcThreadpoolEmb"
  }
  mangled_function_name: "_ZN7android8hardware28configureBinderRpcThreadpoolEmb"
  source_file: "system/libhidl/transport/include/hidl/HidlBinderSupport.h"
  parameters {
    basic_abi {
      type_abi {
        name: "unsigned long"
        size: 8
        alignment: 8
      }
      name: "maxThreads"
      access: public_access
      linker_set_key: "false"
    }
    default_arg: false
  }
  parameters {
    basic_abi {
      type_abi {
        name: "bool"
        size: 1
        alignment: 1
      }
      name: "callerWillJoin"
      access: public_access
      linker_set_key: "false"
    }
    default_arg: false
  }
}
functions {
  basic_abi {
    type_abi {
      name: "void"
    }
    name: "android::hardware::joinBinderRpcThreadpool"
    access: public_access
    linker_set_key: "_ZN7android8hardware23joinBinderRpcThreadpoolEv"
  }
  mangled_function_name: "_ZN7android8hardware23joinBinderRpcThreadpoolEv"
  source_file: "system/libhidl/transport/include/hidl/HidlBinderSupport.h"
}
functions {
  basic_abi {
    type_abi {
      name: "void"
    }
    name: "android::hardware::ConcurrentMap<android::wp<android::hidl::base::V1_0::IBase>, android::hardware::details::SchedPrio>::set"
    access: public_access
    linker_set_key: "_ZN7android8hardware13ConcurrentMapINS_2wpINS_4hidl4base4V1_05IBaseEEENS0_7details9SchedPrioEE3setEOS7_OS9_"
  }
  mangled_function_name: "_ZN7android8hardware13ConcurrentMapINS_2wpINS_4hidl4base4V1_05IBaseEEENS0_7details9SchedPrioEE3setEOS7_OS9_"
  source_file: "system/libhidl/transport/include/hidl/ConcurrentMap.h"
  parameters {
    basic_abi {
      type_abi {
        name: "android::wp<android::hidl::base::V1_0::IBase> &&"
        size: 8
        alignment: 8
      }
      name: "k"
      access: public_access
      linker_set_key: "false"
    }
    default_arg: false
  }
  parameters {
    basic_abi {
      type_abi {
        name: "android::hardware::details::SchedPrio &&"
        size: 8
        alignment: 8
      }
      name: "v"
      access: public_access
      linker_set_key: "false"
    }
    default_arg: false
  }
}
functions {
  basic_abi {
    type_abi {
      name: "const android::hardware::details::SchedPrio &"
      size: 8
      alignment: 8
    }
    name: "android::hardware::ConcurrentMap<android::wp<android::hidl::base::V1_0::IBase>, android::hardware::details::SchedPrio>::get"
    access: public_access
    linker_set_key: "_ZNK7android8hardware13ConcurrentMapINS_2wpINS_4hidl4base4V1_05IBaseEEENS0_7details9SchedPrioEE3getERKS7_RKS9_"
  }
  mangled_function_name: "_ZNK7android8hardware13ConcurrentMapINS_2wpINS_4hidl4base4V1_05IBaseEEENS0_7details9SchedPrioEE3getERKS7_RKS9_"
  source_file: "system/libhidl/transport/include/hidl/ConcurrentMap.h"
  parameters {
    basic_abi {
      type_abi {
        name: "const android::wp<android::hidl::base::V1_0::IBase> &"
        size: 8
        alignment: 8
      }
      name: "k"
      access: public_access
      linker_set_key: "false"
    }
    default_arg: false
  }
  parameters {
    basic_abi {
      type_abi {
        name: "const android::hardware::details::SchedPrio &"
        size: 8
        alignment: 8
      }
      name: "def"
      access: public_access
      linker_set_key: "false"
    }
    default_arg: false
  }
}
functions {
  basic_abi {
    type_abi {
      name: "unsigned long"
      size: 8
      alignment: 8
    }
    name: "android::hardware::ConcurrentMap<android::wp<android::hidl::base::V1_0::IBase>, android::hardware::details::SchedPrio>::erase"
    access: public_access
    linker_set_key: "_ZN7android8hardware13ConcurrentMapINS_2wpINS_4hidl4base4V1_05IBaseEEENS0_7details9SchedPrioEE5eraseERKS7_"
  }
  mangled_function_name: "_ZN7android8hardware13ConcurrentMapINS_2wpINS_4hidl4base4V1_05IBaseEEENS0_7details9SchedPrioEE5eraseERKS7_"
  source_file: "system/libhidl/transport/include/hidl/ConcurrentMap.h"
  parameters {
    basic_abi {
      type_abi {
        name: "const android::wp<android::hidl::base::V1_0::IBase> &"
        size: 8
        alignment: 8
      }
      name: "k"
      access: public_access
      linker_set_key: "false"
    }
    default_arg: false
  }
}
functions {
  basic_abi {
    type_abi {
      name: "void"
    }
    name: "android::hardware::configureRpcThreadpool"
    access: public_access
    linker_set_key: "_ZN7android8hardware22configureRpcThreadpoolEmb"
  }
  mangled_function_name: "_ZN7android8hardware22configureRpcThreadpoolEmb"
  source_file: "system/libhidl/transport/include/hidl/HidlTransportSupport.h"
  parameters {
    basic_abi {
      type_abi {
        name: "unsigned long"
        size: 8
        alignment: 8
      }
      name: "maxThreads"
      access: public_access
      linker_set_key: "false"
    }
    default_arg: false
  }
  parameters {
    basic_abi {
      type_abi {
        name: "bool"
        size: 1
        alignment: 1
      }
      name: "callerWillJoin"
      access: public_access
      linker_set_key: "false"
    }
    default_arg: false
  }
}
functions {
  basic_abi {
    type_abi {
      name: "void"
    }
    name: "android::hardware::joinRpcThreadpool"
    access: public_access
    linker_set_key: "_ZN7android8hardware17joinRpcThreadpoolEv"
  }
  mangled_function_name: "_ZN7android8hardware17joinRpcThreadpoolEv"
  source_file: "system/libhidl/transport/include/hidl/HidlTransportSupport.h"
}
functions {
  basic_abi {
    type_abi {
      name: "bool"
      size: 1
      alignment: 1
    }
    name: "android::hardware::setMinSchedulerPolicy"
    access: public_access
    linker_set_key: "_ZN7android8hardware21setMinSchedulerPolicyERKNS_2spINS_4hidl4base4V1_05IBaseEEEii"
  }
  mangled_function_name: "_ZN7android8hardware21setMinSchedulerPolicyERKNS_2spINS_4hidl4base4V1_05IBaseEEEii"
  source_file: "system/libhidl/transport/include/hidl/HidlTransportSupport.h"
  parameters {
    basic_abi {
      type_abi {
        name: "const android::sp<android::hidl::base::V1_0::IBase> &"
        size: 8
        alignment: 8
      }
      name: "service"
      access: public_access
      linker_set_key: "false"
    }
    default_arg: false
  }
  parameters {
    basic_abi {
      type_abi {
        name: "int"
        size: 4
        alignment: 4
      }
      name: "policy"
      access: public_access
      linker_set_key: "false"
    }
    default_arg: false
  }
  parameters {
    basic_abi {
      type_abi {
        name: "int"
        size: 4
        alignment: 4
      }
      name: "priority"
      access: public_access
      linker_set_key: "false"
    }
    default_arg: false
  }
}
functions {
  basic_abi {
    type_abi {
      name: "Return<sp<type-parameter-0-0> >"
    }
    name: "android::hardware::details::castInterface"
    access: public_access
    linker_set_key: "_ZN7android8hardware7details13castInterfaceENS_2spIT0_EEPKcb"
  }
  mangled_function_name: "_ZN7android8hardware7details13castInterfaceENS_2spIT0_EEPKcb"
  source_file: "system/libhidl/transport/include/hidl/HidlTransportSupport.h"
  parameters {
    basic_abi {
      type_abi {
        name: "sp<type-parameter-0-1>"
      }
      name: "parent"
      access: public_access
      linker_set_key: "false"
    }
    default_arg: false
  }
  parameters {
    basic_abi {
      type_abi {
        name: "const char *"
        size: 8
        alignment: 8
      }
      name: "childIndicator"
      access: public_access
      linker_set_key: "false"
    }
    default_arg: false
  }
  parameters {
    basic_abi {
      type_abi {
        name: "bool"
        size: 1
        alignment: 1
      }
      name: "emitError"
      access: public_access
      linker_set_key: "false"
    }
    default_arg: false
  }
  template_info {
    elements {
      basic_abi {
        name: "IChild"
        linker_set_key: "IChild"
      }
    }
    elements {
      basic_abi {
        name: "IParent"
        linker_set_key: "IParent"
      }
    }
    elements {
      basic_abi {
        name: "BpChild"
        linker_set_key: "BpChild"
      }
    }
    elements {
      basic_abi {
        name: "BpParent"
        linker_set_key: "BpParent"
      }
    }
  }
}
functions {
  basic_abi {
    type_abi {
      name: "android::sp<android::hidl::manager::V1_0::IServiceManager>"
      size: 8
      alignment: 8
    }
    name: "android::hardware::fromBinder"
    access: public_access
    linker_set_key: "_ZN7android8hardware10fromBinderINS_4hidl7manager4V1_015IServiceManagerENS4_18BpHwServiceManagerENS4_18BnHwServiceManagerEEENS_2spIT_EERKNS8_INS0_7IBinderEEE"
  }
  mangled_function_name: "_ZN7android8hardware10fromBinderINS_4hidl7manager4V1_015IServiceManagerENS4_18BpHwServiceManagerENS4_18BnHwServiceManagerEEENS_2spIT_EERKNS8_INS0_7IBinderEEE"
  source_file: "system/libhidl/transport/include/hidl/HidlBinderSupport.h"
  parameters {
    basic_abi {
      type_abi {
        name: "const android::sp<android::hardware::IBinder> &"
        size: 8
        alignment: 8
      }
      name: "binderIface"
      access: public_access
      linker_set_key: "false"
    }
    default_arg: false
  }
  template_info {
    elements {
      basic_abi {
        type_abi {
          name: "android::hidl::manager::V1_0::IServiceManager"
          size: 24
          alignment: 8
        }
        linker_set_key: "android::hidl::manager::V1_0::IServiceManager"
      }
    }
    elements {
      basic_abi {
        type_abi {
          name: "android::hidl::manager::V1_0::BpHwServiceManager"
          size: 216
          alignment: 8
        }
        linker_set_key: "android::hidl::manager::V1_0::BpHwServiceManager"
      }
    }
    elements {
      basic_abi {
        type_abi {
          name: "android::hidl::manager::V1_0::BnHwServiceManager"
          size: 152
          alignment: 8
        }
        linker_set_key: "android::hidl::manager::V1_0::BnHwServiceManager"
      }
    }
  }
}
functions {
  basic_abi {
    type_abi {
      name: "android::sp<android::hidl::manager::V1_0::IServiceManager>"
      size: 8
      alignment: 8
    }
    name: "android::hardware::defaultServiceManager"
    access: public_access
    linker_set_key: "_ZN7android8hardware21defaultServiceManagerEv"
  }
  mangled_function_name: "_ZN7android8hardware21defaultServiceManagerEv"
  source_file: "system/libhidl/transport/include/hidl/ServiceManagement.h"
}
functions {
  basic_abi {
    type_abi {
      name: "android::sp<android::hidl::manager::V1_0::IServiceManager>"
      size: 8
      alignment: 8
    }
    name: "android::hardware::getPassthroughServiceManager"
    access: public_access
    linker_set_key: "_ZN7android8hardware28getPassthroughServiceManagerEv"
  }
  mangled_function_name: "_ZN7android8hardware28getPassthroughServiceManagerEv"
  source_file: "system/libhidl/transport/include/hidl/ServiceManagement.h"
}
functions {
  basic_abi {
    type_abi {
      name: "void"
    }
    name: "android::hardware::details::onRegistration"
    access: public_access
    linker_set_key: "_ZN7android8hardware7details14onRegistrationERKNSt3__112basic_stringIcNS2_11char_traitsIcEENS2_9allocatorIcEEEESA_SA_"
  }
  mangled_function_name: "_ZN7android8hardware7details14onRegistrationERKNSt3__112basic_stringIcNS2_11char_traitsIcEENS2_9allocatorIcEEEESA_SA_"
  source_file: "system/libhidl/transport/include/hidl/ServiceManagement.h"
  parameters {
    basic_abi {
      type_abi {
        name: "const std::basic_string<char, std::char_traits<char>, std::allocator<char> > &"
        size: 8
        alignment: 8
      }
      name: "packageName"
      access: public_access
      linker_set_key: "false"
    }
    default_arg: false
  }
  parameters {
    basic_abi {
      type_abi {
        name: "const std::basic_string<char, std::char_traits<char>, std::allocator<char> > &"
        size: 8
        alignment: 8
      }
      name: "interfaceName"
      access: public_access
      linker_set_key: "false"
    }
    default_arg: false
  }
  parameters {
    basic_abi {
      type_abi {
        name: "const std::basic_string<char, std::char_traits<char>, std::allocator<char> > &"
        size: 8
        alignment: 8
      }
      name: "instanceName"
      access: public_access
      linker_set_key: "false"
    }
    default_arg: false
  }
}
functions {
  basic_abi {
    type_abi {
      name: "void"
    }
    name: "android::hardware::details::waitForHwService"
    access: public_access
    linker_set_key: "_ZN7android8hardware7details16waitForHwServiceERKNSt3__112basic_stringIcNS2_11char_traitsIcEENS2_9allocatorIcEEEESA_"
  }
  mangled_function_name: "_ZN7android8hardware7details16waitForHwServiceERKNSt3__112basic_stringIcNS2_11char_traitsIcEENS2_9allocatorIcEEEESA_"
  source_file: "system/libhidl/transport/include/hidl/ServiceManagement.h"
  parameters {
    basic_abi {
      type_abi {
        name: "const std::basic_string<char, std::char_traits<char>, std::allocator<char> > &"
        size: 8
        alignment: 8
      }
      name: "interface"
      access: public_access
      linker_set_key: "false"
    }
    default_arg: false
  }
  parameters {
    basic_abi {
      type_abi {
        name: "const std::basic_string<char, std::char_traits<char>, std::allocator<char> > &"
        size: 8
        alignment: 8
      }
      name: "instanceName"
      access: public_access
      linker_set_key: "false"
    }
    default_arg: false
  }
}
functions {
  basic_abi {
    type_abi {
      name: "bool"
      size: 1
      alignment: 1
    }
    name: "android::hidl::manager::V1_0::IServiceNotification::isRemote"
    access: public_access
    linker_set_key: "_ZNK7android4hidl7manager4V1_020IServiceNotification8isRemoteEv"
  }
  mangled_function_name: "_ZNK7android4hidl7manager4V1_020IServiceNotification8isRemoteEv"
  source_file: "out/soong/.intermediates/system/libhidl/transport/manager/1.0/android.hidl.manager@1.0_genc++_headers/gen/android/hidl/manager/1.0/IServiceNotification.h"
}
functions {
  basic_abi {
    type_abi {
      name: "android::hardware::Return<void>"
      size: 40
      alignment: 8
    }
    name: "android::hidl::manager::V1_0::IServiceNotification::onRegistration"
    access: public_access
    linker_set_key: "_ZN7android4hidl7manager4V1_020IServiceNotification14onRegistrationERKNS_8hardware11hidl_stringES7_b"
  }
  mangled_function_name: "_ZN7android4hidl7manager4V1_020IServiceNotification14onRegistrationERKNS_8hardware11hidl_stringES7_b"
  source_file: "out/soong/.intermediates/system/libhidl/transport/manager/1.0/android.hidl.manager@1.0_genc++_headers/gen/android/hidl/manager/1.0/IServiceNotification.h"
  parameters {
    basic_abi {
      type_abi {
        name: "const android::hardware::hidl_string &"
        size: 8
        alignment: 8
      }
      name: "fqName"
      access: public_access
      linker_set_key: "false"
    }
    default_arg: false
  }
  parameters {
    basic_abi {
      type_abi {
        name: "const android::hardware::hidl_string &"
        size: 8
        alignment: 8
      }
      name: "name"
      access: public_access
      linker_set_key: "false"
    }
    default_arg: false
  }
  parameters {
    basic_abi {
      type_abi {
        name: "bool"
        size: 1
        alignment: 1
      }
      name: "preexisting"
      access: public_access
      linker_set_key: "false"
    }
    default_arg: false
  }
}
functions {
  basic_abi {
    type_abi {
      name: "android::hardware::Return<void>"
      size: 40
      alignment: 8
    }
    name: "android::hidl::manager::V1_0::IServiceNotification::interfaceChain"
    access: public_access
    linker_set_key: "_ZN7android4hidl7manager4V1_020IServiceNotification14interfaceChainENSt3__18functionIFvRKNS_8hardware8hidl_vecINS6_11hidl_stringEEEEEE"
  }
  mangled_function_name: "_ZN7android4hidl7manager4V1_020IServiceNotification14interfaceChainENSt3__18functionIFvRKNS_8hardware8hidl_vecINS6_11hidl_stringEEEEEE"
  source_file: "out/soong/.intermediates/system/libhidl/transport/manager/1.0/android.hidl.manager@1.0_genc++_headers/gen/android/hidl/manager/1.0/IServiceNotification.h"
  parameters {
    basic_abi {
      type_abi {
        name: "std::function<void (const hidl_vec<hidl_string> &)>"
        size: 48
        alignment: 16
      }
      name: "_hidl_cb"
      access: public_access
      linker_set_key: "false"
    }
    default_arg: false
  }
}
functions {
  basic_abi {
    type_abi {
      name: "android::hardware::Return<void>"
      size: 40
      alignment: 8
    }
    name: "android::hidl::manager::V1_0::IServiceNotification::debug"
    access: public_access
    linker_set_key: "_ZN7android4hidl7manager4V1_020IServiceNotification5debugERKNS_8hardware11hidl_handleERKNS4_8hidl_vecINS4_11hidl_stringEEE"
  }
  mangled_function_name: "_ZN7android4hidl7manager4V1_020IServiceNotification5debugERKNS_8hardware11hidl_handleERKNS4_8hidl_vecINS4_11hidl_stringEEE"
  source_file: "out/soong/.intermediates/system/libhidl/transport/manager/1.0/android.hidl.manager@1.0_genc++_headers/gen/android/hidl/manager/1.0/IServiceNotification.h"
  parameters {
    basic_abi {
      type_abi {
        name: "const android::hardware::hidl_handle &"
        size: 8
        alignment: 8
      }
      name: "fd"
      access: public_access
      linker_set_key: "false"
    }
    default_arg: false
  }
  parameters {
    basic_abi {
      type_abi {
        name: "const android::hardware::hidl_vec<android::hardware::hidl_string> &"
        size: 8
        alignment: 8
      }
      name: "options"
      access: public_access
      linker_set_key: "false"
    }
    default_arg: false
  }
}
functions {
  basic_abi {
    type_abi {
      name: "android::hardware::Return<void>"
      size: 40
      alignment: 8
    }
    name: "android::hidl::manager::V1_0::IServiceNotification::interfaceDescriptor"
    access: public_access
    linker_set_key: "_ZN7android4hidl7manager4V1_020IServiceNotification19interfaceDescriptorENSt3__18functionIFvRKNS_8hardware11hidl_stringEEEE"
  }
  mangled_function_name: "_ZN7android4hidl7manager4V1_020IServiceNotification19interfaceDescriptorENSt3__18functionIFvRKNS_8hardware11hidl_stringEEEE"
  source_file: "out/soong/.intermediates/system/libhidl/transport/manager/1.0/android.hidl.manager@1.0_genc++_headers/gen/android/hidl/manager/1.0/IServiceNotification.h"
  parameters {
    basic_abi {
      type_abi {
        name: "std::function<void (const hidl_string &)>"
        size: 48
        alignment: 16
      }
      name: "_hidl_cb"
      access: public_access
      linker_set_key: "false"
    }
    default_arg: false
  }
}
functions {
  basic_abi {
    type_abi {
      name: "android::hardware::Return<void>"
      size: 40
      alignment: 8
    }
    name: "android::hidl::manager::V1_0::IServiceNotification::getHashChain"
    access: public_access
    linker_set_key: "_ZN7android4hidl7manager4V1_020IServiceNotification12getHashChainENSt3__18functionIFvRKNS_8hardware8hidl_vecINS6_10hidl_arrayIhLm32EJEEEEEEEE"
  }
  mangled_function_name: "_ZN7android4hidl7manager4V1_020IServiceNotification12getHashChainENSt3__18functionIFvRKNS_8hardware8hidl_vecINS6_10hidl_arrayIhLm32EJEEEEEEEE"
  source_file: "out/soong/.intermediates/system/libhidl/transport/manager/1.0/android.hidl.manager@1.0_genc++_headers/gen/android/hidl/manager/1.0/IServiceNotification.h"
  parameters {
    basic_abi {
      type_abi {
        name: "std::function<void (const hidl_vec<hidl_array<unsigned char, 32> > &)>"
      }
      name: "_hidl_cb"
      access: public_access
      linker_set_key: "false"
    }
    default_arg: false
  }
}
functions {
  basic_abi {
    type_abi {
      name: "android::hardware::Return<void>"
      size: 40
      alignment: 8
    }
    name: "android::hidl::manager::V1_0::IServiceNotification::setHALInstrumentation"
    access: public_access
    linker_set_key: "_ZN7android4hidl7manager4V1_020IServiceNotification21setHALInstrumentationEv"
  }
  mangled_function_name: "_ZN7android4hidl7manager4V1_020IServiceNotification21setHALInstrumentationEv"
  source_file: "out/soong/.intermediates/system/libhidl/transport/manager/1.0/android.hidl.manager@1.0_genc++_headers/gen/android/hidl/manager/1.0/IServiceNotification.h"
}
functions {
  basic_abi {
    type_abi {
      name: "android::hardware::Return<bool>"
      size: 40
      alignment: 8
    }
    name: "android::hidl::manager::V1_0::IServiceNotification::linkToDeath"
    access: public_access
    linker_set_key: "_ZN7android4hidl7manager4V1_020IServiceNotification11linkToDeathERKNS_2spINS_8hardware20hidl_death_recipientEEEm"
  }
  mangled_function_name: "_ZN7android4hidl7manager4V1_020IServiceNotification11linkToDeathERKNS_2spINS_8hardware20hidl_death_recipientEEEm"
  source_file: "out/soong/.intermediates/system/libhidl/transport/manager/1.0/android.hidl.manager@1.0_genc++_headers/gen/android/hidl/manager/1.0/IServiceNotification.h"
  parameters {
    basic_abi {
      type_abi {
        name: "const android::sp<android::hardware::hidl_death_recipient> &"
        size: 8
        alignment: 8
      }
      name: "recipient"
      access: public_access
      linker_set_key: "false"
    }
    default_arg: false
  }
  parameters {
    basic_abi {
      type_abi {
        name: "unsigned long"
        size: 8
        alignment: 8
      }
      name: "cookie"
      access: public_access
      linker_set_key: "false"
    }
    default_arg: false
  }
}
functions {
  basic_abi {
    type_abi {
      name: "android::hardware::Return<void>"
      size: 40
      alignment: 8
    }
    name: "android::hidl::manager::V1_0::IServiceNotification::ping"
    access: public_access
    linker_set_key: "_ZN7android4hidl7manager4V1_020IServiceNotification4pingEv"
  }
  mangled_function_name: "_ZN7android4hidl7manager4V1_020IServiceNotification4pingEv"
  source_file: "out/soong/.intermediates/system/libhidl/transport/manager/1.0/android.hidl.manager@1.0_genc++_headers/gen/android/hidl/manager/1.0/IServiceNotification.h"
}
functions {
  basic_abi {
    type_abi {
      name: "android::hardware::Return<void>"
      size: 40
      alignment: 8
    }
    name: "android::hidl::manager::V1_0::IServiceNotification::getDebugInfo"
    access: public_access
    linker_set_key: "_ZN7android4hidl7manager4V1_020IServiceNotification12getDebugInfoENSt3__18functionIFvRKNS0_4base4V1_09DebugInfoEEEE"
  }
  mangled_function_name: "_ZN7android4hidl7manager4V1_020IServiceNotification12getDebugInfoENSt3__18functionIFvRKNS0_4base4V1_09DebugInfoEEEE"
  source_file: "out/soong/.intermediates/system/libhidl/transport/manager/1.0/android.hidl.manager@1.0_genc++_headers/gen/android/hidl/manager/1.0/IServiceNotification.h"
  parameters {
    basic_abi {
      type_abi {
        name: "std::function<void (const DebugInfo &)>"
      }
      name: "_hidl_cb"
      access: public_access
      linker_set_key: "false"
    }
    default_arg: false
  }
}
functions {
  basic_abi {
    type_abi {
      name: "android::hardware::Return<void>"
      size: 40
      alignment: 8
    }
    name: "android::hidl::manager::V1_0::IServiceNotification::notifySyspropsChanged"
    access: public_access
    linker_set_key: "_ZN7android4hidl7manager4V1_020IServiceNotification21notifySyspropsChangedEv"
  }
  mangled_function_name: "_ZN7android4hidl7manager4V1_020IServiceNotification21notifySyspropsChangedEv"
  source_file: "out/soong/.intermediates/system/libhidl/transport/manager/1.0/android.hidl.manager@1.0_genc++_headers/gen/android/hidl/manager/1.0/IServiceNotification.h"
}
functions {
  basic_abi {
    type_abi {
      name: "android::hardware::Return<bool>"
      size: 40
      alignment: 8
    }
    name: "android::hidl::manager::V1_0::IServiceNotification::unlinkToDeath"
    access: public_access
    linker_set_key: "_ZN7android4hidl7manager4V1_020IServiceNotification13unlinkToDeathERKNS_2spINS_8hardware20hidl_death_recipientEEE"
  }
  mangled_function_name: "_ZN7android4hidl7manager4V1_020IServiceNotification13unlinkToDeathERKNS_2spINS_8hardware20hidl_death_recipientEEE"
  source_file: "out/soong/.intermediates/system/libhidl/transport/manager/1.0/android.hidl.manager@1.0_genc++_headers/gen/android/hidl/manager/1.0/IServiceNotification.h"
  parameters {
    basic_abi {
      type_abi {
        name: "const android::sp<android::hardware::hidl_death_recipient> &"
        size: 8
        alignment: 8
      }
      name: "recipient"
      access: public_access
      linker_set_key: "false"
    }
    default_arg: false
  }
}
functions {
  basic_abi {
    type_abi {
      name: "android::hardware::Return<android::sp<android::hidl::manager::V1_0::IServiceNotification> >"
    }
    name: "android::hidl::manager::V1_0::IServiceNotification::castFrom"
    access: public_access
    linker_set_key: "_ZN7android4hidl7manager4V1_020IServiceNotification8castFromERKNS_2spIS3_EEb"
  }
  mangled_function_name: "_ZN7android4hidl7manager4V1_020IServiceNotification8castFromERKNS_2spIS3_EEb"
  source_file: "out/soong/.intermediates/system/libhidl/transport/manager/1.0/android.hidl.manager@1.0_genc++_headers/gen/android/hidl/manager/1.0/IServiceNotification.h"
  parameters {
    basic_abi {
      type_abi {
        name: "const android::sp<android::hidl::manager::V1_0::IServiceNotification> &"
        size: 8
        alignment: 8
      }
      name: "parent"
      access: public_access
      linker_set_key: "false"
    }
    default_arg: false
  }
  parameters {
    basic_abi {
      type_abi {
        name: "bool"
        size: 1
        alignment: 1
      }
      name: "emitError"
      access: public_access
      linker_set_key: "true"
    }
    default_arg: true
  }
}
functions {
  basic_abi {
    type_abi {
      name: "android::hardware::Return<android::sp<android::hidl::manager::V1_0::IServiceNotification> >"
    }
    name: "android::hidl::manager::V1_0::IServiceNotification::castFrom"
    access: public_access
    linker_set_key: "_ZN7android4hidl7manager4V1_020IServiceNotification8castFromERKNS_2spINS0_4base4V1_05IBaseEEEb"
  }
  mangled_function_name: "_ZN7android4hidl7manager4V1_020IServiceNotification8castFromERKNS_2spINS0_4base4V1_05IBaseEEEb"
  source_file: "out/soong/.intermediates/system/libhidl/transport/manager/1.0/android.hidl.manager@1.0_genc++_headers/gen/android/hidl/manager/1.0/IServiceNotification.h"
  parameters {
    basic_abi {
      type_abi {
        name: "const android::sp<android::hidl::base::V1_0::IBase> &"
        size: 8
        alignment: 8
      }
      name: "parent"
      access: public_access
      linker_set_key: "false"
    }
    default_arg: false
  }
  parameters {
    basic_abi {
      type_abi {
        name: "bool"
        size: 1
        alignment: 1
      }
      name: "emitError"
      access: public_access
      linker_set_key: "true"
    }
    default_arg: true
  }
}
functions {
  basic_abi {
    type_abi {
      name: "android::sp<android::hidl::manager::V1_0::IServiceNotification>"
      size: 8
      alignment: 8
    }
    name: "android::hidl::manager::V1_0::IServiceNotification::tryGetService"
    access: public_access
    linker_set_key: "_ZN7android4hidl7manager4V1_020IServiceNotification13tryGetServiceERKNSt3__112basic_stringIcNS4_11char_traitsIcEENS4_9allocatorIcEEEEb"
  }
  mangled_function_name: "_ZN7android4hidl7manager4V1_020IServiceNotification13tryGetServiceERKNSt3__112basic_stringIcNS4_11char_traitsIcEENS4_9allocatorIcEEEEb"
  source_file: "out/soong/.intermediates/system/libhidl/transport/manager/1.0/android.hidl.manager@1.0_genc++_headers/gen/android/hidl/manager/1.0/IServiceNotification.h"
  parameters {
    basic_abi {
      type_abi {
        name: "const std::basic_string<char, std::char_traits<char>, std::allocator<char> > &"
        size: 8
        alignment: 8
      }
      name: "serviceName"
      access: public_access
      linker_set_key: "true"
    }
    default_arg: true
  }
  parameters {
    basic_abi {
      type_abi {
        name: "bool"
        size: 1
        alignment: 1
      }
      name: "getStub"
      access: public_access
      linker_set_key: "true"
    }
    default_arg: true
  }
}
functions {
  basic_abi {
    type_abi {
      name: "android::sp<android::hidl::manager::V1_0::IServiceNotification>"
      size: 8
      alignment: 8
    }
    name: "android::hidl::manager::V1_0::IServiceNotification::tryGetService"
    access: public_access
    linker_set_key: "_ZN7android4hidl7manager4V1_020IServiceNotification13tryGetServiceEPKcb"
  }
  mangled_function_name: "_ZN7android4hidl7manager4V1_020IServiceNotification13tryGetServiceEPKcb"
  source_file: "out/soong/.intermediates/system/libhidl/transport/manager/1.0/android.hidl.manager@1.0_genc++_headers/gen/android/hidl/manager/1.0/IServiceNotification.h"
  parameters {
    basic_abi {
      type_abi {
        name: "const char *"
        size: 8
        alignment: 8
      }
      name: "serviceName"
      access: public_access
      linker_set_key: "false"
    }
    default_arg: false
  }
  parameters {
    basic_abi {
      type_abi {
        name: "bool"
        size: 1
        alignment: 1
      }
      name: "getStub"
      access: public_access
      linker_set_key: "true"
    }
    default_arg: true
  }
}
functions {
  basic_abi {
    type_abi {
      name: "android::sp<android::hidl::manager::V1_0::IServiceNotification>"
      size: 8
      alignment: 8
    }
    name: "android::hidl::manager::V1_0::IServiceNotification::tryGetService"
    access: public_access
    linker_set_key: "_ZN7android4hidl7manager4V1_020IServiceNotification13tryGetServiceERKNS_8hardware11hidl_stringEb"
  }
  mangled_function_name: "_ZN7android4hidl7manager4V1_020IServiceNotification13tryGetServiceERKNS_8hardware11hidl_stringEb"
  source_file: "out/soong/.intermediates/system/libhidl/transport/manager/1.0/android.hidl.manager@1.0_genc++_headers/gen/android/hidl/manager/1.0/IServiceNotification.h"
  parameters {
    basic_abi {
      type_abi {
        name: "const android::hardware::hidl_string &"
        size: 8
        alignment: 8
      }
      name: "serviceName"
      access: public_access
      linker_set_key: "false"
    }
    default_arg: false
  }
  parameters {
    basic_abi {
      type_abi {
        name: "bool"
        size: 1
        alignment: 1
      }
      name: "getStub"
      access: public_access
      linker_set_key: "true"
    }
    default_arg: true
  }
}
functions {
  basic_abi {
    type_abi {
      name: "android::sp<android::hidl::manager::V1_0::IServiceNotification>"
      size: 8
      alignment: 8
    }
    name: "android::hidl::manager::V1_0::IServiceNotification::tryGetService"
    access: public_access
    linker_set_key: "_ZN7android4hidl7manager4V1_020IServiceNotification13tryGetServiceEb"
  }
  mangled_function_name: "_ZN7android4hidl7manager4V1_020IServiceNotification13tryGetServiceEb"
  source_file: "out/soong/.intermediates/system/libhidl/transport/manager/1.0/android.hidl.manager@1.0_genc++_headers/gen/android/hidl/manager/1.0/IServiceNotification.h"
  parameters {
    basic_abi {
      type_abi {
        name: "bool"
        size: 1
        alignment: 1
      }
      name: "getStub"
      access: public_access
      linker_set_key: "false"
    }
    default_arg: false
  }
}
functions {
  basic_abi {
    type_abi {
      name: "android::sp<android::hidl::manager::V1_0::IServiceNotification>"
      size: 8
      alignment: 8
    }
    name: "android::hidl::manager::V1_0::IServiceNotification::getService"
    access: public_access
    linker_set_key: "_ZN7android4hidl7manager4V1_020IServiceNotification10getServiceERKNSt3__112basic_stringIcNS4_11char_traitsIcEENS4_9allocatorIcEEEEb"
  }
  mangled_function_name: "_ZN7android4hidl7manager4V1_020IServiceNotification10getServiceERKNSt3__112basic_stringIcNS4_11char_traitsIcEENS4_9allocatorIcEEEEb"
  source_file: "out/soong/.intermediates/system/libhidl/transport/manager/1.0/android.hidl.manager@1.0_genc++_headers/gen/android/hidl/manager/1.0/IServiceNotification.h"
  parameters {
    basic_abi {
      type_abi {
        name: "const std::basic_string<char, std::char_traits<char>, std::allocator<char> > &"
        size: 8
        alignment: 8
      }
      name: "serviceName"
      access: public_access
      linker_set_key: "true"
    }
    default_arg: true
  }
  parameters {
    basic_abi {
      type_abi {
        name: "bool"
        size: 1
        alignment: 1
      }
      name: "getStub"
      access: public_access
      linker_set_key: "true"
    }
    default_arg: true
  }
}
functions {
  basic_abi {
    type_abi {
      name: "android::sp<android::hidl::manager::V1_0::IServiceNotification>"
      size: 8
      alignment: 8
    }
    name: "android::hidl::manager::V1_0::IServiceNotification::getService"
    access: public_access
    linker_set_key: "_ZN7android4hidl7manager4V1_020IServiceNotification10getServiceEPKcb"
  }
  mangled_function_name: "_ZN7android4hidl7manager4V1_020IServiceNotification10getServiceEPKcb"
  source_file: "out/soong/.intermediates/system/libhidl/transport/manager/1.0/android.hidl.manager@1.0_genc++_headers/gen/android/hidl/manager/1.0/IServiceNotification.h"
  parameters {
    basic_abi {
      type_abi {
        name: "const char *"
        size: 8
        alignment: 8
      }
      name: "serviceName"
      access: public_access
      linker_set_key: "false"
    }
    default_arg: false
  }
  parameters {
    basic_abi {
      type_abi {
        name: "bool"
        size: 1
        alignment: 1
      }
      name: "getStub"
      access: public_access
      linker_set_key: "true"
    }
    default_arg: true
  }
}
functions {
  basic_abi {
    type_abi {
      name: "android::sp<android::hidl::manager::V1_0::IServiceNotification>"
      size: 8
      alignment: 8
    }
    name: "android::hidl::manager::V1_0::IServiceNotification::getService"
    access: public_access
    linker_set_key: "_ZN7android4hidl7manager4V1_020IServiceNotification10getServiceERKNS_8hardware11hidl_stringEb"
  }
  mangled_function_name: "_ZN7android4hidl7manager4V1_020IServiceNotification10getServiceERKNS_8hardware11hidl_stringEb"
  source_file: "out/soong/.intermediates/system/libhidl/transport/manager/1.0/android.hidl.manager@1.0_genc++_headers/gen/android/hidl/manager/1.0/IServiceNotification.h"
  parameters {
    basic_abi {
      type_abi {
        name: "const android::hardware::hidl_string &"
        size: 8
        alignment: 8
      }
      name: "serviceName"
      access: public_access
      linker_set_key: "false"
    }
    default_arg: false
  }
  parameters {
    basic_abi {
      type_abi {
        name: "bool"
        size: 1
        alignment: 1
      }
      name: "getStub"
      access: public_access
      linker_set_key: "true"
    }
    default_arg: true
  }
}
functions {
  basic_abi {
    type_abi {
      name: "android::sp<android::hidl::manager::V1_0::IServiceNotification>"
      size: 8
      alignment: 8
    }
    name: "android::hidl::manager::V1_0::IServiceNotification::getService"
    access: public_access
    linker_set_key: "_ZN7android4hidl7manager4V1_020IServiceNotification10getServiceEb"
  }
  mangled_function_name: "_ZN7android4hidl7manager4V1_020IServiceNotification10getServiceEb"
  source_file: "out/soong/.intermediates/system/libhidl/transport/manager/1.0/android.hidl.manager@1.0_genc++_headers/gen/android/hidl/manager/1.0/IServiceNotification.h"
  parameters {
    basic_abi {
      type_abi {
        name: "bool"
        size: 1
        alignment: 1
      }
      name: "getStub"
      access: public_access
      linker_set_key: "false"
    }
    default_arg: false
  }
}
functions {
  basic_abi {
    type_abi {
      name: "int"
      size: 4
      alignment: 4
    }
    name: "android::hidl::manager::V1_0::IServiceNotification::registerAsService"
    access: public_access
    linker_set_key: "_ZN7android4hidl7manager4V1_020IServiceNotification17registerAsServiceERKNSt3__112basic_stringIcNS4_11char_traitsIcEENS4_9allocatorIcEEEE"
  }
  mangled_function_name: "_ZN7android4hidl7manager4V1_020IServiceNotification17registerAsServiceERKNSt3__112basic_stringIcNS4_11char_traitsIcEENS4_9allocatorIcEEEE"
  source_file: "out/soong/.intermediates/system/libhidl/transport/manager/1.0/android.hidl.manager@1.0_genc++_headers/gen/android/hidl/manager/1.0/IServiceNotification.h"
  parameters {
    basic_abi {
      type_abi {
        name: "const std::basic_string<char, std::char_traits<char>, std::allocator<char> > &"
        size: 8
        alignment: 8
      }
      name: "serviceName"
      access: public_access
      linker_set_key: "true"
    }
    default_arg: true
  }
}
functions {
  basic_abi {
    type_abi {
      name: "bool"
      size: 1
      alignment: 1
    }
    name: "android::hidl::manager::V1_0::IServiceNotification::registerForNotifications"
    access: public_access
    linker_set_key: "_ZN7android4hidl7manager4V1_020IServiceNotification24registerForNotificationsERKNSt3__112basic_stringIcNS4_11char_traitsIcEENS4_9allocatorIcEEEERKNS_2spIS3_EE"
  }
  mangled_function_name: "_ZN7android4hidl7manager4V1_020IServiceNotification24registerForNotificationsERKNSt3__112basic_stringIcNS4_11char_traitsIcEENS4_9allocatorIcEEEERKNS_2spIS3_EE"
  source_file: "out/soong/.intermediates/system/libhidl/transport/manager/1.0/android.hidl.manager@1.0_genc++_headers/gen/android/hidl/manager/1.0/IServiceNotification.h"
  parameters {
    basic_abi {
      type_abi {
        name: "const std::basic_string<char, std::char_traits<char>, std::allocator<char> > &"
        size: 8
        alignment: 8
      }
      name: "serviceName"
      access: public_access
      linker_set_key: "false"
    }
    default_arg: false
  }
  parameters {
    basic_abi {
      type_abi {
        name: "const android::sp<android::hidl::manager::V1_0::IServiceNotification> &"
        size: 8
        alignment: 8
      }
      name: "notification"
      access: public_access
      linker_set_key: "false"
    }
    default_arg: false
  }
}
functions {
  basic_abi {
    type_abi {
      name: "std::basic_string<char, std::char_traits<char>, std::allocator<char> >"
      size: 24
      alignment: 8
    }
    name: "android::hidl::manager::V1_0::toString"
    access: public_access
    linker_set_key: "_ZN7android4hidl7manager4V1_08toStringERKNS_2spINS2_20IServiceNotificationEEE"
  }
  mangled_function_name: "_ZN7android4hidl7manager4V1_08toStringERKNS_2spINS2_20IServiceNotificationEEE"
  source_file: "out/soong/.intermediates/system/libhidl/transport/manager/1.0/android.hidl.manager@1.0_genc++_headers/gen/android/hidl/manager/1.0/IServiceNotification.h"
  parameters {
    basic_abi {
      type_abi {
        name: "const android::sp<android::hidl::manager::V1_0::IServiceNotification> &"
        size: 8
        alignment: 8
      }
      name: ""
      access: public_access
      linker_set_key: "false"
    }
    default_arg: false
  }
}
functions {
  basic_abi {
    type_abi {
      name: "bool"
      size: 1
      alignment: 1
    }
    name: "android::hidl::manager::V1_0::IServiceManager::isRemote"
    access: public_access
    linker_set_key: "_ZNK7android4hidl7manager4V1_015IServiceManager8isRemoteEv"
  }
  mangled_function_name: "_ZNK7android4hidl7manager4V1_015IServiceManager8isRemoteEv"
  source_file: "out/soong/.intermediates/system/libhidl/transport/manager/1.0/android.hidl.manager@1.0_genc++_headers/gen/android/hidl/manager/1.0/IServiceManager.h"
}
functions {
  basic_abi {
    type_abi {
      name: "android::hardware::Return<android::sp<android::hidl::base::V1_0::IBase> >"
      size: 48
      alignment: 8
    }
    name: "android::hidl::manager::V1_0::IServiceManager::get"
    access: public_access
    linker_set_key: "_ZN7android4hidl7manager4V1_015IServiceManager3getERKNS_8hardware11hidl_stringES7_"
  }
  mangled_function_name: "_ZN7android4hidl7manager4V1_015IServiceManager3getERKNS_8hardware11hidl_stringES7_"
  source_file: "out/soong/.intermediates/system/libhidl/transport/manager/1.0/android.hidl.manager@1.0_genc++_headers/gen/android/hidl/manager/1.0/IServiceManager.h"
  parameters {
    basic_abi {
      type_abi {
        name: "const android::hardware::hidl_string &"
        size: 8
        alignment: 8
      }
      name: "fqName"
      access: public_access
      linker_set_key: "false"
    }
    default_arg: false
  }
  parameters {
    basic_abi {
      type_abi {
        name: "const android::hardware::hidl_string &"
        size: 8
        alignment: 8
      }
      name: "name"
      access: public_access
      linker_set_key: "false"
    }
    default_arg: false
  }
}
functions {
  basic_abi {
    type_abi {
      name: "android::hardware::Return<bool>"
      size: 40
      alignment: 8
    }
    name: "android::hidl::manager::V1_0::IServiceManager::add"
    access: public_access
    linker_set_key: "_ZN7android4hidl7manager4V1_015IServiceManager3addERKNS_8hardware11hidl_stringERKNS_2spINS0_4base4V1_05IBaseEEE"
  }
  mangled_function_name: "_ZN7android4hidl7manager4V1_015IServiceManager3addERKNS_8hardware11hidl_stringERKNS_2spINS0_4base4V1_05IBaseEEE"
  source_file: "out/soong/.intermediates/system/libhidl/transport/manager/1.0/android.hidl.manager@1.0_genc++_headers/gen/android/hidl/manager/1.0/IServiceManager.h"
  parameters {
    basic_abi {
      type_abi {
        name: "const android::hardware::hidl_string &"
        size: 8
        alignment: 8
      }
      name: "name"
      access: public_access
      linker_set_key: "false"
    }
    default_arg: false
  }
  parameters {
    basic_abi {
      type_abi {
        name: "const android::sp<android::hidl::base::V1_0::IBase> &"
        size: 8
        alignment: 8
      }
      name: "service"
      access: public_access
      linker_set_key: "false"
    }
    default_arg: false
  }
}
functions {
  basic_abi {
    type_abi {
      name: "android::hardware::Return<android::hidl::manager::V1_0::IServiceManager::Transport>"
      size: 40
      alignment: 8
    }
    name: "android::hidl::manager::V1_0::IServiceManager::getTransport"
    access: public_access
    linker_set_key: "_ZN7android4hidl7manager4V1_015IServiceManager12getTransportERKNS_8hardware11hidl_stringES7_"
  }
  mangled_function_name: "_ZN7android4hidl7manager4V1_015IServiceManager12getTransportERKNS_8hardware11hidl_stringES7_"
  source_file: "out/soong/.intermediates/system/libhidl/transport/manager/1.0/android.hidl.manager@1.0_genc++_headers/gen/android/hidl/manager/1.0/IServiceManager.h"
  parameters {
    basic_abi {
      type_abi {
        name: "const android::hardware::hidl_string &"
        size: 8
        alignment: 8
      }
      name: "fqName"
      access: public_access
      linker_set_key: "false"
    }
    default_arg: false
  }
  parameters {
    basic_abi {
      type_abi {
        name: "const android::hardware::hidl_string &"
        size: 8
        alignment: 8
      }
      name: "name"
      access: public_access
      linker_set_key: "false"
    }
    default_arg: false
  }
}
functions {
  basic_abi {
    type_abi {
      name: "android::hardware::Return<void>"
      size: 40
      alignment: 8
    }
    name: "android::hidl::manager::V1_0::IServiceManager::list"
    access: public_access
    linker_set_key: "_ZN7android4hidl7manager4V1_015IServiceManager4listENSt3__18functionIFvRKNS_8hardware8hidl_vecINS6_11hidl_stringEEEEEE"
  }
  mangled_function_name: "_ZN7android4hidl7manager4V1_015IServiceManager4listENSt3__18functionIFvRKNS_8hardware8hidl_vecINS6_11hidl_stringEEEEEE"
  source_file: "out/soong/.intermediates/system/libhidl/transport/manager/1.0/android.hidl.manager@1.0_genc++_headers/gen/android/hidl/manager/1.0/IServiceManager.h"
  parameters {
    basic_abi {
      type_abi {
        name: "std::function<void (const hidl_vec<hidl_string> &)>"
        size: 48
        alignment: 16
      }
      name: "_hidl_cb"
      access: public_access
      linker_set_key: "false"
    }
    default_arg: false
  }
}
functions {
  basic_abi {
    type_abi {
      name: "android::hardware::Return<void>"
      size: 40
      alignment: 8
    }
    name: "android::hidl::manager::V1_0::IServiceManager::listByInterface"
    access: public_access
    linker_set_key: "_ZN7android4hidl7manager4V1_015IServiceManager15listByInterfaceERKNS_8hardware11hidl_stringENSt3__18functionIFvRKNS4_8hidl_vecIS5_EEEEE"
  }
  mangled_function_name: "_ZN7android4hidl7manager4V1_015IServiceManager15listByInterfaceERKNS_8hardware11hidl_stringENSt3__18functionIFvRKNS4_8hidl_vecIS5_EEEEE"
  source_file: "out/soong/.intermediates/system/libhidl/transport/manager/1.0/android.hidl.manager@1.0_genc++_headers/gen/android/hidl/manager/1.0/IServiceManager.h"
  parameters {
    basic_abi {
      type_abi {
        name: "const android::hardware::hidl_string &"
        size: 8
        alignment: 8
      }
      name: "fqName"
      access: public_access
      linker_set_key: "false"
    }
    default_arg: false
  }
  parameters {
    basic_abi {
      type_abi {
        name: "std::function<void (const hidl_vec<hidl_string> &)>"
        size: 48
        alignment: 16
      }
      name: "_hidl_cb"
      access: public_access
      linker_set_key: "false"
    }
    default_arg: false
  }
}
functions {
  basic_abi {
    type_abi {
      name: "android::hardware::Return<bool>"
      size: 40
      alignment: 8
    }
    name: "android::hidl::manager::V1_0::IServiceManager::registerForNotifications"
    access: public_access
    linker_set_key: "_ZN7android4hidl7manager4V1_015IServiceManager24registerForNotificationsERKNS_8hardware11hidl_stringES7_RKNS_2spINS2_20IServiceNotificationEEE"
  }
  mangled_function_name: "_ZN7android4hidl7manager4V1_015IServiceManager24registerForNotificationsERKNS_8hardware11hidl_stringES7_RKNS_2spINS2_20IServiceNotificationEEE"
  source_file: "out/soong/.intermediates/system/libhidl/transport/manager/1.0/android.hidl.manager@1.0_genc++_headers/gen/android/hidl/manager/1.0/IServiceManager.h"
  parameters {
    basic_abi {
      type_abi {
        name: "const android::hardware::hidl_string &"
        size: 8
        alignment: 8
      }
      name: "fqName"
      access: public_access
      linker_set_key: "false"
    }
    default_arg: false
  }
  parameters {
    basic_abi {
      type_abi {
        name: "const android::hardware::hidl_string &"
        size: 8
        alignment: 8
      }
      name: "name"
      access: public_access
      linker_set_key: "false"
    }
    default_arg: false
  }
  parameters {
    basic_abi {
      type_abi {
        name: "const android::sp<android::hidl::manager::V1_0::IServiceNotification> &"
        size: 8
        alignment: 8
      }
      name: "callback"
      access: public_access
      linker_set_key: "false"
    }
    default_arg: false
  }
}
functions {
  basic_abi {
    type_abi {
      name: "android::hardware::Return<void>"
      size: 40
      alignment: 8
    }
    name: "android::hidl::manager::V1_0::IServiceManager::debugDump"
    access: public_access
    linker_set_key: "_ZN7android4hidl7manager4V1_015IServiceManager9debugDumpENSt3__18functionIFvRKNS_8hardware8hidl_vecINS3_17InstanceDebugInfoEEEEEE"
  }
  mangled_function_name: "_ZN7android4hidl7manager4V1_015IServiceManager9debugDumpENSt3__18functionIFvRKNS_8hardware8hidl_vecINS3_17InstanceDebugInfoEEEEEE"
  source_file: "out/soong/.intermediates/system/libhidl/transport/manager/1.0/android.hidl.manager@1.0_genc++_headers/gen/android/hidl/manager/1.0/IServiceManager.h"
  parameters {
    basic_abi {
      type_abi {
        name: "std::function<void (const hidl_vec<InstanceDebugInfo> &)>"
        size: 48
        alignment: 16
      }
      name: "_hidl_cb"
      access: public_access
      linker_set_key: "false"
    }
    default_arg: false
  }
}
functions {
  basic_abi {
    type_abi {
      name: "android::hardware::Return<void>"
      size: 40
      alignment: 8
    }
    name: "android::hidl::manager::V1_0::IServiceManager::registerPassthroughClient"
    access: public_access
    linker_set_key: "_ZN7android4hidl7manager4V1_015IServiceManager25registerPassthroughClientERKNS_8hardware11hidl_stringES7_"
  }
  mangled_function_name: "_ZN7android4hidl7manager4V1_015IServiceManager25registerPassthroughClientERKNS_8hardware11hidl_stringES7_"
  source_file: "out/soong/.intermediates/system/libhidl/transport/manager/1.0/android.hidl.manager@1.0_genc++_headers/gen/android/hidl/manager/1.0/IServiceManager.h"
  parameters {
    basic_abi {
      type_abi {
        name: "const android::hardware::hidl_string &"
        size: 8
        alignment: 8
      }
      name: "fqName"
      access: public_access
      linker_set_key: "false"
    }
    default_arg: false
  }
  parameters {
    basic_abi {
      type_abi {
        name: "const android::hardware::hidl_string &"
        size: 8
        alignment: 8
      }
      name: "name"
      access: public_access
      linker_set_key: "false"
    }
    default_arg: false
  }
}
functions {
  basic_abi {
    type_abi {
      name: "android::hardware::Return<void>"
      size: 40
      alignment: 8
    }
    name: "android::hidl::manager::V1_0::IServiceManager::interfaceChain"
    access: public_access
    linker_set_key: "_ZN7android4hidl7manager4V1_015IServiceManager14interfaceChainENSt3__18functionIFvRKNS_8hardware8hidl_vecINS6_11hidl_stringEEEEEE"
  }
  mangled_function_name: "_ZN7android4hidl7manager4V1_015IServiceManager14interfaceChainENSt3__18functionIFvRKNS_8hardware8hidl_vecINS6_11hidl_stringEEEEEE"
  source_file: "out/soong/.intermediates/system/libhidl/transport/manager/1.0/android.hidl.manager@1.0_genc++_headers/gen/android/hidl/manager/1.0/IServiceManager.h"
  parameters {
    basic_abi {
      type_abi {
        name: "std::function<void (const hidl_vec<hidl_string> &)>"
        size: 48
        alignment: 16
      }
      name: "_hidl_cb"
      access: public_access
      linker_set_key: "false"
    }
    default_arg: false
  }
}
functions {
  basic_abi {
    type_abi {
      name: "android::hardware::Return<void>"
      size: 40
      alignment: 8
    }
    name: "android::hidl::manager::V1_0::IServiceManager::debug"
    access: public_access
    linker_set_key: "_ZN7android4hidl7manager4V1_015IServiceManager5debugERKNS_8hardware11hidl_handleERKNS4_8hidl_vecINS4_11hidl_stringEEE"
  }
  mangled_function_name: "_ZN7android4hidl7manager4V1_015IServiceManager5debugERKNS_8hardware11hidl_handleERKNS4_8hidl_vecINS4_11hidl_stringEEE"
  source_file: "out/soong/.intermediates/system/libhidl/transport/manager/1.0/android.hidl.manager@1.0_genc++_headers/gen/android/hidl/manager/1.0/IServiceManager.h"
  parameters {
    basic_abi {
      type_abi {
        name: "const android::hardware::hidl_handle &"
        size: 8
        alignment: 8
      }
      name: "fd"
      access: public_access
      linker_set_key: "false"
    }
    default_arg: false
  }
  parameters {
    basic_abi {
      type_abi {
        name: "const android::hardware::hidl_vec<android::hardware::hidl_string> &"
        size: 8
        alignment: 8
      }
      name: "options"
      access: public_access
      linker_set_key: "false"
    }
    default_arg: false
  }
}
functions {
  basic_abi {
    type_abi {
      name: "android::hardware::Return<void>"
      size: 40
      alignment: 8
    }
    name: "android::hidl::manager::V1_0::IServiceManager::interfaceDescriptor"
    access: public_access
    linker_set_key: "_ZN7android4hidl7manager4V1_015IServiceManager19interfaceDescriptorENSt3__18functionIFvRKNS_8hardware11hidl_stringEEEE"
  }
  mangled_function_name: "_ZN7android4hidl7manager4V1_015IServiceManager19interfaceDescriptorENSt3__18functionIFvRKNS_8hardware11hidl_stringEEEE"
  source_file: "out/soong/.intermediates/system/libhidl/transport/manager/1.0/android.hidl.manager@1.0_genc++_headers/gen/android/hidl/manager/1.0/IServiceManager.h"
  parameters {
    basic_abi {
      type_abi {
        name: "std::function<void (const hidl_string &)>"
        size: 48
        alignment: 16
      }
      name: "_hidl_cb"
      access: public_access
      linker_set_key: "false"
    }
    default_arg: false
  }
}
functions {
  basic_abi {
    type_abi {
      name: "android::hardware::Return<void>"
      size: 40
      alignment: 8
    }
    name: "android::hidl::manager::V1_0::IServiceManager::getHashChain"
    access: public_access
    linker_set_key: "_ZN7android4hidl7manager4V1_015IServiceManager12getHashChainENSt3__18functionIFvRKNS_8hardware8hidl_vecINS6_10hidl_arrayIhLm32EJEEEEEEEE"
  }
  mangled_function_name: "_ZN7android4hidl7manager4V1_015IServiceManager12getHashChainENSt3__18functionIFvRKNS_8hardware8hidl_vecINS6_10hidl_arrayIhLm32EJEEEEEEEE"
  source_file: "out/soong/.intermediates/system/libhidl/transport/manager/1.0/android.hidl.manager@1.0_genc++_headers/gen/android/hidl/manager/1.0/IServiceManager.h"
  parameters {
    basic_abi {
      type_abi {
        name: "std::function<void (const hidl_vec<hidl_array<unsigned char, 32> > &)>"
      }
      name: "_hidl_cb"
      access: public_access
      linker_set_key: "false"
    }
    default_arg: false
  }
}
functions {
  basic_abi {
    type_abi {
      name: "android::hardware::Return<void>"
      size: 40
      alignment: 8
    }
    name: "android::hidl::manager::V1_0::IServiceManager::setHALInstrumentation"
    access: public_access
    linker_set_key: "_ZN7android4hidl7manager4V1_015IServiceManager21setHALInstrumentationEv"
  }
  mangled_function_name: "_ZN7android4hidl7manager4V1_015IServiceManager21setHALInstrumentationEv"
  source_file: "out/soong/.intermediates/system/libhidl/transport/manager/1.0/android.hidl.manager@1.0_genc++_headers/gen/android/hidl/manager/1.0/IServiceManager.h"
}
functions {
  basic_abi {
    type_abi {
      name: "android::hardware::Return<bool>"
      size: 40
      alignment: 8
    }
    name: "android::hidl::manager::V1_0::IServiceManager::linkToDeath"
    access: public_access
    linker_set_key: "_ZN7android4hidl7manager4V1_015IServiceManager11linkToDeathERKNS_2spINS_8hardware20hidl_death_recipientEEEm"
  }
  mangled_function_name: "_ZN7android4hidl7manager4V1_015IServiceManager11linkToDeathERKNS_2spINS_8hardware20hidl_death_recipientEEEm"
  source_file: "out/soong/.intermediates/system/libhidl/transport/manager/1.0/android.hidl.manager@1.0_genc++_headers/gen/android/hidl/manager/1.0/IServiceManager.h"
  parameters {
    basic_abi {
      type_abi {
        name: "const android::sp<android::hardware::hidl_death_recipient> &"
        size: 8
        alignment: 8
      }
      name: "recipient"
      access: public_access
      linker_set_key: "false"
    }
    default_arg: false
  }
  parameters {
    basic_abi {
      type_abi {
        name: "unsigned long"
        size: 8
        alignment: 8
      }
      name: "cookie"
      access: public_access
      linker_set_key: "false"
    }
    default_arg: false
  }
}
functions {
  basic_abi {
    type_abi {
      name: "android::hardware::Return<void>"
      size: 40
      alignment: 8
    }
    name: "android::hidl::manager::V1_0::IServiceManager::ping"
    access: public_access
    linker_set_key: "_ZN7android4hidl7manager4V1_015IServiceManager4pingEv"
  }
  mangled_function_name: "_ZN7android4hidl7manager4V1_015IServiceManager4pingEv"
  source_file: "out/soong/.intermediates/system/libhidl/transport/manager/1.0/android.hidl.manager@1.0_genc++_headers/gen/android/hidl/manager/1.0/IServiceManager.h"
}
functions {
  basic_abi {
    type_abi {
      name: "android::hardware::Return<void>"
      size: 40
      alignment: 8
    }
    name: "android::hidl::manager::V1_0::IServiceManager::getDebugInfo"
    access: public_access
    linker_set_key: "_ZN7android4hidl7manager4V1_015IServiceManager12getDebugInfoENSt3__18functionIFvRKNS0_4base4V1_09DebugInfoEEEE"
  }
  mangled_function_name: "_ZN7android4hidl7manager4V1_015IServiceManager12getDebugInfoENSt3__18functionIFvRKNS0_4base4V1_09DebugInfoEEEE"
  source_file: "out/soong/.intermediates/system/libhidl/transport/manager/1.0/android.hidl.manager@1.0_genc++_headers/gen/android/hidl/manager/1.0/IServiceManager.h"
  parameters {
    basic_abi {
      type_abi {
        name: "std::function<void (const DebugInfo &)>"
      }
      name: "_hidl_cb"
      access: public_access
      linker_set_key: "false"
    }
    default_arg: false
  }
}
functions {
  basic_abi {
    type_abi {
      name: "android::hardware::Return<void>"
      size: 40
      alignment: 8
    }
    name: "android::hidl::manager::V1_0::IServiceManager::notifySyspropsChanged"
    access: public_access
    linker_set_key: "_ZN7android4hidl7manager4V1_015IServiceManager21notifySyspropsChangedEv"
  }
  mangled_function_name: "_ZN7android4hidl7manager4V1_015IServiceManager21notifySyspropsChangedEv"
  source_file: "out/soong/.intermediates/system/libhidl/transport/manager/1.0/android.hidl.manager@1.0_genc++_headers/gen/android/hidl/manager/1.0/IServiceManager.h"
}
functions {
  basic_abi {
    type_abi {
      name: "android::hardware::Return<bool>"
      size: 40
      alignment: 8
    }
    name: "android::hidl::manager::V1_0::IServiceManager::unlinkToDeath"
    access: public_access
    linker_set_key: "_ZN7android4hidl7manager4V1_015IServiceManager13unlinkToDeathERKNS_2spINS_8hardware20hidl_death_recipientEEE"
  }
  mangled_function_name: "_ZN7android4hidl7manager4V1_015IServiceManager13unlinkToDeathERKNS_2spINS_8hardware20hidl_death_recipientEEE"
  source_file: "out/soong/.intermediates/system/libhidl/transport/manager/1.0/android.hidl.manager@1.0_genc++_headers/gen/android/hidl/manager/1.0/IServiceManager.h"
  parameters {
    basic_abi {
      type_abi {
        name: "const android::sp<android::hardware::hidl_death_recipient> &"
        size: 8
        alignment: 8
      }
      name: "recipient"
      access: public_access
      linker_set_key: "false"
    }
    default_arg: false
  }
}
functions {
  basic_abi {
    type_abi {
      name: "android::hardware::Return<android::sp<android::hidl::manager::V1_0::IServiceManager> >"
    }
    name: "android::hidl::manager::V1_0::IServiceManager::castFrom"
    access: public_access
    linker_set_key: "_ZN7android4hidl7manager4V1_015IServiceManager8castFromERKNS_2spIS3_EEb"
  }
  mangled_function_name: "_ZN7android4hidl7manager4V1_015IServiceManager8castFromERKNS_2spIS3_EEb"
  source_file: "out/soong/.intermediates/system/libhidl/transport/manager/1.0/android.hidl.manager@1.0_genc++_headers/gen/android/hidl/manager/1.0/IServiceManager.h"
  parameters {
    basic_abi {
      type_abi {
        name: "const android::sp<android::hidl::manager::V1_0::IServiceManager> &"
        size: 8
        alignment: 8
      }
      name: "parent"
      access: public_access
      linker_set_key: "false"
    }
    default_arg: false
  }
  parameters {
    basic_abi {
      type_abi {
        name: "bool"
        size: 1
        alignment: 1
      }
      name: "emitError"
      access: public_access
      linker_set_key: "true"
    }
    default_arg: true
  }
}
functions {
  basic_abi {
    type_abi {
      name: "android::hardware::Return<android::sp<android::hidl::manager::V1_0::IServiceManager> >"
    }
    name: "android::hidl::manager::V1_0::IServiceManager::castFrom"
    access: public_access
    linker_set_key: "_ZN7android4hidl7manager4V1_015IServiceManager8castFromERKNS_2spINS0_4base4V1_05IBaseEEEb"
  }
  mangled_function_name: "_ZN7android4hidl7manager4V1_015IServiceManager8castFromERKNS_2spINS0_4base4V1_05IBaseEEEb"
  source_file: "out/soong/.intermediates/system/libhidl/transport/manager/1.0/android.hidl.manager@1.0_genc++_headers/gen/android/hidl/manager/1.0/IServiceManager.h"
  parameters {
    basic_abi {
      type_abi {
        name: "const android::sp<android::hidl::base::V1_0::IBase> &"
        size: 8
        alignment: 8
      }
      name: "parent"
      access: public_access
      linker_set_key: "false"
    }
    default_arg: false
  }
  parameters {
    basic_abi {
      type_abi {
        name: "bool"
        size: 1
        alignment: 1
      }
      name: "emitError"
      access: public_access
      linker_set_key: "true"
    }
    default_arg: true
  }
}
functions {
  basic_abi {
    type_abi {
      name: "android::sp<android::hidl::manager::V1_0::IServiceManager>"
      size: 8
      alignment: 8
    }
    name: "android::hidl::manager::V1_0::IServiceManager::tryGetService"
    access: public_access
    linker_set_key: "_ZN7android4hidl7manager4V1_015IServiceManager13tryGetServiceERKNSt3__112basic_stringIcNS4_11char_traitsIcEENS4_9allocatorIcEEEEb"
  }
  mangled_function_name: "_ZN7android4hidl7manager4V1_015IServiceManager13tryGetServiceERKNSt3__112basic_stringIcNS4_11char_traitsIcEENS4_9allocatorIcEEEEb"
  source_file: "out/soong/.intermediates/system/libhidl/transport/manager/1.0/android.hidl.manager@1.0_genc++_headers/gen/android/hidl/manager/1.0/IServiceManager.h"
  parameters {
    basic_abi {
      type_abi {
        name: "const std::basic_string<char, std::char_traits<char>, std::allocator<char> > &"
        size: 8
        alignment: 8
      }
      name: "serviceName"
      access: public_access
      linker_set_key: "true"
    }
    default_arg: true
  }
  parameters {
    basic_abi {
      type_abi {
        name: "bool"
        size: 1
        alignment: 1
      }
      name: "getStub"
      access: public_access
      linker_set_key: "true"
    }
    default_arg: true
  }
}
functions {
  basic_abi {
    type_abi {
      name: "android::sp<android::hidl::manager::V1_0::IServiceManager>"
      size: 8
      alignment: 8
    }
    name: "android::hidl::manager::V1_0::IServiceManager::tryGetService"
    access: public_access
    linker_set_key: "_ZN7android4hidl7manager4V1_015IServiceManager13tryGetServiceEPKcb"
  }
  mangled_function_name: "_ZN7android4hidl7manager4V1_015IServiceManager13tryGetServiceEPKcb"
  source_file: "out/soong/.intermediates/system/libhidl/transport/manager/1.0/android.hidl.manager@1.0_genc++_headers/gen/android/hidl/manager/1.0/IServiceManager.h"
  parameters {
    basic_abi {
      type_abi {
        name: "const char *"
        size: 8
        alignment: 8
      }
      name: "serviceName"
      access: public_access
      linker_set_key: "false"
    }
    default_arg: false
  }
  parameters {
    basic_abi {
      type_abi {
        name: "bool"
        size: 1
        alignment: 1
      }
      name: "getStub"
      access: public_access
      linker_set_key: "true"
    }
    default_arg: true
  }
}
functions {
  basic_abi {
    type_abi {
      name: "android::sp<android::hidl::manager::V1_0::IServiceManager>"
      size: 8
      alignment: 8
    }
    name: "android::hidl::manager::V1_0::IServiceManager::tryGetService"
    access: public_access
    linker_set_key: "_ZN7android4hidl7manager4V1_015IServiceManager13tryGetServiceERKNS_8hardware11hidl_stringEb"
  }
  mangled_function_name: "_ZN7android4hidl7manager4V1_015IServiceManager13tryGetServiceERKNS_8hardware11hidl_stringEb"
  source_file: "out/soong/.intermediates/system/libhidl/transport/manager/1.0/android.hidl.manager@1.0_genc++_headers/gen/android/hidl/manager/1.0/IServiceManager.h"
  parameters {
    basic_abi {
      type_abi {
        name: "const android::hardware::hidl_string &"
        size: 8
        alignment: 8
      }
      name: "serviceName"
      access: public_access
      linker_set_key: "false"
    }
    default_arg: false
  }
  parameters {
    basic_abi {
      type_abi {
        name: "bool"
        size: 1
        alignment: 1
      }
      name: "getStub"
      access: public_access
      linker_set_key: "true"
    }
    default_arg: true
  }
}
functions {
  basic_abi {
    type_abi {
      name: "android::sp<android::hidl::manager::V1_0::IServiceManager>"
      size: 8
      alignment: 8
    }
    name: "android::hidl::manager::V1_0::IServiceManager::tryGetService"
    access: public_access
    linker_set_key: "_ZN7android4hidl7manager4V1_015IServiceManager13tryGetServiceEb"
  }
  mangled_function_name: "_ZN7android4hidl7manager4V1_015IServiceManager13tryGetServiceEb"
  source_file: "out/soong/.intermediates/system/libhidl/transport/manager/1.0/android.hidl.manager@1.0_genc++_headers/gen/android/hidl/manager/1.0/IServiceManager.h"
  parameters {
    basic_abi {
      type_abi {
        name: "bool"
        size: 1
        alignment: 1
      }
      name: "getStub"
      access: public_access
      linker_set_key: "false"
    }
    default_arg: false
  }
}
functions {
  basic_abi {
    type_abi {
      name: "android::sp<android::hidl::manager::V1_0::IServiceManager>"
      size: 8
      alignment: 8
    }
    name: "android::hidl::manager::V1_0::IServiceManager::getService"
    access: public_access
    linker_set_key: "_ZN7android4hidl7manager4V1_015IServiceManager10getServiceERKNSt3__112basic_stringIcNS4_11char_traitsIcEENS4_9allocatorIcEEEEb"
  }
  mangled_function_name: "_ZN7android4hidl7manager4V1_015IServiceManager10getServiceERKNSt3__112basic_stringIcNS4_11char_traitsIcEENS4_9allocatorIcEEEEb"
  source_file: "out/soong/.intermediates/system/libhidl/transport/manager/1.0/android.hidl.manager@1.0_genc++_headers/gen/android/hidl/manager/1.0/IServiceManager.h"
  parameters {
    basic_abi {
      type_abi {
        name: "const std::basic_string<char, std::char_traits<char>, std::allocator<char> > &"
        size: 8
        alignment: 8
      }
      name: "serviceName"
      access: public_access
      linker_set_key: "true"
    }
    default_arg: true
  }
  parameters {
    basic_abi {
      type_abi {
        name: "bool"
        size: 1
        alignment: 1
      }
      name: "getStub"
      access: public_access
      linker_set_key: "true"
    }
    default_arg: true
  }
}
functions {
  basic_abi {
    type_abi {
      name: "android::sp<android::hidl::manager::V1_0::IServiceManager>"
      size: 8
      alignment: 8
    }
    name: "android::hidl::manager::V1_0::IServiceManager::getService"
    access: public_access
    linker_set_key: "_ZN7android4hidl7manager4V1_015IServiceManager10getServiceEPKcb"
  }
  mangled_function_name: "_ZN7android4hidl7manager4V1_015IServiceManager10getServiceEPKcb"
  source_file: "out/soong/.intermediates/system/libhidl/transport/manager/1.0/android.hidl.manager@1.0_genc++_headers/gen/android/hidl/manager/1.0/IServiceManager.h"
  parameters {
    basic_abi {
      type_abi {
        name: "const char *"
        size: 8
        alignment: 8
      }
      name: "serviceName"
      access: public_access
      linker_set_key: "false"
    }
    default_arg: false
  }
  parameters {
    basic_abi {
      type_abi {
        name: "bool"
        size: 1
        alignment: 1
      }
      name: "getStub"
      access: public_access
      linker_set_key: "true"
    }
    default_arg: true
  }
}
functions {
  basic_abi {
    type_abi {
      name: "android::sp<android::hidl::manager::V1_0::IServiceManager>"
      size: 8
      alignment: 8
    }
    name: "android::hidl::manager::V1_0::IServiceManager::getService"
    access: public_access
    linker_set_key: "_ZN7android4hidl7manager4V1_015IServiceManager10getServiceERKNS_8hardware11hidl_stringEb"
  }
  mangled_function_name: "_ZN7android4hidl7manager4V1_015IServiceManager10getServiceERKNS_8hardware11hidl_stringEb"
  source_file: "out/soong/.intermediates/system/libhidl/transport/manager/1.0/android.hidl.manager@1.0_genc++_headers/gen/android/hidl/manager/1.0/IServiceManager.h"
  parameters {
    basic_abi {
      type_abi {
        name: "const android::hardware::hidl_string &"
        size: 8
        alignment: 8
      }
      name: "serviceName"
      access: public_access
      linker_set_key: "false"
    }
    default_arg: false
  }
  parameters {
    basic_abi {
      type_abi {
        name: "bool"
        size: 1
        alignment: 1
      }
      name: "getStub"
      access: public_access
      linker_set_key: "true"
    }
    default_arg: true
  }
}
functions {
  basic_abi {
    type_abi {
      name: "android::sp<android::hidl::manager::V1_0::IServiceManager>"
      size: 8
      alignment: 8
    }
    name: "android::hidl::manager::V1_0::IServiceManager::getService"
    access: public_access
    linker_set_key: "_ZN7android4hidl7manager4V1_015IServiceManager10getServiceEb"
  }
  mangled_function_name: "_ZN7android4hidl7manager4V1_015IServiceManager10getServiceEb"
  source_file: "out/soong/.intermediates/system/libhidl/transport/manager/1.0/android.hidl.manager@1.0_genc++_headers/gen/android/hidl/manager/1.0/IServiceManager.h"
  parameters {
    basic_abi {
      type_abi {
        name: "bool"
        size: 1
        alignment: 1
      }
      name: "getStub"
      access: public_access
      linker_set_key: "false"
    }
    default_arg: false
  }
}
functions {
  basic_abi {
    type_abi {
      name: "int"
      size: 4
      alignment: 4
    }
    name: "android::hidl::manager::V1_0::IServiceManager::registerAsService"
    access: public_access
    linker_set_key: "_ZN7android4hidl7manager4V1_015IServiceManager17registerAsServiceERKNSt3__112basic_stringIcNS4_11char_traitsIcEENS4_9allocatorIcEEEE"
  }
  mangled_function_name: "_ZN7android4hidl7manager4V1_015IServiceManager17registerAsServiceERKNSt3__112basic_stringIcNS4_11char_traitsIcEENS4_9allocatorIcEEEE"
  source_file: "out/soong/.intermediates/system/libhidl/transport/manager/1.0/android.hidl.manager@1.0_genc++_headers/gen/android/hidl/manager/1.0/IServiceManager.h"
  parameters {
    basic_abi {
      type_abi {
        name: "const std::basic_string<char, std::char_traits<char>, std::allocator<char> > &"
        size: 8
        alignment: 8
      }
      name: "serviceName"
      access: public_access
      linker_set_key: "true"
    }
    default_arg: true
  }
}
functions {
  basic_abi {
    type_abi {
      name: "bool"
      size: 1
      alignment: 1
    }
    name: "android::hidl::manager::V1_0::IServiceManager::registerForNotifications"
    access: public_access
    linker_set_key: "_ZN7android4hidl7manager4V1_015IServiceManager24registerForNotificationsERKNSt3__112basic_stringIcNS4_11char_traitsIcEENS4_9allocatorIcEEEERKNS_2spINS2_20IServiceNotificationEEE"
  }
  mangled_function_name: "_ZN7android4hidl7manager4V1_015IServiceManager24registerForNotificationsERKNSt3__112basic_stringIcNS4_11char_traitsIcEENS4_9allocatorIcEEEERKNS_2spINS2_20IServiceNotificationEEE"
  source_file: "out/soong/.intermediates/system/libhidl/transport/manager/1.0/android.hidl.manager@1.0_genc++_headers/gen/android/hidl/manager/1.0/IServiceManager.h"
  parameters {
    basic_abi {
      type_abi {
        name: "const std::basic_string<char, std::char_traits<char>, std::allocator<char> > &"
        size: 8
        alignment: 8
      }
      name: "serviceName"
      access: public_access
      linker_set_key: "false"
    }
    default_arg: false
  }
  parameters {
    basic_abi {
      type_abi {
        name: "const android::sp<android::hidl::manager::V1_0::IServiceNotification> &"
        size: 8
        alignment: 8
      }
      name: "notification"
      access: public_access
      linker_set_key: "false"
    }
    default_arg: false
  }
}
functions {
  basic_abi {
    type_abi {
      name: "unsigned char"
      size: 1
      alignment: 1
    }
    name: "android::hidl::manager::V1_0::operator|"
    access: public_access
    linker_set_key: "_ZN7android4hidl7manager4V1_0orENS2_15IServiceManager9TransportES4_"
  }
  mangled_function_name: "_ZN7android4hidl7manager4V1_0orENS2_15IServiceManager9TransportES4_"
  source_file: "out/soong/.intermediates/system/libhidl/transport/manager/1.0/android.hidl.manager@1.0_genc++_headers/gen/android/hidl/manager/1.0/IServiceManager.h"
  parameters {
    basic_abi {
      type_abi {
        name: "const android::hidl::manager::V1_0::IServiceManager::Transport"
        size: 1
        alignment: 1
      }
      name: "lhs"
      access: public_access
      linker_set_key: "false"
    }
    default_arg: false
  }
  parameters {
    basic_abi {
      type_abi {
        name: "const android::hidl::manager::V1_0::IServiceManager::Transport"
        size: 1
        alignment: 1
      }
      name: "rhs"
      access: public_access
      linker_set_key: "false"
    }
    default_arg: false
  }
}
functions {
  basic_abi {
    type_abi {
      name: "unsigned char"
      size: 1
      alignment: 1
    }
    name: "android::hidl::manager::V1_0::operator|"
    access: public_access
    linker_set_key: "_ZN7android4hidl7manager4V1_0orEhNS2_15IServiceManager9TransportE"
  }
  mangled_function_name: "_ZN7android4hidl7manager4V1_0orEhNS2_15IServiceManager9TransportE"
  source_file: "out/soong/.intermediates/system/libhidl/transport/manager/1.0/android.hidl.manager@1.0_genc++_headers/gen/android/hidl/manager/1.0/IServiceManager.h"
  parameters {
    basic_abi {
      type_abi {
        name: "const unsigned char"
        size: 1
        alignment: 1
      }
      name: "lhs"
      access: public_access
      linker_set_key: "false"
    }
    default_arg: false
  }
  parameters {
    basic_abi {
      type_abi {
        name: "const android::hidl::manager::V1_0::IServiceManager::Transport"
        size: 1
        alignment: 1
      }
      name: "rhs"
      access: public_access
      linker_set_key: "false"
    }
    default_arg: false
  }
}
functions {
  basic_abi {
    type_abi {
      name: "unsigned char"
      size: 1
      alignment: 1
    }
    name: "android::hidl::manager::V1_0::operator|"
    access: public_access
    linker_set_key: "_ZN7android4hidl7manager4V1_0orENS2_15IServiceManager9TransportEh"
  }
  mangled_function_name: "_ZN7android4hidl7manager4V1_0orENS2_15IServiceManager9TransportEh"
  source_file: "out/soong/.intermediates/system/libhidl/transport/manager/1.0/android.hidl.manager@1.0_genc++_headers/gen/android/hidl/manager/1.0/IServiceManager.h"
  parameters {
    basic_abi {
      type_abi {
        name: "const android::hidl::manager::V1_0::IServiceManager::Transport"
        size: 1
        alignment: 1
      }
      name: "lhs"
      access: public_access
      linker_set_key: "false"
    }
    default_arg: false
  }
  parameters {
    basic_abi {
      type_abi {
        name: "const unsigned char"
        size: 1
        alignment: 1
      }
      name: "rhs"
      access: public_access
      linker_set_key: "false"
    }
    default_arg: false
  }
}
functions {
  basic_abi {
    type_abi {
      name: "unsigned char"
      size: 1
      alignment: 1
    }
    name: "android::hidl::manager::V1_0::operator&"
    access: public_access
    linker_set_key: "_ZN7android4hidl7manager4V1_0anENS2_15IServiceManager9TransportES4_"
  }
  mangled_function_name: "_ZN7android4hidl7manager4V1_0anENS2_15IServiceManager9TransportES4_"
  source_file: "out/soong/.intermediates/system/libhidl/transport/manager/1.0/android.hidl.manager@1.0_genc++_headers/gen/android/hidl/manager/1.0/IServiceManager.h"
  parameters {
    basic_abi {
      type_abi {
        name: "const android::hidl::manager::V1_0::IServiceManager::Transport"
        size: 1
        alignment: 1
      }
      name: "lhs"
      access: public_access
      linker_set_key: "false"
    }
    default_arg: false
  }
  parameters {
    basic_abi {
      type_abi {
        name: "const android::hidl::manager::V1_0::IServiceManager::Transport"
        size: 1
        alignment: 1
      }
      name: "rhs"
      access: public_access
      linker_set_key: "false"
    }
    default_arg: false
  }
}
functions {
  basic_abi {
    type_abi {
      name: "unsigned char"
      size: 1
      alignment: 1
    }
    name: "android::hidl::manager::V1_0::operator&"
    access: public_access
    linker_set_key: "_ZN7android4hidl7manager4V1_0anEhNS2_15IServiceManager9TransportE"
  }
  mangled_function_name: "_ZN7android4hidl7manager4V1_0anEhNS2_15IServiceManager9TransportE"
  source_file: "out/soong/.intermediates/system/libhidl/transport/manager/1.0/android.hidl.manager@1.0_genc++_headers/gen/android/hidl/manager/1.0/IServiceManager.h"
  parameters {
    basic_abi {
      type_abi {
        name: "const unsigned char"
        size: 1
        alignment: 1
      }
      name: "lhs"
      access: public_access
      linker_set_key: "false"
    }
    default_arg: false
  }
  parameters {
    basic_abi {
      type_abi {
        name: "const android::hidl::manager::V1_0::IServiceManager::Transport"
        size: 1
        alignment: 1
      }
      name: "rhs"
      access: public_access
      linker_set_key: "false"
    }
    default_arg: false
  }
}
functions {
  basic_abi {
    type_abi {
      name: "unsigned char"
      size: 1
      alignment: 1
    }
    name: "android::hidl::manager::V1_0::operator&"
    access: public_access
    linker_set_key: "_ZN7android4hidl7manager4V1_0anENS2_15IServiceManager9TransportEh"
  }
  mangled_function_name: "_ZN7android4hidl7manager4V1_0anENS2_15IServiceManager9TransportEh"
  source_file: "out/soong/.intermediates/system/libhidl/transport/manager/1.0/android.hidl.manager@1.0_genc++_headers/gen/android/hidl/manager/1.0/IServiceManager.h"
  parameters {
    basic_abi {
      type_abi {
        name: "const android::hidl::manager::V1_0::IServiceManager::Transport"
        size: 1
        alignment: 1
      }
      name: "lhs"
      access: public_access
      linker_set_key: "false"
    }
    default_arg: false
  }
  parameters {
    basic_abi {
      type_abi {
        name: "const unsigned char"
        size: 1
        alignment: 1
      }
      name: "rhs"
      access: public_access
      linker_set_key: "false"
    }
    default_arg: false
  }
}
functions {
  basic_abi {
    type_abi {
      name: "unsigned char &"
      size: 8
      alignment: 8
    }
    name: "android::hidl::manager::V1_0::operator|="
    access: public_access
    linker_set_key: "_ZN7android4hidl7manager4V1_0oRERhNS2_15IServiceManager9TransportE"
  }
  mangled_function_name: "_ZN7android4hidl7manager4V1_0oRERhNS2_15IServiceManager9TransportE"
  source_file: "out/soong/.intermediates/system/libhidl/transport/manager/1.0/android.hidl.manager@1.0_genc++_headers/gen/android/hidl/manager/1.0/IServiceManager.h"
  parameters {
    basic_abi {
      type_abi {
        name: "unsigned char &"
        size: 8
        alignment: 8
      }
      name: "v"
      access: public_access
      linker_set_key: "false"
    }
    default_arg: false
  }
  parameters {
    basic_abi {
      type_abi {
        name: "const android::hidl::manager::V1_0::IServiceManager::Transport"
        size: 1
        alignment: 1
      }
      name: "e"
      access: public_access
      linker_set_key: "false"
    }
    default_arg: false
  }
}
functions {
  basic_abi {
    type_abi {
      name: "unsigned char &"
      size: 8
      alignment: 8
    }
    name: "android::hidl::manager::V1_0::operator&="
    access: public_access
    linker_set_key: "_ZN7android4hidl7manager4V1_0aNERhNS2_15IServiceManager9TransportE"
  }
  mangled_function_name: "_ZN7android4hidl7manager4V1_0aNERhNS2_15IServiceManager9TransportE"
  source_file: "out/soong/.intermediates/system/libhidl/transport/manager/1.0/android.hidl.manager@1.0_genc++_headers/gen/android/hidl/manager/1.0/IServiceManager.h"
  parameters {
    basic_abi {
      type_abi {
        name: "unsigned char &"
        size: 8
        alignment: 8
      }
      name: "v"
      access: public_access
      linker_set_key: "false"
    }
    default_arg: false
  }
  parameters {
    basic_abi {
      type_abi {
        name: "const android::hidl::manager::V1_0::IServiceManager::Transport"
        size: 1
        alignment: 1
      }
      name: "e"
      access: public_access
      linker_set_key: "false"
    }
    default_arg: false
  }
}
functions {
  basic_abi {
    type_abi {
      name: "std::basic_string<char, std::char_traits<char>, std::allocator<char> >"
      size: 24
      alignment: 8
    }
    name: "android::hidl::manager::V1_0::toString"
    access: public_access
    linker_set_key: "_ZN7android4hidl7manager4V1_08toStringEh"
  }
  mangled_function_name: "_ZN7android4hidl7manager4V1_08toStringEh"
  source_file: "out/soong/.intermediates/system/libhidl/transport/manager/1.0/android.hidl.manager@1.0_genc++_headers/gen/android/hidl/manager/1.0/IServiceManager.h"
  parameters {
    basic_abi {
      type_abi {
        name: "unsigned char"
        size: 1
        alignment: 1
      }
      name: "o"
      access: public_access
      linker_set_key: "false"
    }
    default_arg: false
  }
  template_info {
    elements {
      basic_abi {
        name: ""
        linker_set_key: ""
      }
    }
  }
}
functions {
  basic_abi {
    type_abi {
      name: "std::basic_string<char, std::char_traits<char>, std::allocator<char> >"
      size: 24
      alignment: 8
    }
    name: "android::hidl::manager::V1_0::toString"
    access: public_access
    linker_set_key: "_ZN7android4hidl7manager4V1_08toStringINS2_15IServiceManager9TransportEEENSt3__112basic_stringIcNS6_11char_traitsIcEENS6_9allocatorIcEEEEh"
  }
  mangled_function_name: "_ZN7android4hidl7manager4V1_08toStringINS2_15IServiceManager9TransportEEENSt3__112basic_stringIcNS6_11char_traitsIcEENS6_9allocatorIcEEEEh"
  source_file: "out/soong/.intermediates/system/libhidl/transport/manager/1.0/android.hidl.manager@1.0_genc++_headers/gen/android/hidl/manager/1.0/IServiceManager.h"
  parameters {
    basic_abi {
      type_abi {
        name: "unsigned char"
        size: 1
        alignment: 1
      }
      name: "o"
      access: public_access
      linker_set_key: "false"
    }
    default_arg: false
  }
  template_info {
    elements {
      basic_abi {
        type_abi {
          name: "android::hidl::manager::V1_0::IServiceManager::Transport"
          size: 1
          alignment: 1
        }
        linker_set_key: "android::hidl::manager::V1_0::IServiceManager::Transport"
      }
    }
  }
}
functions {
  basic_abi {
    type_abi {
      name: "std::basic_string<char, std::char_traits<char>, std::allocator<char> >"
      size: 24
      alignment: 8
    }
    name: "android::hidl::manager::V1_0::toString"
    access: public_access
    linker_set_key: "_ZN7android4hidl7manager4V1_08toStringENS2_15IServiceManager9TransportE"
  }
  mangled_function_name: "_ZN7android4hidl7manager4V1_08toStringENS2_15IServiceManager9TransportE"
  source_file: "out/soong/.intermediates/system/libhidl/transport/manager/1.0/android.hidl.manager@1.0_genc++_headers/gen/android/hidl/manager/1.0/IServiceManager.h"
  parameters {
    basic_abi {
      type_abi {
        name: "android::hidl::manager::V1_0::IServiceManager::Transport"
        size: 1
        alignment: 1
      }
      name: "o"
      access: public_access
      linker_set_key: "false"
    }
    default_arg: false
  }
}
functions {
  basic_abi {
    type_abi {
      name: "int"
      size: 4
      alignment: 4
    }
    name: "android::hidl::manager::V1_0::operator|"
    access: public_access
    linker_set_key: "_ZN7android4hidl7manager4V1_0orENS2_15IServiceManager11PidConstantES4_"
  }
  mangled_function_name: "_ZN7android4hidl7manager4V1_0orENS2_15IServiceManager11PidConstantES4_"
  source_file: "out/soong/.intermediates/system/libhidl/transport/manager/1.0/android.hidl.manager@1.0_genc++_headers/gen/android/hidl/manager/1.0/IServiceManager.h"
  parameters {
    basic_abi {
      type_abi {
        name: "const android::hidl::manager::V1_0::IServiceManager::PidConstant"
        size: 4
        alignment: 4
      }
      name: "lhs"
      access: public_access
      linker_set_key: "false"
    }
    default_arg: false
  }
  parameters {
    basic_abi {
      type_abi {
        name: "const android::hidl::manager::V1_0::IServiceManager::PidConstant"
        size: 4
        alignment: 4
      }
      name: "rhs"
      access: public_access
      linker_set_key: "false"
    }
    default_arg: false
  }
}
functions {
  basic_abi {
    type_abi {
      name: "int"
      size: 4
      alignment: 4
    }
    name: "android::hidl::manager::V1_0::operator|"
    access: public_access
    linker_set_key: "_ZN7android4hidl7manager4V1_0orEiNS2_15IServiceManager11PidConstantE"
  }
  mangled_function_name: "_ZN7android4hidl7manager4V1_0orEiNS2_15IServiceManager11PidConstantE"
  source_file: "out/soong/.intermediates/system/libhidl/transport/manager/1.0/android.hidl.manager@1.0_genc++_headers/gen/android/hidl/manager/1.0/IServiceManager.h"
  parameters {
    basic_abi {
      type_abi {
        name: "const int"
        size: 4
        alignment: 4
      }
      name: "lhs"
      access: public_access
      linker_set_key: "false"
    }
    default_arg: false
  }
  parameters {
    basic_abi {
      type_abi {
        name: "const android::hidl::manager::V1_0::IServiceManager::PidConstant"
        size: 4
        alignment: 4
      }
      name: "rhs"
      access: public_access
      linker_set_key: "false"
    }
    default_arg: false
  }
}
functions {
  basic_abi {
    type_abi {
      name: "int"
      size: 4
      alignment: 4
    }
    name: "android::hidl::manager::V1_0::operator|"
    access: public_access
    linker_set_key: "_ZN7android4hidl7manager4V1_0orENS2_15IServiceManager11PidConstantEi"
  }
  mangled_function_name: "_ZN7android4hidl7manager4V1_0orENS2_15IServiceManager11PidConstantEi"
  source_file: "out/soong/.intermediates/system/libhidl/transport/manager/1.0/android.hidl.manager@1.0_genc++_headers/gen/android/hidl/manager/1.0/IServiceManager.h"
  parameters {
    basic_abi {
      type_abi {
        name: "const android::hidl::manager::V1_0::IServiceManager::PidConstant"
        size: 4
        alignment: 4
      }
      name: "lhs"
      access: public_access
      linker_set_key: "false"
    }
    default_arg: false
  }
  parameters {
    basic_abi {
      type_abi {
        name: "const int"
        size: 4
        alignment: 4
      }
      name: "rhs"
      access: public_access
      linker_set_key: "false"
    }
    default_arg: false
  }
}
functions {
  basic_abi {
    type_abi {
      name: "int"
      size: 4
      alignment: 4
    }
    name: "android::hidl::manager::V1_0::operator&"
    access: public_access
    linker_set_key: "_ZN7android4hidl7manager4V1_0anENS2_15IServiceManager11PidConstantES4_"
  }
  mangled_function_name: "_ZN7android4hidl7manager4V1_0anENS2_15IServiceManager11PidConstantES4_"
  source_file: "out/soong/.intermediates/system/libhidl/transport/manager/1.0/android.hidl.manager@1.0_genc++_headers/gen/android/hidl/manager/1.0/IServiceManager.h"
  parameters {
    basic_abi {
      type_abi {
        name: "const android::hidl::manager::V1_0::IServiceManager::PidConstant"
        size: 4
        alignment: 4
      }
      name: "lhs"
      access: public_access
      linker_set_key: "false"
    }
    default_arg: false
  }
  parameters {
    basic_abi {
      type_abi {
        name: "const android::hidl::manager::V1_0::IServiceManager::PidConstant"
        size: 4
        alignment: 4
      }
      name: "rhs"
      access: public_access
      linker_set_key: "false"
    }
    default_arg: false
  }
}
functions {
  basic_abi {
    type_abi {
      name: "int"
      size: 4
      alignment: 4
    }
    name: "android::hidl::manager::V1_0::operator&"
    access: public_access
    linker_set_key: "_ZN7android4hidl7manager4V1_0anEiNS2_15IServiceManager11PidConstantE"
  }
  mangled_function_name: "_ZN7android4hidl7manager4V1_0anEiNS2_15IServiceManager11PidConstantE"
  source_file: "out/soong/.intermediates/system/libhidl/transport/manager/1.0/android.hidl.manager@1.0_genc++_headers/gen/android/hidl/manager/1.0/IServiceManager.h"
  parameters {
    basic_abi {
      type_abi {
        name: "const int"
        size: 4
        alignment: 4
      }
      name: "lhs"
      access: public_access
      linker_set_key: "false"
    }
    default_arg: false
  }
  parameters {
    basic_abi {
      type_abi {
        name: "const android::hidl::manager::V1_0::IServiceManager::PidConstant"
        size: 4
        alignment: 4
      }
      name: "rhs"
      access: public_access
      linker_set_key: "false"
    }
    default_arg: false
  }
}
functions {
  basic_abi {
    type_abi {
      name: "int"
      size: 4
      alignment: 4
    }
    name: "android::hidl::manager::V1_0::operator&"
    access: public_access
    linker_set_key: "_ZN7android4hidl7manager4V1_0anENS2_15IServiceManager11PidConstantEi"
  }
  mangled_function_name: "_ZN7android4hidl7manager4V1_0anENS2_15IServiceManager11PidConstantEi"
  source_file: "out/soong/.intermediates/system/libhidl/transport/manager/1.0/android.hidl.manager@1.0_genc++_headers/gen/android/hidl/manager/1.0/IServiceManager.h"
  parameters {
    basic_abi {
      type_abi {
        name: "const android::hidl::manager::V1_0::IServiceManager::PidConstant"
        size: 4
        alignment: 4
      }
      name: "lhs"
      access: public_access
      linker_set_key: "false"
    }
    default_arg: false
  }
  parameters {
    basic_abi {
      type_abi {
        name: "const int"
        size: 4
        alignment: 4
      }
      name: "rhs"
      access: public_access
      linker_set_key: "false"
    }
    default_arg: false
  }
}
functions {
  basic_abi {
    type_abi {
      name: "int &"
      size: 8
      alignment: 8
    }
    name: "android::hidl::manager::V1_0::operator|="
    access: public_access
    linker_set_key: "_ZN7android4hidl7manager4V1_0oRERiNS2_15IServiceManager11PidConstantE"
  }
  mangled_function_name: "_ZN7android4hidl7manager4V1_0oRERiNS2_15IServiceManager11PidConstantE"
  source_file: "out/soong/.intermediates/system/libhidl/transport/manager/1.0/android.hidl.manager@1.0_genc++_headers/gen/android/hidl/manager/1.0/IServiceManager.h"
  parameters {
    basic_abi {
      type_abi {
        name: "int &"
        size: 8
        alignment: 8
      }
      name: "v"
      access: public_access
      linker_set_key: "false"
    }
    default_arg: false
  }
  parameters {
    basic_abi {
      type_abi {
        name: "const android::hidl::manager::V1_0::IServiceManager::PidConstant"
        size: 4
        alignment: 4
      }
      name: "e"
      access: public_access
      linker_set_key: "false"
    }
    default_arg: false
  }
}
functions {
  basic_abi {
    type_abi {
      name: "int &"
      size: 8
      alignment: 8
    }
    name: "android::hidl::manager::V1_0::operator&="
    access: public_access
    linker_set_key: "_ZN7android4hidl7manager4V1_0aNERiNS2_15IServiceManager11PidConstantE"
  }
  mangled_function_name: "_ZN7android4hidl7manager4V1_0aNERiNS2_15IServiceManager11PidConstantE"
  source_file: "out/soong/.intermediates/system/libhidl/transport/manager/1.0/android.hidl.manager@1.0_genc++_headers/gen/android/hidl/manager/1.0/IServiceManager.h"
  parameters {
    basic_abi {
      type_abi {
        name: "int &"
        size: 8
        alignment: 8
      }
      name: "v"
      access: public_access
      linker_set_key: "false"
    }
    default_arg: false
  }
  parameters {
    basic_abi {
      type_abi {
        name: "const android::hidl::manager::V1_0::IServiceManager::PidConstant"
        size: 4
        alignment: 4
      }
      name: "e"
      access: public_access
      linker_set_key: "false"
    }
    default_arg: false
  }
}
functions {
  basic_abi {
    type_abi {
      name: "std::basic_string<char, std::char_traits<char>, std::allocator<char> >"
      size: 24
      alignment: 8
    }
    name: "android::hidl::manager::V1_0::toString"
    access: public_access
    linker_set_key: "_ZN7android4hidl7manager4V1_08toStringEi"
  }
  mangled_function_name: "_ZN7android4hidl7manager4V1_08toStringEi"
  source_file: "out/soong/.intermediates/system/libhidl/transport/manager/1.0/android.hidl.manager@1.0_genc++_headers/gen/android/hidl/manager/1.0/IServiceManager.h"
  parameters {
    basic_abi {
      type_abi {
        name: "int"
        size: 4
        alignment: 4
      }
      name: "o"
      access: public_access
      linker_set_key: "false"
    }
    default_arg: false
  }
  template_info {
    elements {
      basic_abi {
        name: ""
        linker_set_key: ""
      }
    }
  }
}
functions {
  basic_abi {
    type_abi {
      name: "std::basic_string<char, std::char_traits<char>, std::allocator<char> >"
      size: 24
      alignment: 8
    }
    name: "android::hidl::manager::V1_0::toString"
    access: public_access
    linker_set_key: "_ZN7android4hidl7manager4V1_08toStringINS2_15IServiceManager11PidConstantEEENSt3__112basic_stringIcNS6_11char_traitsIcEENS6_9allocatorIcEEEEi"
  }
  mangled_function_name: "_ZN7android4hidl7manager4V1_08toStringINS2_15IServiceManager11PidConstantEEENSt3__112basic_stringIcNS6_11char_traitsIcEENS6_9allocatorIcEEEEi"
  source_file: "out/soong/.intermediates/system/libhidl/transport/manager/1.0/android.hidl.manager@1.0_genc++_headers/gen/android/hidl/manager/1.0/IServiceManager.h"
  parameters {
    basic_abi {
      type_abi {
        name: "int"
        size: 4
        alignment: 4
      }
      name: "o"
      access: public_access
      linker_set_key: "false"
    }
    default_arg: false
  }
  template_info {
    elements {
      basic_abi {
        type_abi {
          name: "android::hidl::manager::V1_0::IServiceManager::PidConstant"
          size: 4
          alignment: 4
        }
        linker_set_key: "android::hidl::manager::V1_0::IServiceManager::PidConstant"
      }
    }
  }
}
functions {
  basic_abi {
    type_abi {
      name: "std::basic_string<char, std::char_traits<char>, std::allocator<char> >"
      size: 24
      alignment: 8
    }
    name: "android::hidl::manager::V1_0::toString"
    access: public_access
    linker_set_key: "_ZN7android4hidl7manager4V1_08toStringENS2_15IServiceManager11PidConstantE"
  }
  mangled_function_name: "_ZN7android4hidl7manager4V1_08toStringENS2_15IServiceManager11PidConstantE"
  source_file: "out/soong/.intermediates/system/libhidl/transport/manager/1.0/android.hidl.manager@1.0_genc++_headers/gen/android/hidl/manager/1.0/IServiceManager.h"
  parameters {
    basic_abi {
      type_abi {
        name: "android::hidl::manager::V1_0::IServiceManager::PidConstant"
        size: 4
        alignment: 4
      }
      name: "o"
      access: public_access
      linker_set_key: "false"
    }
    default_arg: false
  }
}
functions {
  basic_abi {
    type_abi {
      name: "std::basic_string<char, std::char_traits<char>, std::allocator<char> >"
      size: 24
      alignment: 8
    }
    name: "android::hidl::manager::V1_0::toString"
    access: public_access
    linker_set_key: "_ZN7android4hidl7manager4V1_08toStringERKNS2_15IServiceManager17InstanceDebugInfoE"
  }
  mangled_function_name: "_ZN7android4hidl7manager4V1_08toStringERKNS2_15IServiceManager17InstanceDebugInfoE"
  source_file: "out/soong/.intermediates/system/libhidl/transport/manager/1.0/android.hidl.manager@1.0_genc++_headers/gen/android/hidl/manager/1.0/IServiceManager.h"
  parameters {
    basic_abi {
      type_abi {
        name: "const android::hidl::manager::V1_0::IServiceManager::InstanceDebugInfo &"
        size: 8
        alignment: 8
      }
      name: ""
      access: public_access
      linker_set_key: "false"
    }
    default_arg: false
  }
}
functions {
  basic_abi {
    type_abi {
      name: "bool"
      size: 1
      alignment: 1
    }
    name: "android::hidl::manager::V1_0::operator=="
    access: public_access
    linker_set_key: "_ZN7android4hidl7manager4V1_0eqERKNS2_15IServiceManager17InstanceDebugInfoES6_"
  }
  mangled_function_name: "_ZN7android4hidl7manager4V1_0eqERKNS2_15IServiceManager17InstanceDebugInfoES6_"
  source_file: "out/soong/.intermediates/system/libhidl/transport/manager/1.0/android.hidl.manager@1.0_genc++_headers/gen/android/hidl/manager/1.0/IServiceManager.h"
  parameters {
    basic_abi {
      type_abi {
        name: "const android::hidl::manager::V1_0::IServiceManager::InstanceDebugInfo &"
        size: 8
        alignment: 8
      }
      name: ""
      access: public_access
      linker_set_key: "false"
    }
    default_arg: false
  }
  parameters {
    basic_abi {
      type_abi {
        name: "const android::hidl::manager::V1_0::IServiceManager::InstanceDebugInfo &"
        size: 8
        alignment: 8
      }
      name: ""
      access: public_access
      linker_set_key: "false"
    }
    default_arg: false
  }
}
functions {
  basic_abi {
    type_abi {
      name: "bool"
      size: 1
      alignment: 1
    }
    name: "android::hidl::manager::V1_0::operator!="
    access: public_access
    linker_set_key: "_ZN7android4hidl7manager4V1_0neERKNS2_15IServiceManager17InstanceDebugInfoES6_"
  }
  mangled_function_name: "_ZN7android4hidl7manager4V1_0neERKNS2_15IServiceManager17InstanceDebugInfoES6_"
  source_file: "out/soong/.intermediates/system/libhidl/transport/manager/1.0/android.hidl.manager@1.0_genc++_headers/gen/android/hidl/manager/1.0/IServiceManager.h"
  parameters {
    basic_abi {
      type_abi {
        name: "const android::hidl::manager::V1_0::IServiceManager::InstanceDebugInfo &"
        size: 8
        alignment: 8
      }
      name: ""
      access: public_access
      linker_set_key: "false"
    }
    default_arg: false
  }
  parameters {
    basic_abi {
      type_abi {
        name: "const android::hidl::manager::V1_0::IServiceManager::InstanceDebugInfo &"
        size: 8
        alignment: 8
      }
      name: ""
      access: public_access
      linker_set_key: "false"
    }
    default_arg: false
  }
}
functions {
  basic_abi {
    type_abi {
      name: "std::basic_string<char, std::char_traits<char>, std::allocator<char> >"
      size: 24
      alignment: 8
    }
    name: "android::hidl::manager::V1_0::toString"
    access: public_access
    linker_set_key: "_ZN7android4hidl7manager4V1_08toStringERKNS_2spINS2_15IServiceManagerEEE"
  }
  mangled_function_name: "_ZN7android4hidl7manager4V1_08toStringERKNS_2spINS2_15IServiceManagerEEE"
  source_file: "out/soong/.intermediates/system/libhidl/transport/manager/1.0/android.hidl.manager@1.0_genc++_headers/gen/android/hidl/manager/1.0/IServiceManager.h"
  parameters {
    basic_abi {
      type_abi {
        name: "const android::sp<android::hidl::manager::V1_0::IServiceManager> &"
        size: 8
        alignment: 8
      }
      name: ""
      access: public_access
      linker_set_key: "false"
    }
    default_arg: false
  }
}
functions {
  basic_abi {
    type_abi {
      name: "void"
    }
    name: "android::hidl::base::V1_0::BpHwBase::BpHwBase"
    access: public_access
    linker_set_key: "_ZN7android4hidl4base4V1_08BpHwBaseC1ERKNS_2spINS_8hardware7IBinderEEE"
  }
  mangled_function_name: "_ZN7android4hidl4base4V1_08BpHwBaseC1ERKNS_2spINS_8hardware7IBinderEEE"
  source_file: "out/soong/.intermediates/system/libhidl/transport/base/1.0/android.hidl.base@1.0_genc++_headers/gen/android/hidl/base/1.0/BpHwBase.h"
  parameters {
    basic_abi {
      type_abi {
        name: "const android::sp<android::hardware::IBinder> &"
        size: 8
        alignment: 8
      }
      name: "_hidl_impl"
      access: public_access
      linker_set_key: "false"
    }
    default_arg: false
  }
}
functions {
  basic_abi {
    type_abi {
      name: "bool"
      size: 1
      alignment: 1
    }
    name: "android::hidl::base::V1_0::BpHwBase::isRemote"
    access: public_access
    linker_set_key: "_ZNK7android4hidl4base4V1_08BpHwBase8isRemoteEv"
  }
  mangled_function_name: "_ZNK7android4hidl4base4V1_08BpHwBase8isRemoteEv"
  source_file: "out/soong/.intermediates/system/libhidl/transport/base/1.0/android.hidl.base@1.0_genc++_headers/gen/android/hidl/base/1.0/BpHwBase.h"
}
functions {
  basic_abi {
    type_abi {
      name: "android::hardware::Return<void>"
      size: 40
      alignment: 8
    }
    name: "android::hidl::base::V1_0::BpHwBase::interfaceChain"
    access: public_access
    linker_set_key: "_ZN7android4hidl4base4V1_08BpHwBase14interfaceChainENSt3__18functionIFvRKNS_8hardware8hidl_vecINS6_11hidl_stringEEEEEE"
  }
  mangled_function_name: "_ZN7android4hidl4base4V1_08BpHwBase14interfaceChainENSt3__18functionIFvRKNS_8hardware8hidl_vecINS6_11hidl_stringEEEEEE"
  source_file: "out/soong/.intermediates/system/libhidl/transport/base/1.0/android.hidl.base@1.0_genc++_headers/gen/android/hidl/base/1.0/BpHwBase.h"
  parameters {
    basic_abi {
      type_abi {
        name: "std::function<void (const hidl_vec<hidl_string> &)>"
        size: 48
        alignment: 16
      }
      name: "_hidl_cb"
      access: public_access
      linker_set_key: "false"
    }
    default_arg: false
  }
}
functions {
  basic_abi {
    type_abi {
      name: "android::hardware::Return<void>"
      size: 40
      alignment: 8
    }
    name: "android::hidl::base::V1_0::BpHwBase::debug"
    access: public_access
    linker_set_key: "_ZN7android4hidl4base4V1_08BpHwBase5debugERKNS_8hardware11hidl_handleERKNS4_8hidl_vecINS4_11hidl_stringEEE"
  }
  mangled_function_name: "_ZN7android4hidl4base4V1_08BpHwBase5debugERKNS_8hardware11hidl_handleERKNS4_8hidl_vecINS4_11hidl_stringEEE"
  source_file: "out/soong/.intermediates/system/libhidl/transport/base/1.0/android.hidl.base@1.0_genc++_headers/gen/android/hidl/base/1.0/BpHwBase.h"
  parameters {
    basic_abi {
      type_abi {
        name: "const android::hardware::hidl_handle &"
        size: 8
        alignment: 8
      }
      name: "fd"
      access: public_access
      linker_set_key: "false"
    }
    default_arg: false
  }
  parameters {
    basic_abi {
      type_abi {
        name: "const android::hardware::hidl_vec<android::hardware::hidl_string> &"
        size: 8
        alignment: 8
      }
      name: "options"
      access: public_access
      linker_set_key: "false"
    }
    default_arg: false
  }
}
functions {
  basic_abi {
    type_abi {
      name: "android::hardware::Return<void>"
      size: 40
      alignment: 8
    }
    name: "android::hidl::base::V1_0::BpHwBase::interfaceDescriptor"
    access: public_access
    linker_set_key: "_ZN7android4hidl4base4V1_08BpHwBase19interfaceDescriptorENSt3__18functionIFvRKNS_8hardware11hidl_stringEEEE"
  }
  mangled_function_name: "_ZN7android4hidl4base4V1_08BpHwBase19interfaceDescriptorENSt3__18functionIFvRKNS_8hardware11hidl_stringEEEE"
  source_file: "out/soong/.intermediates/system/libhidl/transport/base/1.0/android.hidl.base@1.0_genc++_headers/gen/android/hidl/base/1.0/BpHwBase.h"
  parameters {
    basic_abi {
      type_abi {
        name: "std::function<void (const hidl_string &)>"
        size: 48
        alignment: 16
      }
      name: "_hidl_cb"
      access: public_access
      linker_set_key: "false"
    }
    default_arg: false
  }
}
functions {
  basic_abi {
    type_abi {
      name: "android::hardware::Return<void>"
      size: 40
      alignment: 8
    }
    name: "android::hidl::base::V1_0::BpHwBase::getHashChain"
    access: public_access
    linker_set_key: "_ZN7android4hidl4base4V1_08BpHwBase12getHashChainENSt3__18functionIFvRKNS_8hardware8hidl_vecINS6_10hidl_arrayIhLm32EJEEEEEEEE"
  }
  mangled_function_name: "_ZN7android4hidl4base4V1_08BpHwBase12getHashChainENSt3__18functionIFvRKNS_8hardware8hidl_vecINS6_10hidl_arrayIhLm32EJEEEEEEEE"
  source_file: "out/soong/.intermediates/system/libhidl/transport/base/1.0/android.hidl.base@1.0_genc++_headers/gen/android/hidl/base/1.0/BpHwBase.h"
  parameters {
    basic_abi {
      type_abi {
        name: "std::function<void (const hidl_vec<hidl_array<unsigned char, 32> > &)>"
      }
      name: "_hidl_cb"
      access: public_access
      linker_set_key: "false"
    }
    default_arg: false
  }
}
functions {
  basic_abi {
    type_abi {
      name: "android::hardware::Return<void>"
      size: 40
      alignment: 8
    }
    name: "android::hidl::base::V1_0::BpHwBase::setHALInstrumentation"
    access: public_access
    linker_set_key: "_ZN7android4hidl4base4V1_08BpHwBase21setHALInstrumentationEv"
  }
  mangled_function_name: "_ZN7android4hidl4base4V1_08BpHwBase21setHALInstrumentationEv"
  source_file: "out/soong/.intermediates/system/libhidl/transport/base/1.0/android.hidl.base@1.0_genc++_headers/gen/android/hidl/base/1.0/BpHwBase.h"
}
functions {
  basic_abi {
    type_abi {
      name: "android::hardware::Return<bool>"
      size: 40
      alignment: 8
    }
    name: "android::hidl::base::V1_0::BpHwBase::linkToDeath"
    access: public_access
    linker_set_key: "_ZN7android4hidl4base4V1_08BpHwBase11linkToDeathERKNS_2spINS_8hardware20hidl_death_recipientEEEm"
  }
  mangled_function_name: "_ZN7android4hidl4base4V1_08BpHwBase11linkToDeathERKNS_2spINS_8hardware20hidl_death_recipientEEEm"
  source_file: "out/soong/.intermediates/system/libhidl/transport/base/1.0/android.hidl.base@1.0_genc++_headers/gen/android/hidl/base/1.0/BpHwBase.h"
  parameters {
    basic_abi {
      type_abi {
        name: "const android::sp<android::hardware::hidl_death_recipient> &"
        size: 8
        alignment: 8
      }
      name: "recipient"
      access: public_access
      linker_set_key: "false"
    }
    default_arg: false
  }
  parameters {
    basic_abi {
      type_abi {
        name: "unsigned long"
        size: 8
        alignment: 8
      }
      name: "cookie"
      access: public_access
      linker_set_key: "false"
    }
    default_arg: false
  }
}
functions {
  basic_abi {
    type_abi {
      name: "android::hardware::Return<void>"
      size: 40
      alignment: 8
    }
    name: "android::hidl::base::V1_0::BpHwBase::ping"
    access: public_access
    linker_set_key: "_ZN7android4hidl4base4V1_08BpHwBase4pingEv"
  }
  mangled_function_name: "_ZN7android4hidl4base4V1_08BpHwBase4pingEv"
  source_file: "out/soong/.intermediates/system/libhidl/transport/base/1.0/android.hidl.base@1.0_genc++_headers/gen/android/hidl/base/1.0/BpHwBase.h"
}
functions {
  basic_abi {
    type_abi {
      name: "android::hardware::Return<void>"
      size: 40
      alignment: 8
    }
    name: "android::hidl::base::V1_0::BpHwBase::getDebugInfo"
    access: public_access
    linker_set_key: "_ZN7android4hidl4base4V1_08BpHwBase12getDebugInfoENSt3__18functionIFvRKNS2_9DebugInfoEEEE"
  }
  mangled_function_name: "_ZN7android4hidl4base4V1_08BpHwBase12getDebugInfoENSt3__18functionIFvRKNS2_9DebugInfoEEEE"
  source_file: "out/soong/.intermediates/system/libhidl/transport/base/1.0/android.hidl.base@1.0_genc++_headers/gen/android/hidl/base/1.0/BpHwBase.h"
  parameters {
    basic_abi {
      type_abi {
        name: "std::function<void (const DebugInfo &)>"
      }
      name: "_hidl_cb"
      access: public_access
      linker_set_key: "false"
    }
    default_arg: false
  }
}
functions {
  basic_abi {
    type_abi {
      name: "android::hardware::Return<void>"
      size: 40
      alignment: 8
    }
    name: "android::hidl::base::V1_0::BpHwBase::notifySyspropsChanged"
    access: public_access
    linker_set_key: "_ZN7android4hidl4base4V1_08BpHwBase21notifySyspropsChangedEv"
  }
  mangled_function_name: "_ZN7android4hidl4base4V1_08BpHwBase21notifySyspropsChangedEv"
  source_file: "out/soong/.intermediates/system/libhidl/transport/base/1.0/android.hidl.base@1.0_genc++_headers/gen/android/hidl/base/1.0/BpHwBase.h"
}
functions {
  basic_abi {
    type_abi {
      name: "android::hardware::Return<bool>"
      size: 40
      alignment: 8
    }
    name: "android::hidl::base::V1_0::BpHwBase::unlinkToDeath"
    access: public_access
    linker_set_key: "_ZN7android4hidl4base4V1_08BpHwBase13unlinkToDeathERKNS_2spINS_8hardware20hidl_death_recipientEEE"
  }
  mangled_function_name: "_ZN7android4hidl4base4V1_08BpHwBase13unlinkToDeathERKNS_2spINS_8hardware20hidl_death_recipientEEE"
  source_file: "out/soong/.intermediates/system/libhidl/transport/base/1.0/android.hidl.base@1.0_genc++_headers/gen/android/hidl/base/1.0/BpHwBase.h"
  parameters {
    basic_abi {
      type_abi {
        name: "const android::sp<android::hardware::hidl_death_recipient> &"
        size: 8
        alignment: 8
      }
      name: "recipient"
      access: public_access
      linker_set_key: "false"
    }
    default_arg: false
  }
}
functions {
  basic_abi {
    type_abi {
      name: "void"
    }
    name: "android::hidl::manager::V1_0::BnHwServiceNotification::BnHwServiceNotification"
    access: public_access
    linker_set_key: "_ZN7android4hidl7manager4V1_023BnHwServiceNotificationC1ERKNS_2spINS2_20IServiceNotificationEEE"
  }
  mangled_function_name: "_ZN7android4hidl7manager4V1_023BnHwServiceNotificationC1ERKNS_2spINS2_20IServiceNotificationEEE"
  source_file: "out/soong/.intermediates/system/libhidl/transport/manager/1.0/android.hidl.manager@1.0_genc++_headers/gen/android/hidl/manager/1.0/BnHwServiceNotification.h"
  parameters {
    basic_abi {
      type_abi {
        name: "const android::sp<android::hidl::manager::V1_0::IServiceNotification> &"
        size: 8
        alignment: 8
      }
      name: "_hidl_impl"
      access: public_access
      linker_set_key: "false"
    }
    default_arg: false
  }
}
functions {
  basic_abi {
    type_abi {
      name: "void"
    }
    name: "android::hidl::manager::V1_0::BnHwServiceNotification::BnHwServiceNotification"
    access: public_access
    linker_set_key: "_ZN7android4hidl7manager4V1_023BnHwServiceNotificationC1ERKNS_2spINS2_20IServiceNotificationEEERKNSt3__112basic_stringIcNS9_11char_traitsIcEENS9_9allocatorIcEEEESH_"
  }
  mangled_function_name: "_ZN7android4hidl7manager4V1_023BnHwServiceNotificationC1ERKNS_2spINS2_20IServiceNotificationEEERKNSt3__112basic_stringIcNS9_11char_traitsIcEENS9_9allocatorIcEEEESH_"
  source_file: "out/soong/.intermediates/system/libhidl/transport/manager/1.0/android.hidl.manager@1.0_genc++_headers/gen/android/hidl/manager/1.0/BnHwServiceNotification.h"
  parameters {
    basic_abi {
      type_abi {
        name: "const android::sp<android::hidl::manager::V1_0::IServiceNotification> &"
        size: 8
        alignment: 8
      }
      name: "_hidl_impl"
      access: public_access
      linker_set_key: "false"
    }
    default_arg: false
  }
  parameters {
    basic_abi {
      type_abi {
        name: "const std::basic_string<char, std::char_traits<char>, std::allocator<char> > &"
        size: 8
        alignment: 8
      }
      name: "HidlInstrumentor_package"
      access: public_access
      linker_set_key: "false"
    }
    default_arg: false
  }
  parameters {
    basic_abi {
      type_abi {
        name: "const std::basic_string<char, std::char_traits<char>, std::allocator<char> > &"
        size: 8
        alignment: 8
      }
      name: "HidlInstrumentor_interface"
      access: public_access
      linker_set_key: "false"
    }
    default_arg: false
  }
}
functions {
  basic_abi {
    type_abi {
      name: "int"
      size: 4
      alignment: 4
    }
    name: "android::hidl::manager::V1_0::BnHwServiceNotification::onTransact"
    access: public_access
    linker_set_key: "_ZN7android4hidl7manager4V1_023BnHwServiceNotification10onTransactEjRKNS_8hardware6ParcelEPS5_jNSt3__18functionIFvRS5_EEE"
  }
  mangled_function_name: "_ZN7android4hidl7manager4V1_023BnHwServiceNotification10onTransactEjRKNS_8hardware6ParcelEPS5_jNSt3__18functionIFvRS5_EEE"
  source_file: "out/soong/.intermediates/system/libhidl/transport/manager/1.0/android.hidl.manager@1.0_genc++_headers/gen/android/hidl/manager/1.0/BnHwServiceNotification.h"
  parameters {
    basic_abi {
      type_abi {
        name: "unsigned int"
        size: 4
        alignment: 4
      }
      name: "_hidl_code"
      access: public_access
      linker_set_key: "false"
    }
    default_arg: false
  }
  parameters {
    basic_abi {
      type_abi {
        name: "const android::hardware::Parcel &"
        size: 8
        alignment: 8
      }
      name: "_hidl_data"
      access: public_access
      linker_set_key: "false"
    }
    default_arg: false
  }
  parameters {
    basic_abi {
      type_abi {
        name: "android::hardware::Parcel *"
        size: 8
        alignment: 8
      }
      name: "_hidl_reply"
      access: public_access
      linker_set_key: "false"
    }
    default_arg: false
  }
  parameters {
    basic_abi {
      type_abi {
        name: "unsigned int"
        size: 4
        alignment: 4
      }
      name: "_hidl_flags"
      access: public_access
      linker_set_key: "true"
    }
    default_arg: true
  }
  parameters {
    basic_abi {
      type_abi {
        name: "std::function<void (Parcel &)>"
        size: 48
        alignment: 16
      }
      name: "_hidl_cb"
      access: public_access
      linker_set_key: "true"
    }
    default_arg: true
  }
}
functions {
  basic_abi {
    type_abi {
      name: "android::sp<android::hidl::manager::V1_0::IServiceNotification>"
      size: 8
      alignment: 8
    }
    name: "android::hidl::manager::V1_0::BnHwServiceNotification::getImpl"
    access: public_access
    linker_set_key: "_ZN7android4hidl7manager4V1_023BnHwServiceNotification7getImplEv"
  }
  mangled_function_name: "_ZN7android4hidl7manager4V1_023BnHwServiceNotification7getImplEv"
  source_file: "out/soong/.intermediates/system/libhidl/transport/manager/1.0/android.hidl.manager@1.0_genc++_headers/gen/android/hidl/manager/1.0/BnHwServiceNotification.h"
}
functions {
  basic_abi {
    type_abi {
      name: "android::hardware::Return<void>"
      size: 40
      alignment: 8
    }
    name: "android::hidl::manager::V1_0::BnHwServiceNotification::ping"
    access: private_access
    linker_set_key: "_ZN7android4hidl7manager4V1_023BnHwServiceNotification4pingEv"
  }
  mangled_function_name: "_ZN7android4hidl7manager4V1_023BnHwServiceNotification4pingEv"
  source_file: "out/soong/.intermediates/system/libhidl/transport/manager/1.0/android.hidl.manager@1.0_genc++_headers/gen/android/hidl/manager/1.0/BnHwServiceNotification.h"
}
functions {
  basic_abi {
    type_abi {
      name: "android::hardware::Return<void>"
      size: 40
      alignment: 8
    }
    name: "android::hidl::manager::V1_0::BnHwServiceNotification::getDebugInfo"
    access: private_access
    linker_set_key: "_ZN7android4hidl7manager4V1_023BnHwServiceNotification12getDebugInfoENSt3__18functionIFvRKNS0_4base4V1_09DebugInfoEEEE"
  }
  mangled_function_name: "_ZN7android4hidl7manager4V1_023BnHwServiceNotification12getDebugInfoENSt3__18functionIFvRKNS0_4base4V1_09DebugInfoEEEE"
  source_file: "out/soong/.intermediates/system/libhidl/transport/manager/1.0/android.hidl.manager@1.0_genc++_headers/gen/android/hidl/manager/1.0/BnHwServiceNotification.h"
  parameters {
    basic_abi {
      type_abi {
        name: "std::function<void (const DebugInfo &)>"
      }
      name: "_hidl_cb"
      access: public_access
      linker_set_key: "false"
    }
    default_arg: false
  }
}
functions {
  basic_abi {
    type_abi {
      name: "void"
    }
    name: "android::hidl::manager::V1_0::BpHwServiceNotification::BpHwServiceNotification"
    access: public_access
    linker_set_key: "_ZN7android4hidl7manager4V1_023BpHwServiceNotificationC1ERKNS_2spINS_8hardware7IBinderEEE"
  }
  mangled_function_name: "_ZN7android4hidl7manager4V1_023BpHwServiceNotificationC1ERKNS_2spINS_8hardware7IBinderEEE"
  source_file: "out/soong/.intermediates/system/libhidl/transport/manager/1.0/android.hidl.manager@1.0_genc++_headers/gen/android/hidl/manager/1.0/BpHwServiceNotification.h"
  parameters {
    basic_abi {
      type_abi {
        name: "const android::sp<android::hardware::IBinder> &"
        size: 8
        alignment: 8
      }
      name: "_hidl_impl"
      access: public_access
      linker_set_key: "false"
    }
    default_arg: false
  }
}
functions {
  basic_abi {
    type_abi {
      name: "bool"
      size: 1
      alignment: 1
    }
    name: "android::hidl::manager::V1_0::BpHwServiceNotification::isRemote"
    access: public_access
    linker_set_key: "_ZNK7android4hidl7manager4V1_023BpHwServiceNotification8isRemoteEv"
  }
  mangled_function_name: "_ZNK7android4hidl7manager4V1_023BpHwServiceNotification8isRemoteEv"
  source_file: "out/soong/.intermediates/system/libhidl/transport/manager/1.0/android.hidl.manager@1.0_genc++_headers/gen/android/hidl/manager/1.0/BpHwServiceNotification.h"
}
functions {
  basic_abi {
    type_abi {
      name: "android::hardware::Return<void>"
      size: 40
      alignment: 8
    }
    name: "android::hidl::manager::V1_0::BpHwServiceNotification::onRegistration"
    access: public_access
    linker_set_key: "_ZN7android4hidl7manager4V1_023BpHwServiceNotification14onRegistrationERKNS_8hardware11hidl_stringES7_b"
  }
  mangled_function_name: "_ZN7android4hidl7manager4V1_023BpHwServiceNotification14onRegistrationERKNS_8hardware11hidl_stringES7_b"
  source_file: "out/soong/.intermediates/system/libhidl/transport/manager/1.0/android.hidl.manager@1.0_genc++_headers/gen/android/hidl/manager/1.0/BpHwServiceNotification.h"
  parameters {
    basic_abi {
      type_abi {
        name: "const android::hardware::hidl_string &"
        size: 8
        alignment: 8
      }
      name: "fqName"
      access: public_access
      linker_set_key: "false"
    }
    default_arg: false
  }
  parameters {
    basic_abi {
      type_abi {
        name: "const android::hardware::hidl_string &"
        size: 8
        alignment: 8
      }
      name: "name"
      access: public_access
      linker_set_key: "false"
    }
    default_arg: false
  }
  parameters {
    basic_abi {
      type_abi {
        name: "bool"
        size: 1
        alignment: 1
      }
      name: "preexisting"
      access: public_access
      linker_set_key: "false"
    }
    default_arg: false
  }
}
functions {
  basic_abi {
    type_abi {
      name: "android::hardware::Return<void>"
      size: 40
      alignment: 8
    }
    name: "android::hidl::manager::V1_0::BpHwServiceNotification::interfaceChain"
    access: public_access
    linker_set_key: "_ZN7android4hidl7manager4V1_023BpHwServiceNotification14interfaceChainENSt3__18functionIFvRKNS_8hardware8hidl_vecINS6_11hidl_stringEEEEEE"
  }
  mangled_function_name: "_ZN7android4hidl7manager4V1_023BpHwServiceNotification14interfaceChainENSt3__18functionIFvRKNS_8hardware8hidl_vecINS6_11hidl_stringEEEEEE"
  source_file: "out/soong/.intermediates/system/libhidl/transport/manager/1.0/android.hidl.manager@1.0_genc++_headers/gen/android/hidl/manager/1.0/BpHwServiceNotification.h"
  parameters {
    basic_abi {
      type_abi {
        name: "std::function<void (const hidl_vec<hidl_string> &)>"
        size: 48
        alignment: 16
      }
      name: "_hidl_cb"
      access: public_access
      linker_set_key: "false"
    }
    default_arg: false
  }
}
functions {
  basic_abi {
    type_abi {
      name: "android::hardware::Return<void>"
      size: 40
      alignment: 8
    }
    name: "android::hidl::manager::V1_0::BpHwServiceNotification::debug"
    access: public_access
    linker_set_key: "_ZN7android4hidl7manager4V1_023BpHwServiceNotification5debugERKNS_8hardware11hidl_handleERKNS4_8hidl_vecINS4_11hidl_stringEEE"
  }
  mangled_function_name: "_ZN7android4hidl7manager4V1_023BpHwServiceNotification5debugERKNS_8hardware11hidl_handleERKNS4_8hidl_vecINS4_11hidl_stringEEE"
  source_file: "out/soong/.intermediates/system/libhidl/transport/manager/1.0/android.hidl.manager@1.0_genc++_headers/gen/android/hidl/manager/1.0/BpHwServiceNotification.h"
  parameters {
    basic_abi {
      type_abi {
        name: "const android::hardware::hidl_handle &"
        size: 8
        alignment: 8
      }
      name: "fd"
      access: public_access
      linker_set_key: "false"
    }
    default_arg: false
  }
  parameters {
    basic_abi {
      type_abi {
        name: "const android::hardware::hidl_vec<android::hardware::hidl_string> &"
        size: 8
        alignment: 8
      }
      name: "options"
      access: public_access
      linker_set_key: "false"
    }
    default_arg: false
  }
}
functions {
  basic_abi {
    type_abi {
      name: "android::hardware::Return<void>"
      size: 40
      alignment: 8
    }
    name: "android::hidl::manager::V1_0::BpHwServiceNotification::interfaceDescriptor"
    access: public_access
    linker_set_key: "_ZN7android4hidl7manager4V1_023BpHwServiceNotification19interfaceDescriptorENSt3__18functionIFvRKNS_8hardware11hidl_stringEEEE"
  }
  mangled_function_name: "_ZN7android4hidl7manager4V1_023BpHwServiceNotification19interfaceDescriptorENSt3__18functionIFvRKNS_8hardware11hidl_stringEEEE"
  source_file: "out/soong/.intermediates/system/libhidl/transport/manager/1.0/android.hidl.manager@1.0_genc++_headers/gen/android/hidl/manager/1.0/BpHwServiceNotification.h"
  parameters {
    basic_abi {
      type_abi {
        name: "std::function<void (const hidl_string &)>"
        size: 48
        alignment: 16
      }
      name: "_hidl_cb"
      access: public_access
      linker_set_key: "false"
    }
    default_arg: false
  }
}
functions {
  basic_abi {
    type_abi {
      name: "android::hardware::Return<void>"
      size: 40
      alignment: 8
    }
    name: "android::hidl::manager::V1_0::BpHwServiceNotification::getHashChain"
    access: public_access
    linker_set_key: "_ZN7android4hidl7manager4V1_023BpHwServiceNotification12getHashChainENSt3__18functionIFvRKNS_8hardware8hidl_vecINS6_10hidl_arrayIhLm32EJEEEEEEEE"
  }
  mangled_function_name: "_ZN7android4hidl7manager4V1_023BpHwServiceNotification12getHashChainENSt3__18functionIFvRKNS_8hardware8hidl_vecINS6_10hidl_arrayIhLm32EJEEEEEEEE"
  source_file: "out/soong/.intermediates/system/libhidl/transport/manager/1.0/android.hidl.manager@1.0_genc++_headers/gen/android/hidl/manager/1.0/BpHwServiceNotification.h"
  parameters {
    basic_abi {
      type_abi {
        name: "std::function<void (const hidl_vec<hidl_array<unsigned char, 32> > &)>"
      }
      name: "_hidl_cb"
      access: public_access
      linker_set_key: "false"
    }
    default_arg: false
  }
}
functions {
  basic_abi {
    type_abi {
      name: "android::hardware::Return<void>"
      size: 40
      alignment: 8
    }
    name: "android::hidl::manager::V1_0::BpHwServiceNotification::setHALInstrumentation"
    access: public_access
    linker_set_key: "_ZN7android4hidl7manager4V1_023BpHwServiceNotification21setHALInstrumentationEv"
  }
  mangled_function_name: "_ZN7android4hidl7manager4V1_023BpHwServiceNotification21setHALInstrumentationEv"
  source_file: "out/soong/.intermediates/system/libhidl/transport/manager/1.0/android.hidl.manager@1.0_genc++_headers/gen/android/hidl/manager/1.0/BpHwServiceNotification.h"
}
functions {
  basic_abi {
    type_abi {
      name: "android::hardware::Return<bool>"
      size: 40
      alignment: 8
    }
    name: "android::hidl::manager::V1_0::BpHwServiceNotification::linkToDeath"
    access: public_access
    linker_set_key: "_ZN7android4hidl7manager4V1_023BpHwServiceNotification11linkToDeathERKNS_2spINS_8hardware20hidl_death_recipientEEEm"
  }
  mangled_function_name: "_ZN7android4hidl7manager4V1_023BpHwServiceNotification11linkToDeathERKNS_2spINS_8hardware20hidl_death_recipientEEEm"
  source_file: "out/soong/.intermediates/system/libhidl/transport/manager/1.0/android.hidl.manager@1.0_genc++_headers/gen/android/hidl/manager/1.0/BpHwServiceNotification.h"
  parameters {
    basic_abi {
      type_abi {
        name: "const android::sp<android::hardware::hidl_death_recipient> &"
        size: 8
        alignment: 8
      }
      name: "recipient"
      access: public_access
      linker_set_key: "false"
    }
    default_arg: false
  }
  parameters {
    basic_abi {
      type_abi {
        name: "unsigned long"
        size: 8
        alignment: 8
      }
      name: "cookie"
      access: public_access
      linker_set_key: "false"
    }
    default_arg: false
  }
}
functions {
  basic_abi {
    type_abi {
      name: "android::hardware::Return<void>"
      size: 40
      alignment: 8
    }
    name: "android::hidl::manager::V1_0::BpHwServiceNotification::ping"
    access: public_access
    linker_set_key: "_ZN7android4hidl7manager4V1_023BpHwServiceNotification4pingEv"
  }
  mangled_function_name: "_ZN7android4hidl7manager4V1_023BpHwServiceNotification4pingEv"
  source_file: "out/soong/.intermediates/system/libhidl/transport/manager/1.0/android.hidl.manager@1.0_genc++_headers/gen/android/hidl/manager/1.0/BpHwServiceNotification.h"
}
functions {
  basic_abi {
    type_abi {
      name: "android::hardware::Return<void>"
      size: 40
      alignment: 8
    }
    name: "android::hidl::manager::V1_0::BpHwServiceNotification::getDebugInfo"
    access: public_access
    linker_set_key: "_ZN7android4hidl7manager4V1_023BpHwServiceNotification12getDebugInfoENSt3__18functionIFvRKNS0_4base4V1_09DebugInfoEEEE"
  }
  mangled_function_name: "_ZN7android4hidl7manager4V1_023BpHwServiceNotification12getDebugInfoENSt3__18functionIFvRKNS0_4base4V1_09DebugInfoEEEE"
  source_file: "out/soong/.intermediates/system/libhidl/transport/manager/1.0/android.hidl.manager@1.0_genc++_headers/gen/android/hidl/manager/1.0/BpHwServiceNotification.h"
  parameters {
    basic_abi {
      type_abi {
        name: "std::function<void (const DebugInfo &)>"
      }
      name: "_hidl_cb"
      access: public_access
      linker_set_key: "false"
    }
    default_arg: false
  }
}
functions {
  basic_abi {
    type_abi {
      name: "android::hardware::Return<void>"
      size: 40
      alignment: 8
    }
    name: "android::hidl::manager::V1_0::BpHwServiceNotification::notifySyspropsChanged"
    access: public_access
    linker_set_key: "_ZN7android4hidl7manager4V1_023BpHwServiceNotification21notifySyspropsChangedEv"
  }
  mangled_function_name: "_ZN7android4hidl7manager4V1_023BpHwServiceNotification21notifySyspropsChangedEv"
  source_file: "out/soong/.intermediates/system/libhidl/transport/manager/1.0/android.hidl.manager@1.0_genc++_headers/gen/android/hidl/manager/1.0/BpHwServiceNotification.h"
}
functions {
  basic_abi {
    type_abi {
      name: "android::hardware::Return<bool>"
      size: 40
      alignment: 8
    }
    name: "android::hidl::manager::V1_0::BpHwServiceNotification::unlinkToDeath"
    access: public_access
    linker_set_key: "_ZN7android4hidl7manager4V1_023BpHwServiceNotification13unlinkToDeathERKNS_2spINS_8hardware20hidl_death_recipientEEE"
  }
  mangled_function_name: "_ZN7android4hidl7manager4V1_023BpHwServiceNotification13unlinkToDeathERKNS_2spINS_8hardware20hidl_death_recipientEEE"
  source_file: "out/soong/.intermediates/system/libhidl/transport/manager/1.0/android.hidl.manager@1.0_genc++_headers/gen/android/hidl/manager/1.0/BpHwServiceNotification.h"
  parameters {
    basic_abi {
      type_abi {
        name: "const android::sp<android::hardware::hidl_death_recipient> &"
        size: 8
        alignment: 8
      }
      name: "recipient"
      access: public_access
      linker_set_key: "false"
    }
    default_arg: false
  }
}
functions {
  basic_abi {
    type_abi {
      name: "int"
      size: 4
      alignment: 4
    }
    name: "android::hidl::manager::V1_0::readEmbeddedFromParcel"
    access: public_access
    linker_set_key: "_ZN7android4hidl7manager4V1_022readEmbeddedFromParcelERKNS2_15IServiceManager17InstanceDebugInfoERKNS_8hardware6ParcelEmm"
  }
  mangled_function_name: "_ZN7android4hidl7manager4V1_022readEmbeddedFromParcelERKNS2_15IServiceManager17InstanceDebugInfoERKNS_8hardware6ParcelEmm"
  source_file: "out/soong/.intermediates/system/libhidl/transport/manager/1.0/android.hidl.manager@1.0_genc++_headers/gen/android/hidl/manager/1.0/IHwServiceManager.h"
  parameters {
    basic_abi {
      type_abi {
        name: "const android::hidl::manager::V1_0::IServiceManager::InstanceDebugInfo &"
        size: 8
        alignment: 8
      }
      name: "obj"
      access: public_access
      linker_set_key: "false"
    }
    default_arg: false
  }
  parameters {
    basic_abi {
      type_abi {
        name: "const android::hardware::Parcel &"
        size: 8
        alignment: 8
      }
      name: "parcel"
      access: public_access
      linker_set_key: "false"
    }
    default_arg: false
  }
  parameters {
    basic_abi {
      type_abi {
        name: "unsigned long"
        size: 8
        alignment: 8
      }
      name: "parentHandle"
      access: public_access
      linker_set_key: "false"
    }
    default_arg: false
  }
  parameters {
    basic_abi {
      type_abi {
        name: "unsigned long"
        size: 8
        alignment: 8
      }
      name: "parentOffset"
      access: public_access
      linker_set_key: "false"
    }
    default_arg: false
  }
}
functions {
  basic_abi {
    type_abi {
      name: "int"
      size: 4
      alignment: 4
    }
    name: "android::hidl::manager::V1_0::writeEmbeddedToParcel"
    access: public_access
    linker_set_key: "_ZN7android4hidl7manager4V1_021writeEmbeddedToParcelERKNS2_15IServiceManager17InstanceDebugInfoEPNS_8hardware6ParcelEmm"
  }
  mangled_function_name: "_ZN7android4hidl7manager4V1_021writeEmbeddedToParcelERKNS2_15IServiceManager17InstanceDebugInfoEPNS_8hardware6ParcelEmm"
  source_file: "out/soong/.intermediates/system/libhidl/transport/manager/1.0/android.hidl.manager@1.0_genc++_headers/gen/android/hidl/manager/1.0/IHwServiceManager.h"
  parameters {
    basic_abi {
      type_abi {
        name: "const android::hidl::manager::V1_0::IServiceManager::InstanceDebugInfo &"
        size: 8
        alignment: 8
      }
      name: "obj"
      access: public_access
      linker_set_key: "false"
    }
    default_arg: false
  }
  parameters {
    basic_abi {
      type_abi {
        name: "android::hardware::Parcel *"
        size: 8
        alignment: 8
      }
      name: "parcel"
      access: public_access
      linker_set_key: "false"
    }
    default_arg: false
  }
  parameters {
    basic_abi {
      type_abi {
        name: "unsigned long"
        size: 8
        alignment: 8
      }
      name: "parentHandle"
      access: public_access
      linker_set_key: "false"
    }
    default_arg: false
  }
  parameters {
    basic_abi {
      type_abi {
        name: "unsigned long"
        size: 8
        alignment: 8
      }
      name: "parentOffset"
      access: public_access
      linker_set_key: "false"
    }
    default_arg: false
  }
}
functions {
  basic_abi {
    type_abi {
      name: "void"
    }
    name: "android::hidl::manager::V1_0::BpHwServiceManager::BpHwServiceManager"
    access: public_access
    linker_set_key: "_ZN7android4hidl7manager4V1_018BpHwServiceManagerC1ERKNS_2spINS_8hardware7IBinderEEE"
  }
  mangled_function_name: "_ZN7android4hidl7manager4V1_018BpHwServiceManagerC1ERKNS_2spINS_8hardware7IBinderEEE"
  source_file: "out/soong/.intermediates/system/libhidl/transport/manager/1.0/android.hidl.manager@1.0_genc++_headers/gen/android/hidl/manager/1.0/BpHwServiceManager.h"
  parameters {
    basic_abi {
      type_abi {
        name: "const android::sp<android::hardware::IBinder> &"
        size: 8
        alignment: 8
      }
      name: "_hidl_impl"
      access: public_access
      linker_set_key: "false"
    }
    default_arg: false
  }
}
functions {
  basic_abi {
    type_abi {
      name: "bool"
      size: 1
      alignment: 1
    }
    name: "android::hidl::manager::V1_0::BpHwServiceManager::isRemote"
    access: public_access
    linker_set_key: "_ZNK7android4hidl7manager4V1_018BpHwServiceManager8isRemoteEv"
  }
  mangled_function_name: "_ZNK7android4hidl7manager4V1_018BpHwServiceManager8isRemoteEv"
  source_file: "out/soong/.intermediates/system/libhidl/transport/manager/1.0/android.hidl.manager@1.0_genc++_headers/gen/android/hidl/manager/1.0/BpHwServiceManager.h"
}
functions {
  basic_abi {
    type_abi {
      name: "android::hardware::Return<android::sp<android::hidl::base::V1_0::IBase> >"
      size: 48
      alignment: 8
    }
    name: "android::hidl::manager::V1_0::BpHwServiceManager::get"
    access: public_access
    linker_set_key: "_ZN7android4hidl7manager4V1_018BpHwServiceManager3getERKNS_8hardware11hidl_stringES7_"
  }
  mangled_function_name: "_ZN7android4hidl7manager4V1_018BpHwServiceManager3getERKNS_8hardware11hidl_stringES7_"
  source_file: "out/soong/.intermediates/system/libhidl/transport/manager/1.0/android.hidl.manager@1.0_genc++_headers/gen/android/hidl/manager/1.0/BpHwServiceManager.h"
  parameters {
    basic_abi {
      type_abi {
        name: "const android::hardware::hidl_string &"
        size: 8
        alignment: 8
      }
      name: "fqName"
      access: public_access
      linker_set_key: "false"
    }
    default_arg: false
  }
  parameters {
    basic_abi {
      type_abi {
        name: "const android::hardware::hidl_string &"
        size: 8
        alignment: 8
      }
      name: "name"
      access: public_access
      linker_set_key: "false"
    }
    default_arg: false
  }
}
functions {
  basic_abi {
    type_abi {
      name: "android::hardware::Return<bool>"
      size: 40
      alignment: 8
    }
    name: "android::hidl::manager::V1_0::BpHwServiceManager::add"
    access: public_access
    linker_set_key: "_ZN7android4hidl7manager4V1_018BpHwServiceManager3addERKNS_8hardware11hidl_stringERKNS_2spINS0_4base4V1_05IBaseEEE"
  }
  mangled_function_name: "_ZN7android4hidl7manager4V1_018BpHwServiceManager3addERKNS_8hardware11hidl_stringERKNS_2spINS0_4base4V1_05IBaseEEE"
  source_file: "out/soong/.intermediates/system/libhidl/transport/manager/1.0/android.hidl.manager@1.0_genc++_headers/gen/android/hidl/manager/1.0/BpHwServiceManager.h"
  parameters {
    basic_abi {
      type_abi {
        name: "const android::hardware::hidl_string &"
        size: 8
        alignment: 8
      }
      name: "name"
      access: public_access
      linker_set_key: "false"
    }
    default_arg: false
  }
  parameters {
    basic_abi {
      type_abi {
        name: "const android::sp<android::hidl::base::V1_0::IBase> &"
        size: 8
        alignment: 8
      }
      name: "service"
      access: public_access
      linker_set_key: "false"
    }
    default_arg: false
  }
}
functions {
  basic_abi {
    type_abi {
      name: "android::hardware::Return<android::hidl::manager::V1_0::IServiceManager::Transport>"
      size: 40
      alignment: 8
    }
    name: "android::hidl::manager::V1_0::BpHwServiceManager::getTransport"
    access: public_access
    linker_set_key: "_ZN7android4hidl7manager4V1_018BpHwServiceManager12getTransportERKNS_8hardware11hidl_stringES7_"
  }
  mangled_function_name: "_ZN7android4hidl7manager4V1_018BpHwServiceManager12getTransportERKNS_8hardware11hidl_stringES7_"
  source_file: "out/soong/.intermediates/system/libhidl/transport/manager/1.0/android.hidl.manager@1.0_genc++_headers/gen/android/hidl/manager/1.0/BpHwServiceManager.h"
  parameters {
    basic_abi {
      type_abi {
        name: "const android::hardware::hidl_string &"
        size: 8
        alignment: 8
      }
      name: "fqName"
      access: public_access
      linker_set_key: "false"
    }
    default_arg: false
  }
  parameters {
    basic_abi {
      type_abi {
        name: "const android::hardware::hidl_string &"
        size: 8
        alignment: 8
      }
      name: "name"
      access: public_access
      linker_set_key: "false"
    }
    default_arg: false
  }
}
functions {
  basic_abi {
    type_abi {
      name: "android::hardware::Return<void>"
      size: 40
      alignment: 8
    }
    name: "android::hidl::manager::V1_0::BpHwServiceManager::list"
    access: public_access
    linker_set_key: "_ZN7android4hidl7manager4V1_018BpHwServiceManager4listENSt3__18functionIFvRKNS_8hardware8hidl_vecINS6_11hidl_stringEEEEEE"
  }
  mangled_function_name: "_ZN7android4hidl7manager4V1_018BpHwServiceManager4listENSt3__18functionIFvRKNS_8hardware8hidl_vecINS6_11hidl_stringEEEEEE"
  source_file: "out/soong/.intermediates/system/libhidl/transport/manager/1.0/android.hidl.manager@1.0_genc++_headers/gen/android/hidl/manager/1.0/BpHwServiceManager.h"
  parameters {
    basic_abi {
      type_abi {
        name: "std::function<void (const hidl_vec<hidl_string> &)>"
        size: 48
        alignment: 16
      }
      name: "_hidl_cb"
      access: public_access
      linker_set_key: "false"
    }
    default_arg: false
  }
}
functions {
  basic_abi {
    type_abi {
      name: "android::hardware::Return<void>"
      size: 40
      alignment: 8
    }
    name: "android::hidl::manager::V1_0::BpHwServiceManager::listByInterface"
    access: public_access
    linker_set_key: "_ZN7android4hidl7manager4V1_018BpHwServiceManager15listByInterfaceERKNS_8hardware11hidl_stringENSt3__18functionIFvRKNS4_8hidl_vecIS5_EEEEE"
  }
  mangled_function_name: "_ZN7android4hidl7manager4V1_018BpHwServiceManager15listByInterfaceERKNS_8hardware11hidl_stringENSt3__18functionIFvRKNS4_8hidl_vecIS5_EEEEE"
  source_file: "out/soong/.intermediates/system/libhidl/transport/manager/1.0/android.hidl.manager@1.0_genc++_headers/gen/android/hidl/manager/1.0/BpHwServiceManager.h"
  parameters {
    basic_abi {
      type_abi {
        name: "const android::hardware::hidl_string &"
        size: 8
        alignment: 8
      }
      name: "fqName"
      access: public_access
      linker_set_key: "false"
    }
    default_arg: false
  }
  parameters {
    basic_abi {
      type_abi {
        name: "std::function<void (const hidl_vec<hidl_string> &)>"
        size: 48
        alignment: 16
      }
      name: "_hidl_cb"
      access: public_access
      linker_set_key: "false"
    }
    default_arg: false
  }
}
functions {
  basic_abi {
    type_abi {
      name: "android::hardware::Return<bool>"
      size: 40
      alignment: 8
    }
    name: "android::hidl::manager::V1_0::BpHwServiceManager::registerForNotifications"
    access: public_access
    linker_set_key: "_ZN7android4hidl7manager4V1_018BpHwServiceManager24registerForNotificationsERKNS_8hardware11hidl_stringES7_RKNS_2spINS2_20IServiceNotificationEEE"
  }
  mangled_function_name: "_ZN7android4hidl7manager4V1_018BpHwServiceManager24registerForNotificationsERKNS_8hardware11hidl_stringES7_RKNS_2spINS2_20IServiceNotificationEEE"
  source_file: "out/soong/.intermediates/system/libhidl/transport/manager/1.0/android.hidl.manager@1.0_genc++_headers/gen/android/hidl/manager/1.0/BpHwServiceManager.h"
  parameters {
    basic_abi {
      type_abi {
        name: "const android::hardware::hidl_string &"
        size: 8
        alignment: 8
      }
      name: "fqName"
      access: public_access
      linker_set_key: "false"
    }
    default_arg: false
  }
  parameters {
    basic_abi {
      type_abi {
        name: "const android::hardware::hidl_string &"
        size: 8
        alignment: 8
      }
      name: "name"
      access: public_access
      linker_set_key: "false"
    }
    default_arg: false
  }
  parameters {
    basic_abi {
      type_abi {
        name: "const android::sp<android::hidl::manager::V1_0::IServiceNotification> &"
        size: 8
        alignment: 8
      }
      name: "callback"
      access: public_access
      linker_set_key: "false"
    }
    default_arg: false
  }
}
functions {
  basic_abi {
    type_abi {
      name: "android::hardware::Return<void>"
      size: 40
      alignment: 8
    }
    name: "android::hidl::manager::V1_0::BpHwServiceManager::debugDump"
    access: public_access
    linker_set_key: "_ZN7android4hidl7manager4V1_018BpHwServiceManager9debugDumpENSt3__18functionIFvRKNS_8hardware8hidl_vecINS2_15IServiceManager17InstanceDebugInfoEEEEEE"
  }
  mangled_function_name: "_ZN7android4hidl7manager4V1_018BpHwServiceManager9debugDumpENSt3__18functionIFvRKNS_8hardware8hidl_vecINS2_15IServiceManager17InstanceDebugInfoEEEEEE"
  source_file: "out/soong/.intermediates/system/libhidl/transport/manager/1.0/android.hidl.manager@1.0_genc++_headers/gen/android/hidl/manager/1.0/BpHwServiceManager.h"
  parameters {
    basic_abi {
      type_abi {
        name: "std::function<void (const hidl_vec<InstanceDebugInfo> &)>"
        size: 48
        alignment: 16
      }
      name: "_hidl_cb"
      access: public_access
      linker_set_key: "false"
    }
    default_arg: false
  }
}
functions {
  basic_abi {
    type_abi {
      name: "android::hardware::Return<void>"
      size: 40
      alignment: 8
    }
    name: "android::hidl::manager::V1_0::BpHwServiceManager::registerPassthroughClient"
    access: public_access
    linker_set_key: "_ZN7android4hidl7manager4V1_018BpHwServiceManager25registerPassthroughClientERKNS_8hardware11hidl_stringES7_"
  }
  mangled_function_name: "_ZN7android4hidl7manager4V1_018BpHwServiceManager25registerPassthroughClientERKNS_8hardware11hidl_stringES7_"
  source_file: "out/soong/.intermediates/system/libhidl/transport/manager/1.0/android.hidl.manager@1.0_genc++_headers/gen/android/hidl/manager/1.0/BpHwServiceManager.h"
  parameters {
    basic_abi {
      type_abi {
        name: "const android::hardware::hidl_string &"
        size: 8
        alignment: 8
      }
      name: "fqName"
      access: public_access
      linker_set_key: "false"
    }
    default_arg: false
  }
  parameters {
    basic_abi {
      type_abi {
        name: "const android::hardware::hidl_string &"
        size: 8
        alignment: 8
      }
      name: "name"
      access: public_access
      linker_set_key: "false"
    }
    default_arg: false
  }
}
functions {
  basic_abi {
    type_abi {
      name: "android::hardware::Return<void>"
      size: 40
      alignment: 8
    }
    name: "android::hidl::manager::V1_0::BpHwServiceManager::interfaceChain"
    access: public_access
    linker_set_key: "_ZN7android4hidl7manager4V1_018BpHwServiceManager14interfaceChainENSt3__18functionIFvRKNS_8hardware8hidl_vecINS6_11hidl_stringEEEEEE"
  }
  mangled_function_name: "_ZN7android4hidl7manager4V1_018BpHwServiceManager14interfaceChainENSt3__18functionIFvRKNS_8hardware8hidl_vecINS6_11hidl_stringEEEEEE"
  source_file: "out/soong/.intermediates/system/libhidl/transport/manager/1.0/android.hidl.manager@1.0_genc++_headers/gen/android/hidl/manager/1.0/BpHwServiceManager.h"
  parameters {
    basic_abi {
      type_abi {
        name: "std::function<void (const hidl_vec<hidl_string> &)>"
        size: 48
        alignment: 16
      }
      name: "_hidl_cb"
      access: public_access
      linker_set_key: "false"
    }
    default_arg: false
  }
}
functions {
  basic_abi {
    type_abi {
      name: "android::hardware::Return<void>"
      size: 40
      alignment: 8
    }
    name: "android::hidl::manager::V1_0::BpHwServiceManager::debug"
    access: public_access
    linker_set_key: "_ZN7android4hidl7manager4V1_018BpHwServiceManager5debugERKNS_8hardware11hidl_handleERKNS4_8hidl_vecINS4_11hidl_stringEEE"
  }
  mangled_function_name: "_ZN7android4hidl7manager4V1_018BpHwServiceManager5debugERKNS_8hardware11hidl_handleERKNS4_8hidl_vecINS4_11hidl_stringEEE"
  source_file: "out/soong/.intermediates/system/libhidl/transport/manager/1.0/android.hidl.manager@1.0_genc++_headers/gen/android/hidl/manager/1.0/BpHwServiceManager.h"
  parameters {
    basic_abi {
      type_abi {
        name: "const android::hardware::hidl_handle &"
        size: 8
        alignment: 8
      }
      name: "fd"
      access: public_access
      linker_set_key: "false"
    }
    default_arg: false
  }
  parameters {
    basic_abi {
      type_abi {
        name: "const android::hardware::hidl_vec<android::hardware::hidl_string> &"
        size: 8
        alignment: 8
      }
      name: "options"
      access: public_access
      linker_set_key: "false"
    }
    default_arg: false
  }
}
functions {
  basic_abi {
    type_abi {
      name: "android::hardware::Return<void>"
      size: 40
      alignment: 8
    }
    name: "android::hidl::manager::V1_0::BpHwServiceManager::interfaceDescriptor"
    access: public_access
    linker_set_key: "_ZN7android4hidl7manager4V1_018BpHwServiceManager19interfaceDescriptorENSt3__18functionIFvRKNS_8hardware11hidl_stringEEEE"
  }
  mangled_function_name: "_ZN7android4hidl7manager4V1_018BpHwServiceManager19interfaceDescriptorENSt3__18functionIFvRKNS_8hardware11hidl_stringEEEE"
  source_file: "out/soong/.intermediates/system/libhidl/transport/manager/1.0/android.hidl.manager@1.0_genc++_headers/gen/android/hidl/manager/1.0/BpHwServiceManager.h"
  parameters {
    basic_abi {
      type_abi {
        name: "std::function<void (const hidl_string &)>"
        size: 48
        alignment: 16
      }
      name: "_hidl_cb"
      access: public_access
      linker_set_key: "false"
    }
    default_arg: false
  }
}
functions {
  basic_abi {
    type_abi {
      name: "android::hardware::Return<void>"
      size: 40
      alignment: 8
    }
    name: "android::hidl::manager::V1_0::BpHwServiceManager::getHashChain"
    access: public_access
    linker_set_key: "_ZN7android4hidl7manager4V1_018BpHwServiceManager12getHashChainENSt3__18functionIFvRKNS_8hardware8hidl_vecINS6_10hidl_arrayIhLm32EJEEEEEEEE"
  }
  mangled_function_name: "_ZN7android4hidl7manager4V1_018BpHwServiceManager12getHashChainENSt3__18functionIFvRKNS_8hardware8hidl_vecINS6_10hidl_arrayIhLm32EJEEEEEEEE"
  source_file: "out/soong/.intermediates/system/libhidl/transport/manager/1.0/android.hidl.manager@1.0_genc++_headers/gen/android/hidl/manager/1.0/BpHwServiceManager.h"
  parameters {
    basic_abi {
      type_abi {
        name: "std::function<void (const hidl_vec<hidl_array<unsigned char, 32> > &)>"
      }
      name: "_hidl_cb"
      access: public_access
      linker_set_key: "false"
    }
    default_arg: false
  }
}
functions {
  basic_abi {
    type_abi {
      name: "android::hardware::Return<void>"
      size: 40
      alignment: 8
    }
    name: "android::hidl::manager::V1_0::BpHwServiceManager::setHALInstrumentation"
    access: public_access
    linker_set_key: "_ZN7android4hidl7manager4V1_018BpHwServiceManager21setHALInstrumentationEv"
  }
  mangled_function_name: "_ZN7android4hidl7manager4V1_018BpHwServiceManager21setHALInstrumentationEv"
  source_file: "out/soong/.intermediates/system/libhidl/transport/manager/1.0/android.hidl.manager@1.0_genc++_headers/gen/android/hidl/manager/1.0/BpHwServiceManager.h"
}
functions {
  basic_abi {
    type_abi {
      name: "android::hardware::Return<bool>"
      size: 40
      alignment: 8
    }
    name: "android::hidl::manager::V1_0::BpHwServiceManager::linkToDeath"
    access: public_access
    linker_set_key: "_ZN7android4hidl7manager4V1_018BpHwServiceManager11linkToDeathERKNS_2spINS_8hardware20hidl_death_recipientEEEm"
  }
  mangled_function_name: "_ZN7android4hidl7manager4V1_018BpHwServiceManager11linkToDeathERKNS_2spINS_8hardware20hidl_death_recipientEEEm"
  source_file: "out/soong/.intermediates/system/libhidl/transport/manager/1.0/android.hidl.manager@1.0_genc++_headers/gen/android/hidl/manager/1.0/BpHwServiceManager.h"
  parameters {
    basic_abi {
      type_abi {
        name: "const android::sp<android::hardware::hidl_death_recipient> &"
        size: 8
        alignment: 8
      }
      name: "recipient"
      access: public_access
      linker_set_key: "false"
    }
    default_arg: false
  }
  parameters {
    basic_abi {
      type_abi {
        name: "unsigned long"
        size: 8
        alignment: 8
      }
      name: "cookie"
      access: public_access
      linker_set_key: "false"
    }
    default_arg: false
  }
}
functions {
  basic_abi {
    type_abi {
      name: "android::hardware::Return<void>"
      size: 40
      alignment: 8
    }
    name: "android::hidl::manager::V1_0::BpHwServiceManager::ping"
    access: public_access
    linker_set_key: "_ZN7android4hidl7manager4V1_018BpHwServiceManager4pingEv"
  }
  mangled_function_name: "_ZN7android4hidl7manager4V1_018BpHwServiceManager4pingEv"
  source_file: "out/soong/.intermediates/system/libhidl/transport/manager/1.0/android.hidl.manager@1.0_genc++_headers/gen/android/hidl/manager/1.0/BpHwServiceManager.h"
}
functions {
  basic_abi {
    type_abi {
      name: "android::hardware::Return<void>"
      size: 40
      alignment: 8
    }
    name: "android::hidl::manager::V1_0::BpHwServiceManager::getDebugInfo"
    access: public_access
    linker_set_key: "_ZN7android4hidl7manager4V1_018BpHwServiceManager12getDebugInfoENSt3__18functionIFvRKNS0_4base4V1_09DebugInfoEEEE"
  }
  mangled_function_name: "_ZN7android4hidl7manager4V1_018BpHwServiceManager12getDebugInfoENSt3__18functionIFvRKNS0_4base4V1_09DebugInfoEEEE"
  source_file: "out/soong/.intermediates/system/libhidl/transport/manager/1.0/android.hidl.manager@1.0_genc++_headers/gen/android/hidl/manager/1.0/BpHwServiceManager.h"
  parameters {
    basic_abi {
      type_abi {
        name: "std::function<void (const DebugInfo &)>"
      }
      name: "_hidl_cb"
      access: public_access
      linker_set_key: "false"
    }
    default_arg: false
  }
}
functions {
  basic_abi {
    type_abi {
      name: "android::hardware::Return<void>"
      size: 40
      alignment: 8
    }
    name: "android::hidl::manager::V1_0::BpHwServiceManager::notifySyspropsChanged"
    access: public_access
    linker_set_key: "_ZN7android4hidl7manager4V1_018BpHwServiceManager21notifySyspropsChangedEv"
  }
  mangled_function_name: "_ZN7android4hidl7manager4V1_018BpHwServiceManager21notifySyspropsChangedEv"
  source_file: "out/soong/.intermediates/system/libhidl/transport/manager/1.0/android.hidl.manager@1.0_genc++_headers/gen/android/hidl/manager/1.0/BpHwServiceManager.h"
}
functions {
  basic_abi {
    type_abi {
      name: "android::hardware::Return<bool>"
      size: 40
      alignment: 8
    }
    name: "android::hidl::manager::V1_0::BpHwServiceManager::unlinkToDeath"
    access: public_access
    linker_set_key: "_ZN7android4hidl7manager4V1_018BpHwServiceManager13unlinkToDeathERKNS_2spINS_8hardware20hidl_death_recipientEEE"
  }
  mangled_function_name: "_ZN7android4hidl7manager4V1_018BpHwServiceManager13unlinkToDeathERKNS_2spINS_8hardware20hidl_death_recipientEEE"
  source_file: "out/soong/.intermediates/system/libhidl/transport/manager/1.0/android.hidl.manager@1.0_genc++_headers/gen/android/hidl/manager/1.0/BpHwServiceManager.h"
  parameters {
    basic_abi {
      type_abi {
        name: "const android::sp<android::hardware::hidl_death_recipient> &"
        size: 8
        alignment: 8
      }
      name: "recipient"
      access: public_access
      linker_set_key: "false"
    }
    default_arg: false
  }
}
functions {
  basic_abi {
    type_abi {
      name: "void"
    }
    name: "android::hidl::manager::V1_0::BnHwServiceManager::BnHwServiceManager"
    access: public_access
    linker_set_key: "_ZN7android4hidl7manager4V1_018BnHwServiceManagerC1ERKNS_2spINS2_15IServiceManagerEEE"
  }
  mangled_function_name: "_ZN7android4hidl7manager4V1_018BnHwServiceManagerC1ERKNS_2spINS2_15IServiceManagerEEE"
  source_file: "out/soong/.intermediates/system/libhidl/transport/manager/1.0/android.hidl.manager@1.0_genc++_headers/gen/android/hidl/manager/1.0/BnHwServiceManager.h"
  parameters {
    basic_abi {
      type_abi {
        name: "const android::sp<android::hidl::manager::V1_0::IServiceManager> &"
        size: 8
        alignment: 8
      }
      name: "_hidl_impl"
      access: public_access
      linker_set_key: "false"
    }
    default_arg: false
  }
}
functions {
  basic_abi {
    type_abi {
      name: "void"
    }
    name: "android::hidl::manager::V1_0::BnHwServiceManager::BnHwServiceManager"
    access: public_access
    linker_set_key: "_ZN7android4hidl7manager4V1_018BnHwServiceManagerC1ERKNS_2spINS2_15IServiceManagerEEERKNSt3__112basic_stringIcNS9_11char_traitsIcEENS9_9allocatorIcEEEESH_"
  }
  mangled_function_name: "_ZN7android4hidl7manager4V1_018BnHwServiceManagerC1ERKNS_2spINS2_15IServiceManagerEEERKNSt3__112basic_stringIcNS9_11char_traitsIcEENS9_9allocatorIcEEEESH_"
  source_file: "out/soong/.intermediates/system/libhidl/transport/manager/1.0/android.hidl.manager@1.0_genc++_headers/gen/android/hidl/manager/1.0/BnHwServiceManager.h"
  parameters {
    basic_abi {
      type_abi {
        name: "const android::sp<android::hidl::manager::V1_0::IServiceManager> &"
        size: 8
        alignment: 8
      }
      name: "_hidl_impl"
      access: public_access
      linker_set_key: "false"
    }
    default_arg: false
  }
  parameters {
    basic_abi {
      type_abi {
        name: "const std::basic_string<char, std::char_traits<char>, std::allocator<char> > &"
        size: 8
        alignment: 8
      }
      name: "HidlInstrumentor_package"
      access: public_access
      linker_set_key: "false"
    }
    default_arg: false
  }
  parameters {
    basic_abi {
      type_abi {
        name: "const std::basic_string<char, std::char_traits<char>, std::allocator<char> > &"
        size: 8
        alignment: 8
      }
      name: "HidlInstrumentor_interface"
      access: public_access
      linker_set_key: "false"
    }
    default_arg: false
  }
}
functions {
  basic_abi {
    type_abi {
      name: "int"
      size: 4
      alignment: 4
    }
    name: "android::hidl::manager::V1_0::BnHwServiceManager::onTransact"
    access: public_access
    linker_set_key: "_ZN7android4hidl7manager4V1_018BnHwServiceManager10onTransactEjRKNS_8hardware6ParcelEPS5_jNSt3__18functionIFvRS5_EEE"
  }
  mangled_function_name: "_ZN7android4hidl7manager4V1_018BnHwServiceManager10onTransactEjRKNS_8hardware6ParcelEPS5_jNSt3__18functionIFvRS5_EEE"
  source_file: "out/soong/.intermediates/system/libhidl/transport/manager/1.0/android.hidl.manager@1.0_genc++_headers/gen/android/hidl/manager/1.0/BnHwServiceManager.h"
  parameters {
    basic_abi {
      type_abi {
        name: "unsigned int"
        size: 4
        alignment: 4
      }
      name: "_hidl_code"
      access: public_access
      linker_set_key: "false"
    }
    default_arg: false
  }
  parameters {
    basic_abi {
      type_abi {
        name: "const android::hardware::Parcel &"
        size: 8
        alignment: 8
      }
      name: "_hidl_data"
      access: public_access
      linker_set_key: "false"
    }
    default_arg: false
  }
  parameters {
    basic_abi {
      type_abi {
        name: "android::hardware::Parcel *"
        size: 8
        alignment: 8
      }
      name: "_hidl_reply"
      access: public_access
      linker_set_key: "false"
    }
    default_arg: false
  }
  parameters {
    basic_abi {
      type_abi {
        name: "unsigned int"
        size: 4
        alignment: 4
      }
      name: "_hidl_flags"
      access: public_access
      linker_set_key: "true"
    }
    default_arg: true
  }
  parameters {
    basic_abi {
      type_abi {
        name: "std::function<void (Parcel &)>"
        size: 48
        alignment: 16
      }
      name: "_hidl_cb"
      access: public_access
      linker_set_key: "true"
    }
    default_arg: true
  }
}
functions {
  basic_abi {
    type_abi {
      name: "android::sp<android::hidl::manager::V1_0::IServiceManager>"
      size: 8
      alignment: 8
    }
    name: "android::hidl::manager::V1_0::BnHwServiceManager::getImpl"
    access: public_access
    linker_set_key: "_ZN7android4hidl7manager4V1_018BnHwServiceManager7getImplEv"
  }
  mangled_function_name: "_ZN7android4hidl7manager4V1_018BnHwServiceManager7getImplEv"
  source_file: "out/soong/.intermediates/system/libhidl/transport/manager/1.0/android.hidl.manager@1.0_genc++_headers/gen/android/hidl/manager/1.0/BnHwServiceManager.h"
}
functions {
  basic_abi {
    type_abi {
      name: "android::hardware::Return<void>"
      size: 40
      alignment: 8
    }
    name: "android::hidl::manager::V1_0::BnHwServiceManager::ping"
    access: private_access
    linker_set_key: "_ZN7android4hidl7manager4V1_018BnHwServiceManager4pingEv"
  }
  mangled_function_name: "_ZN7android4hidl7manager4V1_018BnHwServiceManager4pingEv"
  source_file: "out/soong/.intermediates/system/libhidl/transport/manager/1.0/android.hidl.manager@1.0_genc++_headers/gen/android/hidl/manager/1.0/BnHwServiceManager.h"
}
functions {
  basic_abi {
    type_abi {
      name: "android::hardware::Return<void>"
      size: 40
      alignment: 8
    }
    name: "android::hidl::manager::V1_0::BnHwServiceManager::getDebugInfo"
    access: private_access
    linker_set_key: "_ZN7android4hidl7manager4V1_018BnHwServiceManager12getDebugInfoENSt3__18functionIFvRKNS0_4base4V1_09DebugInfoEEEE"
  }
  mangled_function_name: "_ZN7android4hidl7manager4V1_018BnHwServiceManager12getDebugInfoENSt3__18functionIFvRKNS0_4base4V1_09DebugInfoEEEE"
  source_file: "out/soong/.intermediates/system/libhidl/transport/manager/1.0/android.hidl.manager@1.0_genc++_headers/gen/android/hidl/manager/1.0/BnHwServiceManager.h"
  parameters {
    basic_abi {
      type_abi {
        name: "std::function<void (const DebugInfo &)>"
      }
      name: "_hidl_cb"
      access: public_access
      linker_set_key: "false"
    }
    default_arg: false
  }
}
functions {
  basic_abi {
    type_abi {
      name: "void"
    }
    name: "android::hardware::ConcurrentMap<std::__1::basic_string<char, std::__1::char_traits<char>, std::__1::allocator<char> >, std::__1::function<android::sp<android::hidl::base::V1_0::IBase> (void *)> >::set"
    access: public_access
    linker_set_key: "_ZN7android8hardware13ConcurrentMapINSt3__112basic_stringIcNS2_11char_traitsIcEENS2_9allocatorIcEEEENS2_8functionIFNS_2spINS_4hidl4base4V1_05IBaseEEEPvEEEE3setEOS8_OSI_"
  }
  mangled_function_name: "_ZN7android8hardware13ConcurrentMapINSt3__112basic_stringIcNS2_11char_traitsIcEENS2_9allocatorIcEEEENS2_8functionIFNS_2spINS_4hidl4base4V1_05IBaseEEEPvEEEE3setEOS8_OSI_"
  source_file: "system/libhidl/transport/include/hidl/ConcurrentMap.h"
  parameters {
    basic_abi {
      type_abi {
        name: "std::basic_string<char, std::char_traits<char>, std::allocator<char> > &&"
        size: 8
        alignment: 8
      }
      name: "k"
      access: public_access
      linker_set_key: "false"
    }
    default_arg: false
  }
  parameters {
    basic_abi {
      type_abi {
        name: "std::function<sp<IBase> (void *)> &&"
        size: 8
        alignment: 8
      }
      name: "v"
      access: public_access
      linker_set_key: "false"
    }
    default_arg: false
  }
}
functions {
  basic_abi {
    type_abi {
      name: "const std::function<sp<IBase> (void *)> &"
      size: 8
      alignment: 8
    }
    name: "android::hardware::ConcurrentMap<std::__1::basic_string<char, std::__1::char_traits<char>, std::__1::allocator<char> >, std::__1::function<android::sp<android::hidl::base::V1_0::IBase> (void *)> >::get"
    access: public_access
    linker_set_key: "_ZNK7android8hardware13ConcurrentMapINSt3__112basic_stringIcNS2_11char_traitsIcEENS2_9allocatorIcEEEENS2_8functionIFNS_2spINS_4hidl4base4V1_05IBaseEEEPvEEEE3getERKS8_RKSI_"
  }
  mangled_function_name: "_ZNK7android8hardware13ConcurrentMapINSt3__112basic_stringIcNS2_11char_traitsIcEENS2_9allocatorIcEEEENS2_8functionIFNS_2spINS_4hidl4base4V1_05IBaseEEEPvEEEE3getERKS8_RKSI_"
  source_file: "system/libhidl/transport/include/hidl/ConcurrentMap.h"
  parameters {
    basic_abi {
      type_abi {
        name: "const std::basic_string<char, std::char_traits<char>, std::allocator<char> > &"
        size: 8
        alignment: 8
      }
      name: "k"
      access: public_access
      linker_set_key: "false"
    }
    default_arg: false
  }
  parameters {
    basic_abi {
      type_abi {
        name: "const std::function<sp<IBase> (void *)> &"
        size: 8
        alignment: 8
      }
      name: "def"
      access: public_access
      linker_set_key: "false"
    }
    default_arg: false
  }
}
functions {
  basic_abi {
    type_abi {
      name: "unsigned long"
      size: 8
      alignment: 8
    }
    name: "android::hardware::ConcurrentMap<std::__1::basic_string<char, std::__1::char_traits<char>, std::__1::allocator<char> >, std::__1::function<android::sp<android::hidl::base::V1_0::IBase> (void *)> >::erase"
    access: public_access
    linker_set_key: "_ZN7android8hardware13ConcurrentMapINSt3__112basic_stringIcNS2_11char_traitsIcEENS2_9allocatorIcEEEENS2_8functionIFNS_2spINS_4hidl4base4V1_05IBaseEEEPvEEEE5eraseERKS8_"
  }
  mangled_function_name: "_ZN7android8hardware13ConcurrentMapINSt3__112basic_stringIcNS2_11char_traitsIcEENS2_9allocatorIcEEEENS2_8functionIFNS_2spINS_4hidl4base4V1_05IBaseEEEPvEEEE5eraseERKS8_"
  source_file: "system/libhidl/transport/include/hidl/ConcurrentMap.h"
  parameters {
    basic_abi {
      type_abi {
        name: "const std::basic_string<char, std::char_traits<char>, std::allocator<char> > &"
        size: 8
        alignment: 8
      }
      name: "k"
      access: public_access
      linker_set_key: "false"
    }
    default_arg: false
  }
}
functions {
  basic_abi {
    type_abi {
      name: "int"
      size: 4
      alignment: 4
    }
    name: "android::hardware::readEmbeddedFromParcel"
    access: public_access
    linker_set_key: "_ZN7android8hardware22readEmbeddedFromParcelIiEEiRKNS0_8hidl_vecIT_EERKNS0_6ParcelEmmPm"
  }
  mangled_function_name: "_ZN7android8hardware22readEmbeddedFromParcelIiEEiRKNS0_8hidl_vecIT_EERKNS0_6ParcelEmmPm"
  source_file: "system/libhidl/transport/include/hidl/HidlBinderSupport.h"
  parameters {
    basic_abi {
      type_abi {
        name: "const android::hardware::hidl_vec<int> &"
        size: 8
        alignment: 8
      }
      name: "vec"
      access: public_access
      linker_set_key: "false"
    }
    default_arg: false
  }
  parameters {
    basic_abi {
      type_abi {
        name: "const android::hardware::Parcel &"
        size: 8
        alignment: 8
      }
      name: "parcel"
      access: public_access
      linker_set_key: "false"
    }
    default_arg: false
  }
  parameters {
    basic_abi {
      type_abi {
        name: "unsigned long"
        size: 8
        alignment: 8
      }
      name: "parentHandle"
      access: public_access
      linker_set_key: "false"
    }
    default_arg: false
  }
  parameters {
    basic_abi {
      type_abi {
        name: "unsigned long"
        size: 8
        alignment: 8
      }
      name: "parentOffset"
      access: public_access
      linker_set_key: "false"
    }
    default_arg: false
  }
  parameters {
    basic_abi {
      type_abi {
        name: "unsigned long *"
        size: 8
        alignment: 8
      }
      name: "handle"
      access: public_access
      linker_set_key: "false"
    }
    default_arg: false
  }
  template_info {
    elements {
      basic_abi {
        type_abi {
          name: "int"
          size: 4
          alignment: 4
        }
        linker_set_key: "int"
      }
    }
  }
}
functions {
  basic_abi {
    type_abi {
      name: "int"
      size: 4
      alignment: 4
    }
    name: "android::hardware::readEmbeddedFromParcel"
    access: public_access
    linker_set_key: "_ZN7android8hardware22readEmbeddedFromParcelINS0_11hidl_stringEEEiRKNS0_8hidl_vecIT_EERKNS0_6ParcelEmmPm"
  }
  mangled_function_name: "_ZN7android8hardware22readEmbeddedFromParcelINS0_11hidl_stringEEEiRKNS0_8hidl_vecIT_EERKNS0_6ParcelEmmPm"
  source_file: "system/libhidl/transport/include/hidl/HidlBinderSupport.h"
  parameters {
    basic_abi {
      type_abi {
        name: "const android::hardware::hidl_vec<android::hardware::hidl_string> &"
        size: 8
        alignment: 8
      }
      name: "vec"
      access: public_access
      linker_set_key: "false"
    }
    default_arg: false
  }
  parameters {
    basic_abi {
      type_abi {
        name: "const android::hardware::Parcel &"
        size: 8
        alignment: 8
      }
      name: "parcel"
      access: public_access
      linker_set_key: "false"
    }
    default_arg: false
  }
  parameters {
    basic_abi {
      type_abi {
        name: "unsigned long"
        size: 8
        alignment: 8
      }
      name: "parentHandle"
      access: public_access
      linker_set_key: "false"
    }
    default_arg: false
  }
  parameters {
    basic_abi {
      type_abi {
        name: "unsigned long"
        size: 8
        alignment: 8
      }
      name: "parentOffset"
      access: public_access
      linker_set_key: "false"
    }
    default_arg: false
  }
  parameters {
    basic_abi {
      type_abi {
        name: "unsigned long *"
        size: 8
        alignment: 8
      }
      name: "handle"
      access: public_access
      linker_set_key: "false"
    }
    default_arg: false
  }
  template_info {
    elements {
      basic_abi {
        type_abi {
          name: "android::hardware::hidl_string"
          size: 16
          alignment: 8
        }
        linker_set_key: "android::hardware::hidl_string"
      }
    }
  }
}
functions {
  basic_abi {
    type_abi {
      name: "int"
      size: 4
      alignment: 4
    }
    name: "android::hardware::readEmbeddedFromParcel"
    access: public_access
    linker_set_key: "_ZN7android8hardware22readEmbeddedFromParcelINS_4hidl7manager4V1_015IServiceManager17InstanceDebugInfoEEEiRKNS0_8hidl_vecIT_EERKNS0_6ParcelEmmPm"
  }
  mangled_function_name: "_ZN7android8hardware22readEmbeddedFromParcelINS_4hidl7manager4V1_015IServiceManager17InstanceDebugInfoEEEiRKNS0_8hidl_vecIT_EERKNS0_6ParcelEmmPm"
  source_file: "system/libhidl/transport/include/hidl/HidlBinderSupport.h"
  parameters {
    basic_abi {
      type_abi {
        name: "const android::hardware::hidl_vec<android::hidl::manager::V1_0::IServiceManager::InstanceDebugInfo> &"
        size: 8
        alignment: 8
      }
      name: "vec"
      access: public_access
      linker_set_key: "false"
    }
    default_arg: false
  }
  parameters {
    basic_abi {
      type_abi {
        name: "const android::hardware::Parcel &"
        size: 8
        alignment: 8
      }
      name: "parcel"
      access: public_access
      linker_set_key: "false"
    }
    default_arg: false
  }
  parameters {
    basic_abi {
      type_abi {
        name: "unsigned long"
        size: 8
        alignment: 8
      }
      name: "parentHandle"
      access: public_access
      linker_set_key: "false"
    }
    default_arg: false
  }
  parameters {
    basic_abi {
      type_abi {
        name: "unsigned long"
        size: 8
        alignment: 8
      }
      name: "parentOffset"
      access: public_access
      linker_set_key: "false"
    }
    default_arg: false
  }
  parameters {
    basic_abi {
      type_abi {
        name: "unsigned long *"
        size: 8
        alignment: 8
      }
      name: "handle"
      access: public_access
      linker_set_key: "false"
    }
    default_arg: false
  }
  template_info {
    elements {
      basic_abi {
        type_abi {
          name: "android::hidl::manager::V1_0::IServiceManager::InstanceDebugInfo"
          size: 64
          alignment: 8
        }
        linker_set_key: "android::hidl::manager::V1_0::IServiceManager::InstanceDebugInfo"
      }
    }
  }
}
functions {
  basic_abi {
    type_abi {
      name: "int"
      size: 4
      alignment: 4
    }
    name: "android::hardware::readEmbeddedFromParcel"
    access: public_access
    linker_set_key: "_ZN7android8hardware22readEmbeddedFromParcelINS0_10hidl_arrayIhLm32EJEEEEEiRKNS0_8hidl_vecIT_EERKNS0_6ParcelEmmPm"
  }
  mangled_function_name: "_ZN7android8hardware22readEmbeddedFromParcelINS0_10hidl_arrayIhLm32EJEEEEEiRKNS0_8hidl_vecIT_EERKNS0_6ParcelEmmPm"
  source_file: "system/libhidl/transport/include/hidl/HidlBinderSupport.h"
  parameters {
    basic_abi {
      type_abi {
        name: "const android::hardware::hidl_vec<android::hardware::hidl_array<unsigned char, 32> > &"
        size: 8
        alignment: 8
      }
      name: "vec"
      access: public_access
      linker_set_key: "false"
    }
    default_arg: false
  }
  parameters {
    basic_abi {
      type_abi {
        name: "const android::hardware::Parcel &"
        size: 8
        alignment: 8
      }
      name: "parcel"
      access: public_access
      linker_set_key: "false"
    }
    default_arg: false
  }
  parameters {
    basic_abi {
      type_abi {
        name: "unsigned long"
        size: 8
        alignment: 8
      }
      name: "parentHandle"
      access: public_access
      linker_set_key: "false"
    }
    default_arg: false
  }
  parameters {
    basic_abi {
      type_abi {
        name: "unsigned long"
        size: 8
        alignment: 8
      }
      name: "parentOffset"
      access: public_access
      linker_set_key: "false"
    }
    default_arg: false
  }
  parameters {
    basic_abi {
      type_abi {
        name: "unsigned long *"
        size: 8
        alignment: 8
      }
      name: "handle"
      access: public_access
      linker_set_key: "false"
    }
    default_arg: false
  }
  template_info {
    elements {
      basic_abi {
        type_abi {
          name: "android::hardware::hidl_array<unsigned char, 32>"
          size: 32
          alignment: 1
        }
        linker_set_key: "android::hardware::hidl_array<unsigned char, 32>"
      }
    }
  }
}
functions {
  basic_abi {
    type_abi {
      name: "int"
      size: 4
      alignment: 4
    }
    name: "android::hardware::writeEmbeddedToParcel"
    access: public_access
    linker_set_key: "_ZN7android8hardware21writeEmbeddedToParcelIiEEiRKNS0_8hidl_vecIT_EEPNS0_6ParcelEmmPm"
  }
  mangled_function_name: "_ZN7android8hardware21writeEmbeddedToParcelIiEEiRKNS0_8hidl_vecIT_EEPNS0_6ParcelEmmPm"
  source_file: "system/libhidl/transport/include/hidl/HidlBinderSupport.h"
  parameters {
    basic_abi {
      type_abi {
        name: "const android::hardware::hidl_vec<int> &"
        size: 8
        alignment: 8
      }
      name: "vec"
      access: public_access
      linker_set_key: "false"
    }
    default_arg: false
  }
  parameters {
    basic_abi {
      type_abi {
        name: "android::hardware::Parcel *"
        size: 8
        alignment: 8
      }
      name: "parcel"
      access: public_access
      linker_set_key: "false"
    }
    default_arg: false
  }
  parameters {
    basic_abi {
      type_abi {
        name: "unsigned long"
        size: 8
        alignment: 8
      }
      name: "parentHandle"
      access: public_access
      linker_set_key: "false"
    }
    default_arg: false
  }
  parameters {
    basic_abi {
      type_abi {
        name: "unsigned long"
        size: 8
        alignment: 8
      }
      name: "parentOffset"
      access: public_access
      linker_set_key: "false"
    }
    default_arg: false
  }
  parameters {
    basic_abi {
      type_abi {
        name: "unsigned long *"
        size: 8
        alignment: 8
      }
      name: "handle"
      access: public_access
      linker_set_key: "false"
    }
    default_arg: false
  }
  template_info {
    elements {
      basic_abi {
        type_abi {
          name: "int"
          size: 4
          alignment: 4
        }
        linker_set_key: "int"
      }
    }
  }
}
functions {
  basic_abi {
    type_abi {
      name: "int"
      size: 4
      alignment: 4
    }
    name: "android::hardware::writeEmbeddedToParcel"
    access: public_access
    linker_set_key: "_ZN7android8hardware21writeEmbeddedToParcelINS0_11hidl_stringEEEiRKNS0_8hidl_vecIT_EEPNS0_6ParcelEmmPm"
  }
  mangled_function_name: "_ZN7android8hardware21writeEmbeddedToParcelINS0_11hidl_stringEEEiRKNS0_8hidl_vecIT_EEPNS0_6ParcelEmmPm"
  source_file: "system/libhidl/transport/include/hidl/HidlBinderSupport.h"
  parameters {
    basic_abi {
      type_abi {
        name: "const android::hardware::hidl_vec<android::hardware::hidl_string> &"
        size: 8
        alignment: 8
      }
      name: "vec"
      access: public_access
      linker_set_key: "false"
    }
    default_arg: false
  }
  parameters {
    basic_abi {
      type_abi {
        name: "android::hardware::Parcel *"
        size: 8
        alignment: 8
      }
      name: "parcel"
      access: public_access
      linker_set_key: "false"
    }
    default_arg: false
  }
  parameters {
    basic_abi {
      type_abi {
        name: "unsigned long"
        size: 8
        alignment: 8
      }
      name: "parentHandle"
      access: public_access
      linker_set_key: "false"
    }
    default_arg: false
  }
  parameters {
    basic_abi {
      type_abi {
        name: "unsigned long"
        size: 8
        alignment: 8
      }
      name: "parentOffset"
      access: public_access
      linker_set_key: "false"
    }
    default_arg: false
  }
  parameters {
    basic_abi {
      type_abi {
        name: "unsigned long *"
        size: 8
        alignment: 8
      }
      name: "handle"
      access: public_access
      linker_set_key: "false"
    }
    default_arg: false
  }
  template_info {
    elements {
      basic_abi {
        type_abi {
          name: "android::hardware::hidl_string"
          size: 16
          alignment: 8
        }
        linker_set_key: "android::hardware::hidl_string"
      }
    }
  }
}
functions {
  basic_abi {
    type_abi {
      name: "int"
      size: 4
      alignment: 4
    }
    name: "android::hardware::writeEmbeddedToParcel"
    access: public_access
    linker_set_key: "_ZN7android8hardware21writeEmbeddedToParcelINS_4hidl7manager4V1_015IServiceManager17InstanceDebugInfoEEEiRKNS0_8hidl_vecIT_EEPNS0_6ParcelEmmPm"
  }
  mangled_function_name: "_ZN7android8hardware21writeEmbeddedToParcelINS_4hidl7manager4V1_015IServiceManager17InstanceDebugInfoEEEiRKNS0_8hidl_vecIT_EEPNS0_6ParcelEmmPm"
  source_file: "system/libhidl/transport/include/hidl/HidlBinderSupport.h"
  parameters {
    basic_abi {
      type_abi {
        name: "const android::hardware::hidl_vec<android::hidl::manager::V1_0::IServiceManager::InstanceDebugInfo> &"
        size: 8
        alignment: 8
      }
      name: "vec"
      access: public_access
      linker_set_key: "false"
    }
    default_arg: false
  }
  parameters {
    basic_abi {
      type_abi {
        name: "android::hardware::Parcel *"
        size: 8
        alignment: 8
      }
      name: "parcel"
      access: public_access
      linker_set_key: "false"
    }
    default_arg: false
  }
  parameters {
    basic_abi {
      type_abi {
        name: "unsigned long"
        size: 8
        alignment: 8
      }
      name: "parentHandle"
      access: public_access
      linker_set_key: "false"
    }
    default_arg: false
  }
  parameters {
    basic_abi {
      type_abi {
        name: "unsigned long"
        size: 8
        alignment: 8
      }
      name: "parentOffset"
      access: public_access
      linker_set_key: "false"
    }
    default_arg: false
  }
  parameters {
    basic_abi {
      type_abi {
        name: "unsigned long *"
        size: 8
        alignment: 8
      }
      name: "handle"
      access: public_access
      linker_set_key: "false"
    }
    default_arg: false
  }
  template_info {
    elements {
      basic_abi {
        type_abi {
          name: "android::hidl::manager::V1_0::IServiceManager::InstanceDebugInfo"
          size: 64
          alignment: 8
        }
        linker_set_key: "android::hidl::manager::V1_0::IServiceManager::InstanceDebugInfo"
      }
    }
  }
}
functions {
  basic_abi {
    type_abi {
      name: "int"
      size: 4
      alignment: 4
    }
    name: "android::hardware::writeEmbeddedToParcel"
    access: public_access
    linker_set_key: "_ZN7android8hardware21writeEmbeddedToParcelINS0_10hidl_arrayIhLm32EJEEEEEiRKNS0_8hidl_vecIT_EEPNS0_6ParcelEmmPm"
  }
  mangled_function_name: "_ZN7android8hardware21writeEmbeddedToParcelINS0_10hidl_arrayIhLm32EJEEEEEiRKNS0_8hidl_vecIT_EEPNS0_6ParcelEmmPm"
  source_file: "system/libhidl/transport/include/hidl/HidlBinderSupport.h"
  parameters {
    basic_abi {
      type_abi {
        name: "const android::hardware::hidl_vec<android::hardware::hidl_array<unsigned char, 32> > &"
        size: 8
        alignment: 8
      }
      name: "vec"
      access: public_access
      linker_set_key: "false"
    }
    default_arg: false
  }
  parameters {
    basic_abi {
      type_abi {
        name: "android::hardware::Parcel *"
        size: 8
        alignment: 8
      }
      name: "parcel"
      access: public_access
      linker_set_key: "false"
    }
    default_arg: false
  }
  parameters {
    basic_abi {
      type_abi {
        name: "unsigned long"
        size: 8
        alignment: 8
      }
      name: "parentHandle"
      access: public_access
      linker_set_key: "false"
    }
    default_arg: false
  }
  parameters {
    basic_abi {
      type_abi {
        name: "unsigned long"
        size: 8
        alignment: 8
      }
      name: "parentOffset"
      access: public_access
      linker_set_key: "false"
    }
    default_arg: false
  }
  parameters {
    basic_abi {
      type_abi {
        name: "unsigned long *"
        size: 8
        alignment: 8
      }
      name: "handle"
      access: public_access
      linker_set_key: "false"
    }
    default_arg: false
  }
  template_info {
    elements {
      basic_abi {
        type_abi {
          name: "android::hardware::hidl_array<unsigned char, 32>"
          size: 32
          alignment: 1
        }
        linker_set_key: "android::hardware::hidl_array<unsigned char, 32>"
      }
    }
  }
}
functions {
  basic_abi {
    type_abi {
      name: "android::sp<android::hardware::IBinder>"
      size: 8
      alignment: 8
    }
    name: "android::hardware::toBinder"
    access: public_access
    linker_set_key: "_ZN7android8hardware8toBinderINS_4hidl4base4V1_05IBaseENS4_8BpHwBaseEEENS_2spINS0_7IBinderEEENS7_IT_EE"
  }
  mangled_function_name: "_ZN7android8hardware8toBinderINS_4hidl4base4V1_05IBaseENS4_8BpHwBaseEEENS_2spINS0_7IBinderEEENS7_IT_EE"
  source_file: "system/libhidl/transport/include/hidl/HidlBinderSupport.h"
  parameters {
    basic_abi {
      type_abi {
        name: "android::sp<android::hidl::base::V1_0::IBase>"
        size: 8
        alignment: 8
      }
      name: "iface"
      access: public_access
      linker_set_key: "false"
    }
    default_arg: false
  }
  template_info {
    elements {
      basic_abi {
        type_abi {
          name: "android::hidl::base::V1_0::IBase"
          size: 24
          alignment: 8
        }
        linker_set_key: "android::hidl::base::V1_0::IBase"
      }
    }
    elements {
      basic_abi {
        type_abi {
          name: "android::hidl::base::V1_0::BpHwBase"
          size: 216
          alignment: 8
        }
        linker_set_key: "android::hidl::base::V1_0::BpHwBase"
      }
    }
  }
}
functions {
  basic_abi {
    type_abi {
      name: "android::sp<android::hardware::IBinder>"
      size: 8
      alignment: 8
    }
    name: "android::hardware::toBinder"
    access: public_access
    linker_set_key: "_ZN7android8hardware8toBinderINS_4hidl7manager4V1_020IServiceNotificationENS4_23BpHwServiceNotificationEEENS_2spINS0_7IBinderEEENS7_IT_EE"
  }
  mangled_function_name: "_ZN7android8hardware8toBinderINS_4hidl7manager4V1_020IServiceNotificationENS4_23BpHwServiceNotificationEEENS_2spINS0_7IBinderEEENS7_IT_EE"
  source_file: "system/libhidl/transport/include/hidl/HidlBinderSupport.h"
  parameters {
    basic_abi {
      type_abi {
        name: "android::sp<android::hidl::manager::V1_0::IServiceNotification>"
        size: 8
        alignment: 8
      }
      name: "iface"
      access: public_access
      linker_set_key: "false"
    }
    default_arg: false
  }
  template_info {
    elements {
      basic_abi {
        type_abi {
          name: "android::hidl::manager::V1_0::IServiceNotification"
          size: 24
          alignment: 8
        }
        linker_set_key: "android::hidl::manager::V1_0::IServiceNotification"
      }
    }
    elements {
      basic_abi {
        type_abi {
          name: "android::hidl::manager::V1_0::BpHwServiceNotification"
          size: 216
          alignment: 8
        }
        linker_set_key: "android::hidl::manager::V1_0::BpHwServiceNotification"
      }
    }
  }
}
functions {
  basic_abi {
    type_abi {
      name: "android::sp<android::hidl::base::V1_0::IBase>"
      size: 8
      alignment: 8
    }
    name: "android::hardware::fromBinder"
    access: public_access
    linker_set_key: "_ZN7android8hardware10fromBinderINS_4hidl4base4V1_05IBaseENS4_8BpHwBaseENS4_8BnHwBaseEEENS_2spIT_EERKNS8_INS0_7IBinderEEE"
  }
  mangled_function_name: "_ZN7android8hardware10fromBinderINS_4hidl4base4V1_05IBaseENS4_8BpHwBaseENS4_8BnHwBaseEEENS_2spIT_EERKNS8_INS0_7IBinderEEE"
  source_file: "system/libhidl/transport/include/hidl/HidlBinderSupport.h"
  parameters {
    basic_abi {
      type_abi {
        name: "const android::sp<android::hardware::IBinder> &"
        size: 8
        alignment: 8
      }
      name: "binderIface"
      access: public_access
      linker_set_key: "false"
    }
    default_arg: false
  }
  template_info {
    elements {
      basic_abi {
        type_abi {
          name: "android::hidl::base::V1_0::IBase"
          size: 24
          alignment: 8
        }
        linker_set_key: "android::hidl::base::V1_0::IBase"
      }
    }
    elements {
      basic_abi {
        type_abi {
          name: "android::hidl::base::V1_0::BpHwBase"
          size: 216
          alignment: 8
        }
        linker_set_key: "android::hidl::base::V1_0::BpHwBase"
      }
    }
    elements {
      basic_abi {
        type_abi {
          name: "android::hidl::base::V1_0::BnHwBase"
          size: 144
          alignment: 8
        }
        linker_set_key: "android::hidl::base::V1_0::BnHwBase"
      }
    }
  }
}
functions {
  basic_abi {
    type_abi {
      name: "android::sp<android::hidl::manager::V1_0::IServiceNotification>"
      size: 8
      alignment: 8
    }
    name: "android::hardware::fromBinder"
    access: public_access
    linker_set_key: "_ZN7android8hardware10fromBinderINS_4hidl7manager4V1_020IServiceNotificationENS4_23BpHwServiceNotificationENS4_23BnHwServiceNotificationEEENS_2spIT_EERKNS8_INS0_7IBinderEEE"
  }
  mangled_function_name: "_ZN7android8hardware10fromBinderINS_4hidl7manager4V1_020IServiceNotificationENS4_23BpHwServiceNotificationENS4_23BnHwServiceNotificationEEENS_2spIT_EERKNS8_INS0_7IBinderEEE"
  source_file: "system/libhidl/transport/include/hidl/HidlBinderSupport.h"
  parameters {
    basic_abi {
      type_abi {
        name: "const android::sp<android::hardware::IBinder> &"
        size: 8
        alignment: 8
      }
      name: "binderIface"
      access: public_access
      linker_set_key: "false"
    }
    default_arg: false
  }
  template_info {
    elements {
      basic_abi {
        type_abi {
          name: "android::hidl::manager::V1_0::IServiceNotification"
          size: 24
          alignment: 8
        }
        linker_set_key: "android::hidl::manager::V1_0::IServiceNotification"
      }
    }
    elements {
      basic_abi {
        type_abi {
          name: "android::hidl::manager::V1_0::BpHwServiceNotification"
          size: 216
          alignment: 8
        }
        linker_set_key: "android::hidl::manager::V1_0::BpHwServiceNotification"
      }
    }
    elements {
      basic_abi {
        type_abi {
          name: "android::hidl::manager::V1_0::BnHwServiceNotification"
          size: 152
          alignment: 8
        }
        linker_set_key: "android::hidl::manager::V1_0::BnHwServiceNotification"
      }
    }
  }
}
functions {
  basic_abi {
    type_abi {
      name: "android::hardware::Return<android::sp<android::hidl::manager::V1_0::IServiceManager> >"
      size: 48
      alignment: 8
    }
    name: "android::hardware::details::castInterface"
    access: public_access
    linker_set_key: "_ZN7android8hardware7details13castInterfaceINS_4hidl7manager4V1_015IServiceManagerENS3_4base4V1_05IBaseENS5_18BpHwServiceManagerENS8_8BpHwBaseEEENS0_6ReturnINS_2spIT_EEEENSD_IT0_EEPKcb"
  }
  mangled_function_name: "_ZN7android8hardware7details13castInterfaceINS_4hidl7manager4V1_015IServiceManagerENS3_4base4V1_05IBaseENS5_18BpHwServiceManagerENS8_8BpHwBaseEEENS0_6ReturnINS_2spIT_EEEENSD_IT0_EEPKcb"
  source_file: "system/libhidl/transport/include/hidl/HidlTransportSupport.h"
  parameters {
    basic_abi {
      type_abi {
        name: "android::sp<android::hidl::base::V1_0::IBase>"
        size: 8
        alignment: 8
      }
      name: "parent"
      access: public_access
      linker_set_key: "false"
    }
    default_arg: false
  }
  parameters {
    basic_abi {
      type_abi {
        name: "const char *"
        size: 8
        alignment: 8
      }
      name: "childIndicator"
      access: public_access
      linker_set_key: "false"
    }
    default_arg: false
  }
  parameters {
    basic_abi {
      type_abi {
        name: "bool"
        size: 1
        alignment: 1
      }
      name: "emitError"
      access: public_access
      linker_set_key: "false"
    }
    default_arg: false
  }
  template_info {
    elements {
      basic_abi {
        type_abi {
          name: "android::hidl::manager::V1_0::IServiceManager"
          size: 24
          alignment: 8
        }
        linker_set_key: "android::hidl::manager::V1_0::IServiceManager"
      }
    }
    elements {
      basic_abi {
        type_abi {
          name: "android::hidl::base::V1_0::IBase"
          size: 24
          alignment: 8
        }
        linker_set_key: "android::hidl::base::V1_0::IBase"
      }
    }
    elements {
      basic_abi {
        type_abi {
          name: "android::hidl::manager::V1_0::BpHwServiceManager"
          size: 216
          alignment: 8
        }
        linker_set_key: "android::hidl::manager::V1_0::BpHwServiceManager"
      }
    }
    elements {
      basic_abi {
        type_abi {
          name: "android::hidl::base::V1_0::BpHwBase"
          size: 216
          alignment: 8
        }
        linker_set_key: "android::hidl::base::V1_0::BpHwBase"
      }
    }
  }
}
functions {
  basic_abi {
    type_abi {
      name: "int"
      size: 4
      alignment: 4
    }
    name: "android::hardware::registerPassthroughServiceImplementation"
    access: public_access
    linker_set_key: "_ZN7android8hardware40registerPassthroughServiceImplementationENSt3__112basic_stringIcNS1_11char_traitsIcEENS1_9allocatorIcEEEE"
  }
  mangled_function_name: "_ZN7android8hardware40registerPassthroughServiceImplementationENSt3__112basic_stringIcNS1_11char_traitsIcEENS1_9allocatorIcEEEE"
  source_file: "system/libhidl/transport/include/hidl/LegacySupport.h"
  parameters {
    basic_abi {
      type_abi {
        name: "std::basic_string<char, std::char_traits<char>, std::allocator<char> >"
        size: 24
        alignment: 8
      }
      name: "name"
      access: public_access
      linker_set_key: "true"
    }
    default_arg: true
  }
  template_info {
    elements {
      basic_abi {
        name: "Interface"
        linker_set_key: "Interface"
      }
    }
  }
}
functions {
  basic_abi {
    type_abi {
      name: "int"
      size: 4
      alignment: 4
    }
    name: "android::hardware::defaultPassthroughServiceImplementation"
    access: public_access
    linker_set_key: "_ZN7android8hardware39defaultPassthroughServiceImplementationENSt3__112basic_stringIcNS1_11char_traitsIcEENS1_9allocatorIcEEEEm"
  }
  mangled_function_name: "_ZN7android8hardware39defaultPassthroughServiceImplementationENSt3__112basic_stringIcNS1_11char_traitsIcEENS1_9allocatorIcEEEEm"
  source_file: "system/libhidl/transport/include/hidl/LegacySupport.h"
  parameters {
    basic_abi {
      type_abi {
        name: "std::basic_string<char, std::char_traits<char>, std::allocator<char> >"
        size: 24
        alignment: 8
      }
      name: "name"
      access: public_access
      linker_set_key: "false"
    }
    default_arg: false
  }
  parameters {
    basic_abi {
      type_abi {
        name: "unsigned long"
        size: 8
        alignment: 8
      }
      name: "maxThreads"
      access: public_access
      linker_set_key: "true"
    }
    default_arg: true
  }
  template_info {
    elements {
      basic_abi {
        name: "Interface"
        linker_set_key: "Interface"
      }
    }
  }
}
functions {
  basic_abi {
    type_abi {
      name: "int"
      size: 4
      alignment: 4
    }
    name: "android::hardware::defaultPassthroughServiceImplementation"
    access: public_access
    linker_set_key: "_ZN7android8hardware39defaultPassthroughServiceImplementationEm"
  }
  mangled_function_name: "_ZN7android8hardware39defaultPassthroughServiceImplementationEm"
  source_file: "system/libhidl/transport/include/hidl/LegacySupport.h"
  parameters {
    basic_abi {
      type_abi {
        name: "unsigned long"
        size: 8
        alignment: 8
      }
      name: "maxThreads"
      access: public_access
      linker_set_key: "true"
    }
    default_arg: true
  }
  template_info {
    elements {
      basic_abi {
        name: "Interface"
        linker_set_key: "Interface"
      }
    }
  }
}
functions {
  basic_abi {
    type_abi {
      name: "android::sp<android::hidl::base::V1_0::IBase>"
      size: 8
      alignment: 8
    }
    name: "android::hardware::details::wrapPassthrough"
    access: public_access
    linker_set_key: "_ZN7android8hardware7details15wrapPassthroughENS_2spIT_EE"
  }
  mangled_function_name: "_ZN7android8hardware7details15wrapPassthroughENS_2spIT_EE"
  source_file: "system/libhidl/transport/include/hidl/HidlPassthroughSupport.h"
  parameters {
    basic_abi {
      type_abi {
        name: "sp<type-parameter-0-0>"
      }
      name: "iface"
      access: public_access
      linker_set_key: "false"
    }
    default_arg: false
  }
  template_info {
    elements {
      basic_abi {
        name: "IType"
        linker_set_key: "IType"
      }
    }
  }
}
functions {
  basic_abi {
    type_abi {
      name: "android::sp<android::hidl::base::V1_0::IBase>"
      size: 8
      alignment: 8
    }
    name: "android::hardware::details::wrapPassthrough"
    access: public_access
    linker_set_key: "_ZN7android8hardware7details15wrapPassthroughINS_4hidl4base4V1_05IBaseEEENS_2spIS6_EENS7_IT_EE"
  }
  mangled_function_name: "_ZN7android8hardware7details15wrapPassthroughINS_4hidl4base4V1_05IBaseEEENS_2spIS6_EENS7_IT_EE"
  source_file: "system/libhidl/transport/include/hidl/HidlPassthroughSupport.h"
  parameters {
    basic_abi {
      type_abi {
        name: "android::sp<android::hidl::base::V1_0::IBase>"
        size: 8
        alignment: 8
      }
      name: "iface"
      access: public_access
      linker_set_key: "false"
    }
    default_arg: false
  }
  template_info {
    elements {
      basic_abi {
        type_abi {
          name: "android::hidl::base::V1_0::IBase"
          size: 24
          alignment: 8
        }
        linker_set_key: "android::hidl::base::V1_0::IBase"
      }
    }
  }
}
functions {
  basic_abi {
    type_abi {
      name: "android::sp<android::hidl::base::V1_0::IBase>"
      size: 8
      alignment: 8
    }
    name: "android::hardware::details::wrapPassthrough"
    access: public_access
    linker_set_key: "_ZN7android8hardware7details15wrapPassthroughINS_4hidl7manager4V1_020IServiceNotificationEEENS_2spINS3_4base4V1_05IBaseEEENS7_IT_EE"
  }
  mangled_function_name: "_ZN7android8hardware7details15wrapPassthroughINS_4hidl7manager4V1_020IServiceNotificationEEENS_2spINS3_4base4V1_05IBaseEEENS7_IT_EE"
  source_file: "system/libhidl/transport/include/hidl/HidlPassthroughSupport.h"
  parameters {
    basic_abi {
      type_abi {
        name: "android::sp<android::hidl::manager::V1_0::IServiceNotification>"
        size: 8
        alignment: 8
      }
      name: "iface"
      access: public_access
      linker_set_key: "false"
    }
    default_arg: false
  }
  template_info {
    elements {
      basic_abi {
        type_abi {
          name: "android::hidl::manager::V1_0::IServiceNotification"
          size: 24
          alignment: 8
        }
        linker_set_key: "android::hidl::manager::V1_0::IServiceNotification"
      }
    }
  }
}
functions {
  basic_abi {
    type_abi {
      name: "void"
    }
    name: "android::hidl::manager::V1_0::BsServiceManager::BsServiceManager"
    access: public_access
    linker_set_key: "_ZN7android4hidl7manager4V1_016BsServiceManagerC1ENS_2spINS2_15IServiceManagerEEE"
  }
  mangled_function_name: "_ZN7android4hidl7manager4V1_016BsServiceManagerC1ENS_2spINS2_15IServiceManagerEEE"
  source_file: "out/soong/.intermediates/system/libhidl/transport/manager/1.0/android.hidl.manager@1.0_genc++_headers/gen/android/hidl/manager/1.0/BsServiceManager.h"
  parameters {
    basic_abi {
      type_abi {
        name: "const android::sp<android::hidl::manager::V1_0::IServiceManager>"
        size: 8
        alignment: 8
      }
      name: "impl"
      access: public_access
      linker_set_key: "false"
    }
    default_arg: false
  }
}
functions {
  basic_abi {
    type_abi {
      name: "android::hardware::Return<android::sp<android::hidl::base::V1_0::IBase> >"
      size: 48
      alignment: 8
    }
    name: "android::hidl::manager::V1_0::BsServiceManager::get"
    access: public_access
    linker_set_key: "_ZN7android4hidl7manager4V1_016BsServiceManager3getERKNS_8hardware11hidl_stringES7_"
  }
  mangled_function_name: "_ZN7android4hidl7manager4V1_016BsServiceManager3getERKNS_8hardware11hidl_stringES7_"
  source_file: "out/soong/.intermediates/system/libhidl/transport/manager/1.0/android.hidl.manager@1.0_genc++_headers/gen/android/hidl/manager/1.0/BsServiceManager.h"
  parameters {
    basic_abi {
      type_abi {
        name: "const android::hardware::hidl_string &"
        size: 8
        alignment: 8
      }
      name: "fqName"
      access: public_access
      linker_set_key: "false"
    }
    default_arg: false
  }
  parameters {
    basic_abi {
      type_abi {
        name: "const android::hardware::hidl_string &"
        size: 8
        alignment: 8
      }
      name: "name"
      access: public_access
      linker_set_key: "false"
    }
    default_arg: false
  }
}
functions {
  basic_abi {
    type_abi {
      name: "android::hardware::Return<bool>"
      size: 40
      alignment: 8
    }
    name: "android::hidl::manager::V1_0::BsServiceManager::add"
    access: public_access
    linker_set_key: "_ZN7android4hidl7manager4V1_016BsServiceManager3addERKNS_8hardware11hidl_stringERKNS_2spINS0_4base4V1_05IBaseEEE"
  }
  mangled_function_name: "_ZN7android4hidl7manager4V1_016BsServiceManager3addERKNS_8hardware11hidl_stringERKNS_2spINS0_4base4V1_05IBaseEEE"
  source_file: "out/soong/.intermediates/system/libhidl/transport/manager/1.0/android.hidl.manager@1.0_genc++_headers/gen/android/hidl/manager/1.0/BsServiceManager.h"
  parameters {
    basic_abi {
      type_abi {
        name: "const android::hardware::hidl_string &"
        size: 8
        alignment: 8
      }
      name: "name"
      access: public_access
      linker_set_key: "false"
    }
    default_arg: false
  }
  parameters {
    basic_abi {
      type_abi {
        name: "const android::sp<android::hidl::base::V1_0::IBase> &"
        size: 8
        alignment: 8
      }
      name: "service"
      access: public_access
      linker_set_key: "false"
    }
    default_arg: false
  }
}
functions {
  basic_abi {
    type_abi {
      name: "android::hardware::Return<android::hidl::manager::V1_0::IServiceManager::Transport>"
      size: 40
      alignment: 8
    }
    name: "android::hidl::manager::V1_0::BsServiceManager::getTransport"
    access: public_access
    linker_set_key: "_ZN7android4hidl7manager4V1_016BsServiceManager12getTransportERKNS_8hardware11hidl_stringES7_"
  }
  mangled_function_name: "_ZN7android4hidl7manager4V1_016BsServiceManager12getTransportERKNS_8hardware11hidl_stringES7_"
  source_file: "out/soong/.intermediates/system/libhidl/transport/manager/1.0/android.hidl.manager@1.0_genc++_headers/gen/android/hidl/manager/1.0/BsServiceManager.h"
  parameters {
    basic_abi {
      type_abi {
        name: "const android::hardware::hidl_string &"
        size: 8
        alignment: 8
      }
      name: "fqName"
      access: public_access
      linker_set_key: "false"
    }
    default_arg: false
  }
  parameters {
    basic_abi {
      type_abi {
        name: "const android::hardware::hidl_string &"
        size: 8
        alignment: 8
      }
      name: "name"
      access: public_access
      linker_set_key: "false"
    }
    default_arg: false
  }
}
functions {
  basic_abi {
    type_abi {
      name: "android::hardware::Return<void>"
      size: 40
      alignment: 8
    }
    name: "android::hidl::manager::V1_0::BsServiceManager::list"
    access: public_access
    linker_set_key: "_ZN7android4hidl7manager4V1_016BsServiceManager4listENSt3__18functionIFvRKNS_8hardware8hidl_vecINS6_11hidl_stringEEEEEE"
  }
  mangled_function_name: "_ZN7android4hidl7manager4V1_016BsServiceManager4listENSt3__18functionIFvRKNS_8hardware8hidl_vecINS6_11hidl_stringEEEEEE"
  source_file: "out/soong/.intermediates/system/libhidl/transport/manager/1.0/android.hidl.manager@1.0_genc++_headers/gen/android/hidl/manager/1.0/BsServiceManager.h"
  parameters {
    basic_abi {
      type_abi {
        name: "std::function<void (const hidl_vec<hidl_string> &)>"
        size: 48
        alignment: 16
      }
      name: "_hidl_cb"
      access: public_access
      linker_set_key: "false"
    }
    default_arg: false
  }
}
functions {
  basic_abi {
    type_abi {
      name: "android::hardware::Return<void>"
      size: 40
      alignment: 8
    }
    name: "android::hidl::manager::V1_0::BsServiceManager::listByInterface"
    access: public_access
    linker_set_key: "_ZN7android4hidl7manager4V1_016BsServiceManager15listByInterfaceERKNS_8hardware11hidl_stringENSt3__18functionIFvRKNS4_8hidl_vecIS5_EEEEE"
  }
  mangled_function_name: "_ZN7android4hidl7manager4V1_016BsServiceManager15listByInterfaceERKNS_8hardware11hidl_stringENSt3__18functionIFvRKNS4_8hidl_vecIS5_EEEEE"
  source_file: "out/soong/.intermediates/system/libhidl/transport/manager/1.0/android.hidl.manager@1.0_genc++_headers/gen/android/hidl/manager/1.0/BsServiceManager.h"
  parameters {
    basic_abi {
      type_abi {
        name: "const android::hardware::hidl_string &"
        size: 8
        alignment: 8
      }
      name: "fqName"
      access: public_access
      linker_set_key: "false"
    }
    default_arg: false
  }
  parameters {
    basic_abi {
      type_abi {
        name: "std::function<void (const hidl_vec<hidl_string> &)>"
        size: 48
        alignment: 16
      }
      name: "_hidl_cb"
      access: public_access
      linker_set_key: "false"
    }
    default_arg: false
  }
}
functions {
  basic_abi {
    type_abi {
      name: "android::hardware::Return<bool>"
      size: 40
      alignment: 8
    }
    name: "android::hidl::manager::V1_0::BsServiceManager::registerForNotifications"
    access: public_access
    linker_set_key: "_ZN7android4hidl7manager4V1_016BsServiceManager24registerForNotificationsERKNS_8hardware11hidl_stringES7_RKNS_2spINS2_20IServiceNotificationEEE"
  }
  mangled_function_name: "_ZN7android4hidl7manager4V1_016BsServiceManager24registerForNotificationsERKNS_8hardware11hidl_stringES7_RKNS_2spINS2_20IServiceNotificationEEE"
  source_file: "out/soong/.intermediates/system/libhidl/transport/manager/1.0/android.hidl.manager@1.0_genc++_headers/gen/android/hidl/manager/1.0/BsServiceManager.h"
  parameters {
    basic_abi {
      type_abi {
        name: "const android::hardware::hidl_string &"
        size: 8
        alignment: 8
      }
      name: "fqName"
      access: public_access
      linker_set_key: "false"
    }
    default_arg: false
  }
  parameters {
    basic_abi {
      type_abi {
        name: "const android::hardware::hidl_string &"
        size: 8
        alignment: 8
      }
      name: "name"
      access: public_access
      linker_set_key: "false"
    }
    default_arg: false
  }
  parameters {
    basic_abi {
      type_abi {
        name: "const android::sp<android::hidl::manager::V1_0::IServiceNotification> &"
        size: 8
        alignment: 8
      }
      name: "callback"
      access: public_access
      linker_set_key: "false"
    }
    default_arg: false
  }
}
functions {
  basic_abi {
    type_abi {
      name: "android::hardware::Return<void>"
      size: 40
      alignment: 8
    }
    name: "android::hidl::manager::V1_0::BsServiceManager::debugDump"
    access: public_access
    linker_set_key: "_ZN7android4hidl7manager4V1_016BsServiceManager9debugDumpENSt3__18functionIFvRKNS_8hardware8hidl_vecINS2_15IServiceManager17InstanceDebugInfoEEEEEE"
  }
  mangled_function_name: "_ZN7android4hidl7manager4V1_016BsServiceManager9debugDumpENSt3__18functionIFvRKNS_8hardware8hidl_vecINS2_15IServiceManager17InstanceDebugInfoEEEEEE"
  source_file: "out/soong/.intermediates/system/libhidl/transport/manager/1.0/android.hidl.manager@1.0_genc++_headers/gen/android/hidl/manager/1.0/BsServiceManager.h"
  parameters {
    basic_abi {
      type_abi {
        name: "std::function<void (const hidl_vec<InstanceDebugInfo> &)>"
        size: 48
        alignment: 16
      }
      name: "_hidl_cb"
      access: public_access
      linker_set_key: "false"
    }
    default_arg: false
  }
}
functions {
  basic_abi {
    type_abi {
      name: "android::hardware::Return<void>"
      size: 40
      alignment: 8
    }
    name: "android::hidl::manager::V1_0::BsServiceManager::registerPassthroughClient"
    access: public_access
    linker_set_key: "_ZN7android4hidl7manager4V1_016BsServiceManager25registerPassthroughClientERKNS_8hardware11hidl_stringES7_"
  }
  mangled_function_name: "_ZN7android4hidl7manager4V1_016BsServiceManager25registerPassthroughClientERKNS_8hardware11hidl_stringES7_"
  source_file: "out/soong/.intermediates/system/libhidl/transport/manager/1.0/android.hidl.manager@1.0_genc++_headers/gen/android/hidl/manager/1.0/BsServiceManager.h"
  parameters {
    basic_abi {
      type_abi {
        name: "const android::hardware::hidl_string &"
        size: 8
        alignment: 8
      }
      name: "fqName"
      access: public_access
      linker_set_key: "false"
    }
    default_arg: false
  }
  parameters {
    basic_abi {
      type_abi {
        name: "const android::hardware::hidl_string &"
        size: 8
        alignment: 8
      }
      name: "name"
      access: public_access
      linker_set_key: "false"
    }
    default_arg: false
  }
}
functions {
  basic_abi {
    type_abi {
      name: "android::hardware::Return<void>"
      size: 40
      alignment: 8
    }
    name: "android::hidl::manager::V1_0::BsServiceManager::interfaceChain"
    access: public_access
    linker_set_key: "_ZN7android4hidl7manager4V1_016BsServiceManager14interfaceChainENSt3__18functionIFvRKNS_8hardware8hidl_vecINS6_11hidl_stringEEEEEE"
  }
  mangled_function_name: "_ZN7android4hidl7manager4V1_016BsServiceManager14interfaceChainENSt3__18functionIFvRKNS_8hardware8hidl_vecINS6_11hidl_stringEEEEEE"
  source_file: "out/soong/.intermediates/system/libhidl/transport/manager/1.0/android.hidl.manager@1.0_genc++_headers/gen/android/hidl/manager/1.0/BsServiceManager.h"
  parameters {
    basic_abi {
      type_abi {
        name: "std::function<void (const hidl_vec<hidl_string> &)>"
        size: 48
        alignment: 16
      }
      name: "_hidl_cb"
      access: public_access
      linker_set_key: "false"
    }
    default_arg: false
  }
}
functions {
  basic_abi {
    type_abi {
      name: "android::hardware::Return<void>"
      size: 40
      alignment: 8
    }
    name: "android::hidl::manager::V1_0::BsServiceManager::debug"
    access: public_access
    linker_set_key: "_ZN7android4hidl7manager4V1_016BsServiceManager5debugERKNS_8hardware11hidl_handleERKNS4_8hidl_vecINS4_11hidl_stringEEE"
  }
  mangled_function_name: "_ZN7android4hidl7manager4V1_016BsServiceManager5debugERKNS_8hardware11hidl_handleERKNS4_8hidl_vecINS4_11hidl_stringEEE"
  source_file: "out/soong/.intermediates/system/libhidl/transport/manager/1.0/android.hidl.manager@1.0_genc++_headers/gen/android/hidl/manager/1.0/BsServiceManager.h"
  parameters {
    basic_abi {
      type_abi {
        name: "const android::hardware::hidl_handle &"
        size: 8
        alignment: 8
      }
      name: "fd"
      access: public_access
      linker_set_key: "false"
    }
    default_arg: false
  }
  parameters {
    basic_abi {
      type_abi {
        name: "const android::hardware::hidl_vec<android::hardware::hidl_string> &"
        size: 8
        alignment: 8
      }
      name: "options"
      access: public_access
      linker_set_key: "false"
    }
    default_arg: false
  }
}
functions {
  basic_abi {
    type_abi {
      name: "android::hardware::Return<void>"
      size: 40
      alignment: 8
    }
    name: "android::hidl::manager::V1_0::BsServiceManager::interfaceDescriptor"
    access: public_access
    linker_set_key: "_ZN7android4hidl7manager4V1_016BsServiceManager19interfaceDescriptorENSt3__18functionIFvRKNS_8hardware11hidl_stringEEEE"
  }
  mangled_function_name: "_ZN7android4hidl7manager4V1_016BsServiceManager19interfaceDescriptorENSt3__18functionIFvRKNS_8hardware11hidl_stringEEEE"
  source_file: "out/soong/.intermediates/system/libhidl/transport/manager/1.0/android.hidl.manager@1.0_genc++_headers/gen/android/hidl/manager/1.0/BsServiceManager.h"
  parameters {
    basic_abi {
      type_abi {
        name: "std::function<void (const hidl_string &)>"
        size: 48
        alignment: 16
      }
      name: "_hidl_cb"
      access: public_access
      linker_set_key: "false"
    }
    default_arg: false
  }
}
functions {
  basic_abi {
    type_abi {
      name: "android::hardware::Return<void>"
      size: 40
      alignment: 8
    }
    name: "android::hidl::manager::V1_0::BsServiceManager::getHashChain"
    access: public_access
    linker_set_key: "_ZN7android4hidl7manager4V1_016BsServiceManager12getHashChainENSt3__18functionIFvRKNS_8hardware8hidl_vecINS6_10hidl_arrayIhLm32EJEEEEEEEE"
  }
  mangled_function_name: "_ZN7android4hidl7manager4V1_016BsServiceManager12getHashChainENSt3__18functionIFvRKNS_8hardware8hidl_vecINS6_10hidl_arrayIhLm32EJEEEEEEEE"
  source_file: "out/soong/.intermediates/system/libhidl/transport/manager/1.0/android.hidl.manager@1.0_genc++_headers/gen/android/hidl/manager/1.0/BsServiceManager.h"
  parameters {
    basic_abi {
      type_abi {
        name: "std::function<void (const hidl_vec<hidl_array<unsigned char, 32> > &)>"
        size: 48
        alignment: 16
      }
      name: "_hidl_cb"
      access: public_access
      linker_set_key: "false"
    }
    default_arg: false
  }
}
functions {
  basic_abi {
    type_abi {
      name: "android::hardware::Return<void>"
      size: 40
      alignment: 8
    }
    name: "android::hidl::manager::V1_0::BsServiceManager::setHALInstrumentation"
    access: public_access
    linker_set_key: "_ZN7android4hidl7manager4V1_016BsServiceManager21setHALInstrumentationEv"
  }
  mangled_function_name: "_ZN7android4hidl7manager4V1_016BsServiceManager21setHALInstrumentationEv"
  source_file: "out/soong/.intermediates/system/libhidl/transport/manager/1.0/android.hidl.manager@1.0_genc++_headers/gen/android/hidl/manager/1.0/BsServiceManager.h"
}
functions {
  basic_abi {
    type_abi {
      name: "android::hardware::Return<bool>"
      size: 40
      alignment: 8
    }
    name: "android::hidl::manager::V1_0::BsServiceManager::linkToDeath"
    access: public_access
    linker_set_key: "_ZN7android4hidl7manager4V1_016BsServiceManager11linkToDeathERKNS_2spINS_8hardware20hidl_death_recipientEEEm"
  }
  mangled_function_name: "_ZN7android4hidl7manager4V1_016BsServiceManager11linkToDeathERKNS_2spINS_8hardware20hidl_death_recipientEEEm"
  source_file: "out/soong/.intermediates/system/libhidl/transport/manager/1.0/android.hidl.manager@1.0_genc++_headers/gen/android/hidl/manager/1.0/BsServiceManager.h"
  parameters {
    basic_abi {
      type_abi {
        name: "const android::sp<android::hardware::hidl_death_recipient> &"
        size: 8
        alignment: 8
      }
      name: "recipient"
      access: public_access
      linker_set_key: "false"
    }
    default_arg: false
  }
  parameters {
    basic_abi {
      type_abi {
        name: "unsigned long"
        size: 8
        alignment: 8
      }
      name: "cookie"
      access: public_access
      linker_set_key: "false"
    }
    default_arg: false
  }
}
functions {
  basic_abi {
    type_abi {
      name: "android::hardware::Return<void>"
      size: 40
      alignment: 8
    }
    name: "android::hidl::manager::V1_0::BsServiceManager::ping"
    access: public_access
    linker_set_key: "_ZN7android4hidl7manager4V1_016BsServiceManager4pingEv"
  }
  mangled_function_name: "_ZN7android4hidl7manager4V1_016BsServiceManager4pingEv"
  source_file: "out/soong/.intermediates/system/libhidl/transport/manager/1.0/android.hidl.manager@1.0_genc++_headers/gen/android/hidl/manager/1.0/BsServiceManager.h"
}
functions {
  basic_abi {
    type_abi {
      name: "android::hardware::Return<void>"
      size: 40
      alignment: 8
    }
    name: "android::hidl::manager::V1_0::BsServiceManager::getDebugInfo"
    access: public_access
    linker_set_key: "_ZN7android4hidl7manager4V1_016BsServiceManager12getDebugInfoENSt3__18functionIFvRKNS0_4base4V1_09DebugInfoEEEE"
  }
  mangled_function_name: "_ZN7android4hidl7manager4V1_016BsServiceManager12getDebugInfoENSt3__18functionIFvRKNS0_4base4V1_09DebugInfoEEEE"
  source_file: "out/soong/.intermediates/system/libhidl/transport/manager/1.0/android.hidl.manager@1.0_genc++_headers/gen/android/hidl/manager/1.0/BsServiceManager.h"
  parameters {
    basic_abi {
      type_abi {
        name: "std::function<void (const DebugInfo &)>"
        size: 48
        alignment: 16
      }
      name: "_hidl_cb"
      access: public_access
      linker_set_key: "false"
    }
    default_arg: false
  }
}
functions {
  basic_abi {
    type_abi {
      name: "android::hardware::Return<void>"
      size: 40
      alignment: 8
    }
    name: "android::hidl::manager::V1_0::BsServiceManager::notifySyspropsChanged"
    access: public_access
    linker_set_key: "_ZN7android4hidl7manager4V1_016BsServiceManager21notifySyspropsChangedEv"
  }
  mangled_function_name: "_ZN7android4hidl7manager4V1_016BsServiceManager21notifySyspropsChangedEv"
  source_file: "out/soong/.intermediates/system/libhidl/transport/manager/1.0/android.hidl.manager@1.0_genc++_headers/gen/android/hidl/manager/1.0/BsServiceManager.h"
}
functions {
  basic_abi {
    type_abi {
      name: "android::hardware::Return<bool>"
      size: 40
      alignment: 8
    }
    name: "android::hidl::manager::V1_0::BsServiceManager::unlinkToDeath"
    access: public_access
    linker_set_key: "_ZN7android4hidl7manager4V1_016BsServiceManager13unlinkToDeathERKNS_2spINS_8hardware20hidl_death_recipientEEE"
  }
  mangled_function_name: "_ZN7android4hidl7manager4V1_016BsServiceManager13unlinkToDeathERKNS_2spINS_8hardware20hidl_death_recipientEEE"
  source_file: "out/soong/.intermediates/system/libhidl/transport/manager/1.0/android.hidl.manager@1.0_genc++_headers/gen/android/hidl/manager/1.0/BsServiceManager.h"
  parameters {
    basic_abi {
      type_abi {
        name: "const android::sp<android::hardware::hidl_death_recipient> &"
        size: 8
        alignment: 8
      }
      name: "recipient"
      access: public_access
      linker_set_key: "false"
    }
    default_arg: false
  }
}
functions {
  basic_abi {
    type_abi {
      name: "android::hardware::Return<void>"
      size: 40
      alignment: 8
    }
    name: "android::hidl::manager::V1_0::BsServiceManager::addOnewayTask"
    access: private_access
    linker_set_key: "_ZN7android4hidl7manager4V1_016BsServiceManager13addOnewayTaskENSt3__18functionIFvvEEE"
  }
  mangled_function_name: "_ZN7android4hidl7manager4V1_016BsServiceManager13addOnewayTaskENSt3__18functionIFvvEEE"
  source_file: "out/soong/.intermediates/system/libhidl/transport/manager/1.0/android.hidl.manager@1.0_genc++_headers/gen/android/hidl/manager/1.0/BsServiceManager.h"
  parameters {
    basic_abi {
      type_abi {
        name: "std::function<void ()>"
        size: 48
        alignment: 16
      }
      name: ""
      access: public_access
      linker_set_key: "false"
    }
    default_arg: false
  }
}
functions {
  basic_abi {
    type_abi {
      name: "android::hardware::Return<android::sp<android::hidl::manager::V1_0::IServiceNotification> >"
      size: 48
      alignment: 8
    }
    name: "android::hardware::details::castInterface"
    access: public_access
    linker_set_key: "_ZN7android8hardware7details13castInterfaceINS_4hidl7manager4V1_020IServiceNotificationENS3_4base4V1_05IBaseENS5_23BpHwServiceNotificationENS8_8BpHwBaseEEENS0_6ReturnINS_2spIT_EEEENSD_IT0_EEPKcb"
  }
  mangled_function_name: "_ZN7android8hardware7details13castInterfaceINS_4hidl7manager4V1_020IServiceNotificationENS3_4base4V1_05IBaseENS5_23BpHwServiceNotificationENS8_8BpHwBaseEEENS0_6ReturnINS_2spIT_EEEENSD_IT0_EEPKcb"
  source_file: "system/libhidl/transport/include/hidl/HidlTransportSupport.h"
  parameters {
    basic_abi {
      type_abi {
        name: "android::sp<android::hidl::base::V1_0::IBase>"
        size: 8
        alignment: 8
      }
      name: "parent"
      access: public_access
      linker_set_key: "false"
    }
    default_arg: false
  }
  parameters {
    basic_abi {
      type_abi {
        name: "const char *"
        size: 8
        alignment: 8
      }
      name: "childIndicator"
      access: public_access
      linker_set_key: "false"
    }
    default_arg: false
  }
  parameters {
    basic_abi {
      type_abi {
        name: "bool"
        size: 1
        alignment: 1
      }
      name: "emitError"
      access: public_access
      linker_set_key: "false"
    }
    default_arg: false
  }
  template_info {
    elements {
      basic_abi {
        type_abi {
          name: "android::hidl::manager::V1_0::IServiceNotification"
          size: 24
          alignment: 8
        }
        linker_set_key: "android::hidl::manager::V1_0::IServiceNotification"
      }
    }
    elements {
      basic_abi {
        type_abi {
          name: "android::hidl::base::V1_0::IBase"
          size: 24
          alignment: 8
        }
        linker_set_key: "android::hidl::base::V1_0::IBase"
      }
    }
    elements {
      basic_abi {
        type_abi {
          name: "android::hidl::manager::V1_0::BpHwServiceNotification"
          size: 216
          alignment: 8
        }
        linker_set_key: "android::hidl::manager::V1_0::BpHwServiceNotification"
      }
    }
    elements {
      basic_abi {
        type_abi {
          name: "android::hidl::base::V1_0::BpHwBase"
          size: 216
          alignment: 8
        }
        linker_set_key: "android::hidl::base::V1_0::BpHwBase"
      }
    }
  }
}
functions {
  basic_abi {
    type_abi {
      name: "void"
    }
    name: "android::hidl::manager::V1_0::BsServiceNotification::BsServiceNotification"
    access: public_access
    linker_set_key: "_ZN7android4hidl7manager4V1_021BsServiceNotificationC1ENS_2spINS2_20IServiceNotificationEEE"
  }
  mangled_function_name: "_ZN7android4hidl7manager4V1_021BsServiceNotificationC1ENS_2spINS2_20IServiceNotificationEEE"
  source_file: "out/soong/.intermediates/system/libhidl/transport/manager/1.0/android.hidl.manager@1.0_genc++_headers/gen/android/hidl/manager/1.0/BsServiceNotification.h"
  parameters {
    basic_abi {
      type_abi {
        name: "const android::sp<android::hidl::manager::V1_0::IServiceNotification>"
        size: 8
        alignment: 8
      }
      name: "impl"
      access: public_access
      linker_set_key: "false"
    }
    default_arg: false
  }
}
functions {
  basic_abi {
    type_abi {
      name: "android::hardware::Return<void>"
      size: 40
      alignment: 8
    }
    name: "android::hidl::manager::V1_0::BsServiceNotification::onRegistration"
    access: public_access
    linker_set_key: "_ZN7android4hidl7manager4V1_021BsServiceNotification14onRegistrationERKNS_8hardware11hidl_stringES7_b"
  }
  mangled_function_name: "_ZN7android4hidl7manager4V1_021BsServiceNotification14onRegistrationERKNS_8hardware11hidl_stringES7_b"
  source_file: "out/soong/.intermediates/system/libhidl/transport/manager/1.0/android.hidl.manager@1.0_genc++_headers/gen/android/hidl/manager/1.0/BsServiceNotification.h"
  parameters {
    basic_abi {
      type_abi {
        name: "const android::hardware::hidl_string &"
        size: 8
        alignment: 8
      }
      name: "fqName"
      access: public_access
      linker_set_key: "false"
    }
    default_arg: false
  }
  parameters {
    basic_abi {
      type_abi {
        name: "const android::hardware::hidl_string &"
        size: 8
        alignment: 8
      }
      name: "name"
      access: public_access
      linker_set_key: "false"
    }
    default_arg: false
  }
  parameters {
    basic_abi {
      type_abi {
        name: "bool"
        size: 1
        alignment: 1
      }
      name: "preexisting"
      access: public_access
      linker_set_key: "false"
    }
    default_arg: false
  }
}
functions {
  basic_abi {
    type_abi {
      name: "android::hardware::Return<void>"
      size: 40
      alignment: 8
    }
    name: "android::hidl::manager::V1_0::BsServiceNotification::interfaceChain"
    access: public_access
    linker_set_key: "_ZN7android4hidl7manager4V1_021BsServiceNotification14interfaceChainENSt3__18functionIFvRKNS_8hardware8hidl_vecINS6_11hidl_stringEEEEEE"
  }
  mangled_function_name: "_ZN7android4hidl7manager4V1_021BsServiceNotification14interfaceChainENSt3__18functionIFvRKNS_8hardware8hidl_vecINS6_11hidl_stringEEEEEE"
  source_file: "out/soong/.intermediates/system/libhidl/transport/manager/1.0/android.hidl.manager@1.0_genc++_headers/gen/android/hidl/manager/1.0/BsServiceNotification.h"
  parameters {
    basic_abi {
      type_abi {
        name: "std::function<void (const hidl_vec<hidl_string> &)>"
        size: 48
        alignment: 16
      }
      name: "_hidl_cb"
      access: public_access
      linker_set_key: "false"
    }
    default_arg: false
  }
}
functions {
  basic_abi {
    type_abi {
      name: "android::hardware::Return<void>"
      size: 40
      alignment: 8
    }
    name: "android::hidl::manager::V1_0::BsServiceNotification::debug"
    access: public_access
    linker_set_key: "_ZN7android4hidl7manager4V1_021BsServiceNotification5debugERKNS_8hardware11hidl_handleERKNS4_8hidl_vecINS4_11hidl_stringEEE"
  }
  mangled_function_name: "_ZN7android4hidl7manager4V1_021BsServiceNotification5debugERKNS_8hardware11hidl_handleERKNS4_8hidl_vecINS4_11hidl_stringEEE"
  source_file: "out/soong/.intermediates/system/libhidl/transport/manager/1.0/android.hidl.manager@1.0_genc++_headers/gen/android/hidl/manager/1.0/BsServiceNotification.h"
  parameters {
    basic_abi {
      type_abi {
        name: "const android::hardware::hidl_handle &"
        size: 8
        alignment: 8
      }
      name: "fd"
      access: public_access
      linker_set_key: "false"
    }
    default_arg: false
  }
  parameters {
    basic_abi {
      type_abi {
        name: "const android::hardware::hidl_vec<android::hardware::hidl_string> &"
        size: 8
        alignment: 8
      }
      name: "options"
      access: public_access
      linker_set_key: "false"
    }
    default_arg: false
  }
}
functions {
  basic_abi {
    type_abi {
      name: "android::hardware::Return<void>"
      size: 40
      alignment: 8
    }
    name: "android::hidl::manager::V1_0::BsServiceNotification::interfaceDescriptor"
    access: public_access
    linker_set_key: "_ZN7android4hidl7manager4V1_021BsServiceNotification19interfaceDescriptorENSt3__18functionIFvRKNS_8hardware11hidl_stringEEEE"
  }
  mangled_function_name: "_ZN7android4hidl7manager4V1_021BsServiceNotification19interfaceDescriptorENSt3__18functionIFvRKNS_8hardware11hidl_stringEEEE"
  source_file: "out/soong/.intermediates/system/libhidl/transport/manager/1.0/android.hidl.manager@1.0_genc++_headers/gen/android/hidl/manager/1.0/BsServiceNotification.h"
  parameters {
    basic_abi {
      type_abi {
        name: "std::function<void (const hidl_string &)>"
        size: 48
        alignment: 16
      }
      name: "_hidl_cb"
      access: public_access
      linker_set_key: "false"
    }
    default_arg: false
  }
}
functions {
  basic_abi {
    type_abi {
      name: "android::hardware::Return<void>"
      size: 40
      alignment: 8
    }
    name: "android::hidl::manager::V1_0::BsServiceNotification::getHashChain"
    access: public_access
    linker_set_key: "_ZN7android4hidl7manager4V1_021BsServiceNotification12getHashChainENSt3__18functionIFvRKNS_8hardware8hidl_vecINS6_10hidl_arrayIhLm32EJEEEEEEEE"
  }
  mangled_function_name: "_ZN7android4hidl7manager4V1_021BsServiceNotification12getHashChainENSt3__18functionIFvRKNS_8hardware8hidl_vecINS6_10hidl_arrayIhLm32EJEEEEEEEE"
  source_file: "out/soong/.intermediates/system/libhidl/transport/manager/1.0/android.hidl.manager@1.0_genc++_headers/gen/android/hidl/manager/1.0/BsServiceNotification.h"
  parameters {
    basic_abi {
      type_abi {
        name: "std::function<void (const hidl_vec<hidl_array<unsigned char, 32> > &)>"
        size: 48
        alignment: 16
      }
      name: "_hidl_cb"
      access: public_access
      linker_set_key: "false"
    }
    default_arg: false
  }
}
functions {
  basic_abi {
    type_abi {
      name: "android::hardware::Return<void>"
      size: 40
      alignment: 8
    }
    name: "android::hidl::manager::V1_0::BsServiceNotification::setHALInstrumentation"
    access: public_access
    linker_set_key: "_ZN7android4hidl7manager4V1_021BsServiceNotification21setHALInstrumentationEv"
  }
  mangled_function_name: "_ZN7android4hidl7manager4V1_021BsServiceNotification21setHALInstrumentationEv"
  source_file: "out/soong/.intermediates/system/libhidl/transport/manager/1.0/android.hidl.manager@1.0_genc++_headers/gen/android/hidl/manager/1.0/BsServiceNotification.h"
}
functions {
  basic_abi {
    type_abi {
      name: "android::hardware::Return<bool>"
      size: 40
      alignment: 8
    }
    name: "android::hidl::manager::V1_0::BsServiceNotification::linkToDeath"
    access: public_access
    linker_set_key: "_ZN7android4hidl7manager4V1_021BsServiceNotification11linkToDeathERKNS_2spINS_8hardware20hidl_death_recipientEEEm"
  }
  mangled_function_name: "_ZN7android4hidl7manager4V1_021BsServiceNotification11linkToDeathERKNS_2spINS_8hardware20hidl_death_recipientEEEm"
  source_file: "out/soong/.intermediates/system/libhidl/transport/manager/1.0/android.hidl.manager@1.0_genc++_headers/gen/android/hidl/manager/1.0/BsServiceNotification.h"
  parameters {
    basic_abi {
      type_abi {
        name: "const android::sp<android::hardware::hidl_death_recipient> &"
        size: 8
        alignment: 8
      }
      name: "recipient"
      access: public_access
      linker_set_key: "false"
    }
    default_arg: false
  }
  parameters {
    basic_abi {
      type_abi {
        name: "unsigned long"
        size: 8
        alignment: 8
      }
      name: "cookie"
      access: public_access
      linker_set_key: "false"
    }
    default_arg: false
  }
}
functions {
  basic_abi {
    type_abi {
      name: "android::hardware::Return<void>"
      size: 40
      alignment: 8
    }
    name: "android::hidl::manager::V1_0::BsServiceNotification::ping"
    access: public_access
    linker_set_key: "_ZN7android4hidl7manager4V1_021BsServiceNotification4pingEv"
  }
  mangled_function_name: "_ZN7android4hidl7manager4V1_021BsServiceNotification4pingEv"
  source_file: "out/soong/.intermediates/system/libhidl/transport/manager/1.0/android.hidl.manager@1.0_genc++_headers/gen/android/hidl/manager/1.0/BsServiceNotification.h"
}
functions {
  basic_abi {
    type_abi {
      name: "android::hardware::Return<void>"
      size: 40
      alignment: 8
    }
    name: "android::hidl::manager::V1_0::BsServiceNotification::getDebugInfo"
    access: public_access
    linker_set_key: "_ZN7android4hidl7manager4V1_021BsServiceNotification12getDebugInfoENSt3__18functionIFvRKNS0_4base4V1_09DebugInfoEEEE"
  }
  mangled_function_name: "_ZN7android4hidl7manager4V1_021BsServiceNotification12getDebugInfoENSt3__18functionIFvRKNS0_4base4V1_09DebugInfoEEEE"
  source_file: "out/soong/.intermediates/system/libhidl/transport/manager/1.0/android.hidl.manager@1.0_genc++_headers/gen/android/hidl/manager/1.0/BsServiceNotification.h"
  parameters {
    basic_abi {
      type_abi {
        name: "std::function<void (const DebugInfo &)>"
        size: 48
        alignment: 16
      }
      name: "_hidl_cb"
      access: public_access
      linker_set_key: "false"
    }
    default_arg: false
  }
}
functions {
  basic_abi {
    type_abi {
      name: "android::hardware::Return<void>"
      size: 40
      alignment: 8
    }
    name: "android::hidl::manager::V1_0::BsServiceNotification::notifySyspropsChanged"
    access: public_access
    linker_set_key: "_ZN7android4hidl7manager4V1_021BsServiceNotification21notifySyspropsChangedEv"
  }
  mangled_function_name: "_ZN7android4hidl7manager4V1_021BsServiceNotification21notifySyspropsChangedEv"
  source_file: "out/soong/.intermediates/system/libhidl/transport/manager/1.0/android.hidl.manager@1.0_genc++_headers/gen/android/hidl/manager/1.0/BsServiceNotification.h"
}
functions {
  basic_abi {
    type_abi {
      name: "android::hardware::Return<bool>"
      size: 40
      alignment: 8
    }
    name: "android::hidl::manager::V1_0::BsServiceNotification::unlinkToDeath"
    access: public_access
    linker_set_key: "_ZN7android4hidl7manager4V1_021BsServiceNotification13unlinkToDeathERKNS_2spINS_8hardware20hidl_death_recipientEEE"
  }
  mangled_function_name: "_ZN7android4hidl7manager4V1_021BsServiceNotification13unlinkToDeathERKNS_2spINS_8hardware20hidl_death_recipientEEE"
  source_file: "out/soong/.intermediates/system/libhidl/transport/manager/1.0/android.hidl.manager@1.0_genc++_headers/gen/android/hidl/manager/1.0/BsServiceNotification.h"
  parameters {
    basic_abi {
      type_abi {
        name: "const android::sp<android::hardware::hidl_death_recipient> &"
        size: 8
        alignment: 8
      }
      name: "recipient"
      access: public_access
      linker_set_key: "false"
    }
    default_arg: false
  }
}
functions {
  basic_abi {
    type_abi {
      name: "android::hardware::Return<void>"
      size: 40
      alignment: 8
    }
    name: "android::hidl::manager::V1_0::BsServiceNotification::addOnewayTask"
    access: private_access
    linker_set_key: "_ZN7android4hidl7manager4V1_021BsServiceNotification13addOnewayTaskENSt3__18functionIFvvEEE"
  }
  mangled_function_name: "_ZN7android4hidl7manager4V1_021BsServiceNotification13addOnewayTaskENSt3__18functionIFvvEEE"
  source_file: "out/soong/.intermediates/system/libhidl/transport/manager/1.0/android.hidl.manager@1.0_genc++_headers/gen/android/hidl/manager/1.0/BsServiceNotification.h"
  parameters {
    basic_abi {
      type_abi {
        name: "std::function<void ()>"
        size: 48
        alignment: 16
      }
      name: ""
      access: public_access
      linker_set_key: "false"
    }
    default_arg: false
  }
}
functions {
  basic_abi {
    type_abi {
      name: "void"
    }
    name: "android::hidl::base::V1_0::BsBase::BsBase"
    access: public_access
    linker_set_key: "_ZN7android4hidl4base4V1_06BsBaseC1ENS_2spINS2_5IBaseEEE"
  }
  mangled_function_name: "_ZN7android4hidl4base4V1_06BsBaseC1ENS_2spINS2_5IBaseEEE"
  source_file: "out/soong/.intermediates/system/libhidl/transport/base/1.0/android.hidl.base@1.0_genc++_headers/gen/android/hidl/base/1.0/BsBase.h"
  parameters {
    basic_abi {
      type_abi {
        name: "const android::sp<android::hidl::base::V1_0::IBase>"
        size: 8
        alignment: 8
      }
      name: "impl"
      access: public_access
      linker_set_key: "false"
    }
    default_arg: false
  }
}
functions {
  basic_abi {
    type_abi {
      name: "android::hardware::Return<void>"
      size: 40
      alignment: 8
    }
    name: "android::hidl::base::V1_0::BsBase::interfaceChain"
    access: public_access
    linker_set_key: "_ZN7android4hidl4base4V1_06BsBase14interfaceChainENSt3__18functionIFvRKNS_8hardware8hidl_vecINS6_11hidl_stringEEEEEE"
  }
  mangled_function_name: "_ZN7android4hidl4base4V1_06BsBase14interfaceChainENSt3__18functionIFvRKNS_8hardware8hidl_vecINS6_11hidl_stringEEEEEE"
  source_file: "out/soong/.intermediates/system/libhidl/transport/base/1.0/android.hidl.base@1.0_genc++_headers/gen/android/hidl/base/1.0/BsBase.h"
  parameters {
    basic_abi {
      type_abi {
        name: "std::function<void (const hidl_vec<hidl_string> &)>"
        size: 48
        alignment: 16
      }
      name: "_hidl_cb"
      access: public_access
      linker_set_key: "false"
    }
    default_arg: false
  }
}
functions {
  basic_abi {
    type_abi {
      name: "android::hardware::Return<void>"
      size: 40
      alignment: 8
    }
    name: "android::hidl::base::V1_0::BsBase::debug"
    access: public_access
    linker_set_key: "_ZN7android4hidl4base4V1_06BsBase5debugERKNS_8hardware11hidl_handleERKNS4_8hidl_vecINS4_11hidl_stringEEE"
  }
  mangled_function_name: "_ZN7android4hidl4base4V1_06BsBase5debugERKNS_8hardware11hidl_handleERKNS4_8hidl_vecINS4_11hidl_stringEEE"
  source_file: "out/soong/.intermediates/system/libhidl/transport/base/1.0/android.hidl.base@1.0_genc++_headers/gen/android/hidl/base/1.0/BsBase.h"
  parameters {
    basic_abi {
      type_abi {
        name: "const android::hardware::hidl_handle &"
        size: 8
        alignment: 8
      }
      name: "fd"
      access: public_access
      linker_set_key: "false"
    }
    default_arg: false
  }
  parameters {
    basic_abi {
      type_abi {
        name: "const android::hardware::hidl_vec<android::hardware::hidl_string> &"
        size: 8
        alignment: 8
      }
      name: "options"
      access: public_access
      linker_set_key: "false"
    }
    default_arg: false
  }
}
functions {
  basic_abi {
    type_abi {
      name: "android::hardware::Return<void>"
      size: 40
      alignment: 8
    }
    name: "android::hidl::base::V1_0::BsBase::interfaceDescriptor"
    access: public_access
    linker_set_key: "_ZN7android4hidl4base4V1_06BsBase19interfaceDescriptorENSt3__18functionIFvRKNS_8hardware11hidl_stringEEEE"
  }
  mangled_function_name: "_ZN7android4hidl4base4V1_06BsBase19interfaceDescriptorENSt3__18functionIFvRKNS_8hardware11hidl_stringEEEE"
  source_file: "out/soong/.intermediates/system/libhidl/transport/base/1.0/android.hidl.base@1.0_genc++_headers/gen/android/hidl/base/1.0/BsBase.h"
  parameters {
    basic_abi {
      type_abi {
        name: "std::function<void (const hidl_string &)>"
        size: 48
        alignment: 16
      }
      name: "_hidl_cb"
      access: public_access
      linker_set_key: "false"
    }
    default_arg: false
  }
}
functions {
  basic_abi {
    type_abi {
      name: "android::hardware::Return<void>"
      size: 40
      alignment: 8
    }
    name: "android::hidl::base::V1_0::BsBase::getHashChain"
    access: public_access
    linker_set_key: "_ZN7android4hidl4base4V1_06BsBase12getHashChainENSt3__18functionIFvRKNS_8hardware8hidl_vecINS6_10hidl_arrayIhLm32EJEEEEEEEE"
  }
  mangled_function_name: "_ZN7android4hidl4base4V1_06BsBase12getHashChainENSt3__18functionIFvRKNS_8hardware8hidl_vecINS6_10hidl_arrayIhLm32EJEEEEEEEE"
  source_file: "out/soong/.intermediates/system/libhidl/transport/base/1.0/android.hidl.base@1.0_genc++_headers/gen/android/hidl/base/1.0/BsBase.h"
  parameters {
    basic_abi {
      type_abi {
        name: "std::function<void (const hidl_vec<hidl_array<unsigned char, 32> > &)>"
        size: 48
        alignment: 16
      }
      name: "_hidl_cb"
      access: public_access
      linker_set_key: "false"
    }
    default_arg: false
  }
}
functions {
  basic_abi {
    type_abi {
      name: "android::hardware::Return<void>"
      size: 40
      alignment: 8
    }
    name: "android::hidl::base::V1_0::BsBase::setHALInstrumentation"
    access: public_access
    linker_set_key: "_ZN7android4hidl4base4V1_06BsBase21setHALInstrumentationEv"
  }
  mangled_function_name: "_ZN7android4hidl4base4V1_06BsBase21setHALInstrumentationEv"
  source_file: "out/soong/.intermediates/system/libhidl/transport/base/1.0/android.hidl.base@1.0_genc++_headers/gen/android/hidl/base/1.0/BsBase.h"
}
functions {
  basic_abi {
    type_abi {
      name: "android::hardware::Return<bool>"
      size: 40
      alignment: 8
    }
    name: "android::hidl::base::V1_0::BsBase::linkToDeath"
    access: public_access
    linker_set_key: "_ZN7android4hidl4base4V1_06BsBase11linkToDeathERKNS_2spINS_8hardware20hidl_death_recipientEEEm"
  }
  mangled_function_name: "_ZN7android4hidl4base4V1_06BsBase11linkToDeathERKNS_2spINS_8hardware20hidl_death_recipientEEEm"
  source_file: "out/soong/.intermediates/system/libhidl/transport/base/1.0/android.hidl.base@1.0_genc++_headers/gen/android/hidl/base/1.0/BsBase.h"
  parameters {
    basic_abi {
      type_abi {
        name: "const android::sp<android::hardware::hidl_death_recipient> &"
        size: 8
        alignment: 8
      }
      name: "recipient"
      access: public_access
      linker_set_key: "false"
    }
    default_arg: false
  }
  parameters {
    basic_abi {
      type_abi {
        name: "unsigned long"
        size: 8
        alignment: 8
      }
      name: "cookie"
      access: public_access
      linker_set_key: "false"
    }
    default_arg: false
  }
}
functions {
  basic_abi {
    type_abi {
      name: "android::hardware::Return<void>"
      size: 40
      alignment: 8
    }
    name: "android::hidl::base::V1_0::BsBase::ping"
    access: public_access
    linker_set_key: "_ZN7android4hidl4base4V1_06BsBase4pingEv"
  }
  mangled_function_name: "_ZN7android4hidl4base4V1_06BsBase4pingEv"
  source_file: "out/soong/.intermediates/system/libhidl/transport/base/1.0/android.hidl.base@1.0_genc++_headers/gen/android/hidl/base/1.0/BsBase.h"
}
functions {
  basic_abi {
    type_abi {
      name: "android::hardware::Return<void>"
      size: 40
      alignment: 8
    }
    name: "android::hidl::base::V1_0::BsBase::getDebugInfo"
    access: public_access
    linker_set_key: "_ZN7android4hidl4base4V1_06BsBase12getDebugInfoENSt3__18functionIFvRKNS2_9DebugInfoEEEE"
  }
  mangled_function_name: "_ZN7android4hidl4base4V1_06BsBase12getDebugInfoENSt3__18functionIFvRKNS2_9DebugInfoEEEE"
  source_file: "out/soong/.intermediates/system/libhidl/transport/base/1.0/android.hidl.base@1.0_genc++_headers/gen/android/hidl/base/1.0/BsBase.h"
  parameters {
    basic_abi {
      type_abi {
        name: "std::function<void (const DebugInfo &)>"
        size: 48
        alignment: 16
      }
      name: "_hidl_cb"
      access: public_access
      linker_set_key: "false"
    }
    default_arg: false
  }
}
functions {
  basic_abi {
    type_abi {
      name: "android::hardware::Return<void>"
      size: 40
      alignment: 8
    }
    name: "android::hidl::base::V1_0::BsBase::notifySyspropsChanged"
    access: public_access
    linker_set_key: "_ZN7android4hidl4base4V1_06BsBase21notifySyspropsChangedEv"
  }
  mangled_function_name: "_ZN7android4hidl4base4V1_06BsBase21notifySyspropsChangedEv"
  source_file: "out/soong/.intermediates/system/libhidl/transport/base/1.0/android.hidl.base@1.0_genc++_headers/gen/android/hidl/base/1.0/BsBase.h"
}
functions {
  basic_abi {
    type_abi {
      name: "android::hardware::Return<bool>"
      size: 40
      alignment: 8
    }
    name: "android::hidl::base::V1_0::BsBase::unlinkToDeath"
    access: public_access
    linker_set_key: "_ZN7android4hidl4base4V1_06BsBase13unlinkToDeathERKNS_2spINS_8hardware20hidl_death_recipientEEE"
  }
  mangled_function_name: "_ZN7android4hidl4base4V1_06BsBase13unlinkToDeathERKNS_2spINS_8hardware20hidl_death_recipientEEE"
  source_file: "out/soong/.intermediates/system/libhidl/transport/base/1.0/android.hidl.base@1.0_genc++_headers/gen/android/hidl/base/1.0/BsBase.h"
  parameters {
    basic_abi {
      type_abi {
        name: "const android::sp<android::hardware::hidl_death_recipient> &"
        size: 8
        alignment: 8
      }
      name: "recipient"
      access: public_access
      linker_set_key: "false"
    }
    default_arg: false
  }
}
functions {
  basic_abi {
    type_abi {
      name: "android::hardware::Return<void>"
      size: 40
      alignment: 8
    }
    name: "android::hidl::base::V1_0::BsBase::addOnewayTask"
    access: private_access
    linker_set_key: "_ZN7android4hidl4base4V1_06BsBase13addOnewayTaskENSt3__18functionIFvvEEE"
  }
  mangled_function_name: "_ZN7android4hidl4base4V1_06BsBase13addOnewayTaskENSt3__18functionIFvvEEE"
  source_file: "out/soong/.intermediates/system/libhidl/transport/base/1.0/android.hidl.base@1.0_genc++_headers/gen/android/hidl/base/1.0/BsBase.h"
  parameters {
    basic_abi {
      type_abi {
        name: "std::function<void ()>"
        size: 48
        alignment: 16
      }
      name: ""
      access: public_access
      linker_set_key: "false"
    }
    default_arg: false
  }
}
enums {
  basic_abi {
    type_abi {
      name: "int"
      size: 4
      alignment: 4
    }
    name: "android::hidl::base::V1_0::DebugInfo::Architecture"
    access: public_access
    linker_set_key: "_ZN7android4hidl4base4V1_09DebugInfo12ArchitectureE"
  }
  enum_fields {
    basic_abi {
      type_abi {
        name: "android::hidl::base::V1_0::DebugInfo::Architecture"
        size: 4
        alignment: 4
      }
      name: "android::hidl::base::V1_0::DebugInfo::Architecture::UNKNOWN"
      access: public_access
      linker_set_key: "0"
    }
    enum_field_value: 0
  }
  enum_fields {
    basic_abi {
      type_abi {
        name: "android::hidl::base::V1_0::DebugInfo::Architecture"
        size: 4
        alignment: 4
      }
      name: "android::hidl::base::V1_0::DebugInfo::Architecture::IS_64BIT"
      access: public_access
      linker_set_key: "1"
    }
    enum_field_value: 1
  }
  enum_fields {
    basic_abi {
      type_abi {
        name: "android::hidl::base::V1_0::DebugInfo::Architecture"
        size: 4
        alignment: 4
      }
      name: "android::hidl::base::V1_0::DebugInfo::Architecture::IS_32BIT"
      access: public_access
      linker_set_key: "2"
    }
    enum_field_value: 2
  }
  source_file: "out/soong/.intermediates/system/libhidl/transport/base/1.0/android.hidl.base@1.0_genc++_headers/gen/android/hidl/base/1.0/types.h"
}
enums {
  basic_abi {
    type_abi {
      name: "unsigned char"
      size: 1
      alignment: 1
    }
    name: "android::hidl::manager::V1_0::IServiceManager::Transport"
    access: public_access
    linker_set_key: "_ZN7android4hidl7manager4V1_015IServiceManager9TransportE"
  }
  enum_fields {
    basic_abi {
      type_abi {
        name: "android::hidl::manager::V1_0::IServiceManager::Transport"
        size: 1
        alignment: 1
      }
      name: "android::hidl::manager::V1_0::IServiceManager::Transport::EMPTY"
      access: public_access
      linker_set_key: "0"
    }
    enum_field_value: 0
  }
  enum_fields {
    basic_abi {
      type_abi {
        name: "android::hidl::manager::V1_0::IServiceManager::Transport"
        size: 1
        alignment: 1
      }
      name: "android::hidl::manager::V1_0::IServiceManager::Transport::HWBINDER"
      access: public_access
      linker_set_key: "1"
    }
    enum_field_value: 1
  }
  enum_fields {
    basic_abi {
      type_abi {
        name: "android::hidl::manager::V1_0::IServiceManager::Transport"
        size: 1
        alignment: 1
      }
      name: "android::hidl::manager::V1_0::IServiceManager::Transport::PASSTHROUGH"
      access: public_access
      linker_set_key: "2"
    }
    enum_field_value: 2
  }
  source_file: "out/soong/.intermediates/system/libhidl/transport/manager/1.0/android.hidl.manager@1.0_genc++_headers/gen/android/hidl/manager/1.0/IServiceManager.h"
}
enums {
  basic_abi {
    type_abi {
      name: "int"
      size: 4
      alignment: 4
    }
    name: "android::hidl::manager::V1_0::IServiceManager::PidConstant"
    access: public_access
    linker_set_key: "_ZN7android4hidl7manager4V1_015IServiceManager11PidConstantE"
  }
  enum_fields {
    basic_abi {
      type_abi {
        name: "android::hidl::manager::V1_0::IServiceManager::PidConstant"
        size: 4
        alignment: 4
      }
      name: "android::hidl::manager::V1_0::IServiceManager::PidConstant::NO_PID"
      access: public_access
      linker_set_key: "18446744073709551615"
    }
    enum_field_value: -1
  }
  source_file: "out/soong/.intermediates/system/libhidl/transport/manager/1.0/android.hidl.manager@1.0_genc++_headers/gen/android/hidl/manager/1.0/IServiceManager.h"
}
global_vars {
  basic_abi {
    type_abi {
      name: "const char *"
      size: 8
      alignment: 8
    }
    name: "android::hidl::base::V1_0::IBase::descriptor"
    access: public_access
    linker_set_key: "_ZN7android4hidl4base4V1_05IBase10descriptorE"
  }
  source_file: "out/soong/.intermediates/system/libhidl/transport/base/1.0/android.hidl.base@1.0_genc++_headers/gen/android/hidl/base/1.0/IBase.h"
}
global_vars {
  basic_abi {
    type_abi {
      name: "android::hardware::ConcurrentMap<std::basic_string<char, std::char_traits<char>, std::allocator<char> >, std::function<sp<IBinder> (void *)> >"
      size: 64
      alignment: 8
    }
    name: "android::hardware::details::gBnConstructorMap"
    access: public_access
    linker_set_key: "_ZN7android8hardware7details17gBnConstructorMapE"
  }
  source_file: "system/libhidl/transport/include/hidl/Static.h"
}
global_vars {
  basic_abi {
    type_abi {
      name: "android::hardware::ConcurrentMap<android::wp<android::hidl::base::V1_0::IBase>, android::hardware::details::SchedPrio>"
    }
    name: "android::hardware::details::gServicePrioMap"
    access: public_access
    linker_set_key: "_ZN7android8hardware7details15gServicePrioMapE"
  }
  source_file: "system/libhidl/transport/include/hidl/Static.h"
}
global_vars {
  basic_abi {
    type_abi {
      name: "android::hardware::ConcurrentMap<std::basic_string<char, std::char_traits<char>, std::allocator<char> >, std::function<sp<IBase> (void *)> >"
    }
    name: "android::hardware::details::gBsConstructorMap"
    access: public_access
    linker_set_key: "_ZN7android8hardware7details17gBsConstructorMapE"
  }
  source_file: "system/libhidl/transport/include/hidl/Static.h"
}
global_vars {
  basic_abi {
    type_abi {
      name: "const char *"
      size: 8
      alignment: 8
    }
    name: "android::hidl::manager::V1_0::IServiceNotification::descriptor"
    access: public_access
    linker_set_key: "_ZN7android4hidl7manager4V1_020IServiceNotification10descriptorE"
  }
  source_file: "out/soong/.intermediates/system/libhidl/transport/manager/1.0/android.hidl.manager@1.0_genc++_headers/gen/android/hidl/manager/1.0/IServiceNotification.h"
}
global_vars {
  basic_abi {
    type_abi {
      name: "const char *"
      size: 8
      alignment: 8
    }
    name: "android::hidl::manager::V1_0::IServiceManager::descriptor"
    access: public_access
    linker_set_key: "_ZN7android4hidl7manager4V1_015IServiceManager10descriptorE"
  }
  source_file: "out/soong/.intermediates/system/libhidl/transport/manager/1.0/android.hidl.manager@1.0_genc++_headers/gen/android/hidl/manager/1.0/IServiceManager.h"
}
