records {
  basic_abi {
    type_abi {
      name: "android::hidl::manager::V1_0::IServiceNotification"
      size: 12
      alignment: 4
    }
    name: "android::hidl::manager::V1_0::IServiceNotification"
    access: public_access
    linker_set_key: "_ZN7android4hidl7manager4V1_020IServiceNotificationE"
  }
  base_specifiers {
    basic_abi {
      type_abi {
        name: "android::hidl::base::V1_0::IBase"
        size: 12
        alignment: 4
      }
      name: ""
      access: public_access
    }
    is_virtual: false
  }
  source_file: "/home/suhwa.kim/CONA_Proj/android/out/soong/.intermediates/system/libhidl/transport/manager/1.0/android.hidl.manager@1.0_genc++_headers/gen/android/hidl/manager/1.0/IServiceNotification.h"
  mangled_record_name: "_ZN7android4hidl7manager4V1_020IServiceNotificationE"
  vtable_layout {
    vtable_components {
      kind: VBaseOffset
      mangled_component_name: ""
      value: 4
    }
    vtable_components {
      kind: OffsetToTop
      mangled_component_name: ""
      value: 0
    }
    vtable_components {
      kind: RTTI
      mangled_component_name: "_ZN7android4hidl7manager4V1_020IServiceNotificationE"
      value: 0
    }
    vtable_components {
      kind: FunctionPointer
      mangled_component_name: "_ZNK7android4hidl7manager4V1_020IServiceNotification8isRemoteEv"
      value: 0
    }
    vtable_components {
      kind: FunctionPointer
      mangled_component_name: "_ZN7android4hidl7manager4V1_020IServiceNotification14interfaceChainENSt3__18functionIFvRKNS_8hardware8hidl_vecINS6_11hidl_stringEEEEEE"
      value: 0
    }
    vtable_components {
      kind: FunctionPointer
      mangled_component_name: "_ZN7android4hidl7manager4V1_020IServiceNotification5debugERKNS_8hardware11hidl_handleERKNS4_8hidl_vecINS4_11hidl_stringEEE"
      value: 0
    }
    vtable_components {
      kind: FunctionPointer
      mangled_component_name: "_ZN7android4hidl7manager4V1_020IServiceNotification19interfaceDescriptorENSt3__18functionIFvRKNS_8hardware11hidl_stringEEEE"
      value: 0
    }
    vtable_components {
      kind: FunctionPointer
      mangled_component_name: "_ZN7android4hidl7manager4V1_020IServiceNotification12getHashChainENSt3__18functionIFvRKNS_8hardware8hidl_vecINS6_10hidl_arrayIhLj32EJEEEEEEEE"
      value: 0
    }
    vtable_components {
      kind: FunctionPointer
      mangled_component_name: "_ZN7android4hidl7manager4V1_020IServiceNotification21setHALInstrumentationEv"
      value: 0
    }
    vtable_components {
      kind: FunctionPointer
      mangled_component_name: "_ZN7android4hidl7manager4V1_020IServiceNotification11linkToDeathERKNS_2spINS_8hardware20hidl_death_recipientEEEy"
      value: 0
    }
    vtable_components {
      kind: FunctionPointer
      mangled_component_name: "_ZN7android4hidl7manager4V1_020IServiceNotification4pingEv"
      value: 0
    }
    vtable_components {
      kind: FunctionPointer
      mangled_component_name: "_ZN7android4hidl7manager4V1_020IServiceNotification12getDebugInfoENSt3__18functionIFvRKNS0_4base4V1_09DebugInfoEEEE"
      value: 0
    }
    vtable_components {
      kind: FunctionPointer
      mangled_component_name: "_ZN7android4hidl7manager4V1_020IServiceNotification21notifySyspropsChangedEv"
      value: 0
    }
    vtable_components {
      kind: FunctionPointer
      mangled_component_name: "_ZN7android4hidl7manager4V1_020IServiceNotification13unlinkToDeathERKNS_2spINS_8hardware20hidl_death_recipientEEE"
      value: 0
    }
    vtable_components {
      kind: CompleteDtorPointer
      mangled_component_name: "_ZN7android4hidl7manager4V1_020IServiceNotificationD0Ev"
      value: 0
    }
    vtable_components {
      kind: UnusedFunctionPointer
      mangled_component_name: "_ZN7android4hidl7manager4V1_020IServiceNotificationD0Ev"
      value: 0
    }
    vtable_components {
      kind: FunctionPointer
      mangled_component_name: "_ZN7android4hidl7manager4V1_020IServiceNotification14onRegistrationERKNS_8hardware11hidl_stringES7_b"
      value: 0
    }
    vtable_components {
      kind: VCallOffset
      mangled_component_name: ""
      value: 0
    }
    vtable_components {
      kind: VCallOffset
      mangled_component_name: ""
      value: 0
    }
    vtable_components {
      kind: VCallOffset
      mangled_component_name: ""
      value: 0
    }
    vtable_components {
      kind: VCallOffset
      mangled_component_name: ""
      value: 0
    }
    vtable_components {
      kind: VCallOffset
      mangled_component_name: ""
      value: 18446744073709551612
    }
    vtable_components {
      kind: OffsetToTop
      mangled_component_name: ""
      value: 18446744073709551612
    }
    vtable_components {
      kind: RTTI
      mangled_component_name: "_ZN7android4hidl7manager4V1_020IServiceNotificationE"
      value: 0
    }
    vtable_components {
      kind: CompleteDtorPointer
      mangled_component_name: "_ZN7android4hidl7manager4V1_020IServiceNotificationD0Ev"
      value: 0
    }
    vtable_components {
      kind: UnusedFunctionPointer
      mangled_component_name: "_ZN7android4hidl7manager4V1_020IServiceNotificationD0Ev"
      value: 0
    }
    vtable_components {
      kind: FunctionPointer
      mangled_component_name: "_ZN7android7RefBase10onFirstRefEv"
      value: 0
    }
    vtable_components {
      kind: FunctionPointer
      mangled_component_name: "_ZN7android7RefBase15onLastStrongRefEPKv"
      value: 0
    }
    vtable_components {
      kind: FunctionPointer
      mangled_component_name: "_ZN7android7RefBase20onIncStrongAttemptedEjPKv"
      value: 0
    }
    vtable_components {
      kind: FunctionPointer
      mangled_component_name: "_ZN7android7RefBase13onLastWeakRefEPKv"
      value: 0
    }
  }
}
records {
  basic_abi {
    type_abi {
      name: "android::hidl::manager::V1_0::IServiceManager"
      size: 12
      alignment: 4
    }
    name: "android::hidl::manager::V1_0::IServiceManager"
    access: public_access
    linker_set_key: "_ZN7android4hidl7manager4V1_015IServiceManagerE"
  }
  base_specifiers {
    basic_abi {
      type_abi {
        name: "android::hidl::base::V1_0::IBase"
        size: 12
        alignment: 4
      }
      name: ""
      access: public_access
    }
    is_virtual: false
  }
  source_file: "/home/suhwa.kim/CONA_Proj/android/out/soong/.intermediates/system/libhidl/transport/manager/1.0/android.hidl.manager@1.0_genc++_headers/gen/android/hidl/manager/1.0/IServiceManager.h"
  mangled_record_name: "_ZN7android4hidl7manager4V1_015IServiceManagerE"
  vtable_layout {
    vtable_components {
      kind: VBaseOffset
      mangled_component_name: ""
      value: 4
    }
    vtable_components {
      kind: OffsetToTop
      mangled_component_name: ""
      value: 0
    }
    vtable_components {
      kind: RTTI
      mangled_component_name: "_ZN7android4hidl7manager4V1_015IServiceManagerE"
      value: 0
    }
    vtable_components {
      kind: FunctionPointer
      mangled_component_name: "_ZNK7android4hidl7manager4V1_015IServiceManager8isRemoteEv"
      value: 0
    }
    vtable_components {
      kind: FunctionPointer
      mangled_component_name: "_ZN7android4hidl7manager4V1_015IServiceManager14interfaceChainENSt3__18functionIFvRKNS_8hardware8hidl_vecINS6_11hidl_stringEEEEEE"
      value: 0
    }
    vtable_components {
      kind: FunctionPointer
      mangled_component_name: "_ZN7android4hidl7manager4V1_015IServiceManager5debugERKNS_8hardware11hidl_handleERKNS4_8hidl_vecINS4_11hidl_stringEEE"
      value: 0
    }
    vtable_components {
      kind: FunctionPointer
      mangled_component_name: "_ZN7android4hidl7manager4V1_015IServiceManager19interfaceDescriptorENSt3__18functionIFvRKNS_8hardware11hidl_stringEEEE"
      value: 0
    }
    vtable_components {
      kind: FunctionPointer
      mangled_component_name: "_ZN7android4hidl7manager4V1_015IServiceManager12getHashChainENSt3__18functionIFvRKNS_8hardware8hidl_vecINS6_10hidl_arrayIhLj32EJEEEEEEEE"
      value: 0
    }
    vtable_components {
      kind: FunctionPointer
      mangled_component_name: "_ZN7android4hidl7manager4V1_015IServiceManager21setHALInstrumentationEv"
      value: 0
    }
    vtable_components {
      kind: FunctionPointer
      mangled_component_name: "_ZN7android4hidl7manager4V1_015IServiceManager11linkToDeathERKNS_2spINS_8hardware20hidl_death_recipientEEEy"
      value: 0
    }
    vtable_components {
      kind: FunctionPointer
      mangled_component_name: "_ZN7android4hidl7manager4V1_015IServiceManager4pingEv"
      value: 0
    }
    vtable_components {
      kind: FunctionPointer
      mangled_component_name: "_ZN7android4hidl7manager4V1_015IServiceManager12getDebugInfoENSt3__18functionIFvRKNS0_4base4V1_09DebugInfoEEEE"
      value: 0
    }
    vtable_components {
      kind: FunctionPointer
      mangled_component_name: "_ZN7android4hidl7manager4V1_015IServiceManager21notifySyspropsChangedEv"
      value: 0
    }
    vtable_components {
      kind: FunctionPointer
      mangled_component_name: "_ZN7android4hidl7manager4V1_015IServiceManager13unlinkToDeathERKNS_2spINS_8hardware20hidl_death_recipientEEE"
      value: 0
    }
    vtable_components {
      kind: CompleteDtorPointer
      mangled_component_name: "_ZN7android4hidl7manager4V1_015IServiceManagerD0Ev"
      value: 0
    }
    vtable_components {
      kind: UnusedFunctionPointer
      mangled_component_name: "_ZN7android4hidl7manager4V1_015IServiceManagerD0Ev"
      value: 0
    }
    vtable_components {
      kind: FunctionPointer
      mangled_component_name: "_ZN7android4hidl7manager4V1_015IServiceManager3getERKNS_8hardware11hidl_stringES7_"
      value: 0
    }
    vtable_components {
      kind: FunctionPointer
      mangled_component_name: "_ZN7android4hidl7manager4V1_015IServiceManager3addERKNS_8hardware11hidl_stringERKNS_2spINS0_4base4V1_05IBaseEEE"
      value: 0
    }
    vtable_components {
      kind: FunctionPointer
      mangled_component_name: "_ZN7android4hidl7manager4V1_015IServiceManager12getTransportERKNS_8hardware11hidl_stringES7_"
      value: 0
    }
    vtable_components {
      kind: FunctionPointer
      mangled_component_name: "_ZN7android4hidl7manager4V1_015IServiceManager4listENSt3__18functionIFvRKNS_8hardware8hidl_vecINS6_11hidl_stringEEEEEE"
      value: 0
    }
    vtable_components {
      kind: FunctionPointer
      mangled_component_name: "_ZN7android4hidl7manager4V1_015IServiceManager15listByInterfaceERKNS_8hardware11hidl_stringENSt3__18functionIFvRKNS4_8hidl_vecIS5_EEEEE"
      value: 0
    }
    vtable_components {
      kind: FunctionPointer
      mangled_component_name: "_ZN7android4hidl7manager4V1_015IServiceManager24registerForNotificationsERKNS_8hardware11hidl_stringES7_RKNS_2spINS2_20IServiceNotificationEEE"
      value: 0
    }
    vtable_components {
      kind: FunctionPointer
      mangled_component_name: "_ZN7android4hidl7manager4V1_015IServiceManager9debugDumpENSt3__18functionIFvRKNS_8hardware8hidl_vecINS3_17InstanceDebugInfoEEEEEE"
      value: 0
    }
    vtable_components {
      kind: FunctionPointer
      mangled_component_name: "_ZN7android4hidl7manager4V1_015IServiceManager25registerPassthroughClientERKNS_8hardware11hidl_stringES7_"
      value: 0
    }
    vtable_components {
      kind: VCallOffset
      mangled_component_name: ""
      value: 0
    }
    vtable_components {
      kind: VCallOffset
      mangled_component_name: ""
      value: 0
    }
    vtable_components {
      kind: VCallOffset
      mangled_component_name: ""
      value: 0
    }
    vtable_components {
      kind: VCallOffset
      mangled_component_name: ""
      value: 0
    }
    vtable_components {
      kind: VCallOffset
      mangled_component_name: ""
      value: 18446744073709551612
    }
    vtable_components {
      kind: OffsetToTop
      mangled_component_name: ""
      value: 18446744073709551612
    }
    vtable_components {
      kind: RTTI
      mangled_component_name: "_ZN7android4hidl7manager4V1_015IServiceManagerE"
      value: 0
    }
    vtable_components {
      kind: CompleteDtorPointer
      mangled_component_name: "_ZN7android4hidl7manager4V1_015IServiceManagerD0Ev"
      value: 0
    }
    vtable_components {
      kind: UnusedFunctionPointer
      mangled_component_name: "_ZN7android4hidl7manager4V1_015IServiceManagerD0Ev"
      value: 0
    }
    vtable_components {
      kind: FunctionPointer
      mangled_component_name: "_ZN7android7RefBase10onFirstRefEv"
      value: 0
    }
    vtable_components {
      kind: FunctionPointer
      mangled_component_name: "_ZN7android7RefBase15onLastStrongRefEPKv"
      value: 0
    }
    vtable_components {
      kind: FunctionPointer
      mangled_component_name: "_ZN7android7RefBase20onIncStrongAttemptedEjPKv"
      value: 0
    }
    vtable_components {
      kind: FunctionPointer
      mangled_component_name: "_ZN7android7RefBase13onLastWeakRefEPKv"
      value: 0
    }
  }
}
records {
  basic_abi {
    type_abi {
      name: "android::hidl::manager::V1_0::IServiceManager::InstanceDebugInfo"
      size: 64
      alignment: 8
    }
    name: "android::hidl::manager::V1_0::IServiceManager::InstanceDebugInfo"
    access: public_access
    linker_set_key: "_ZN7android4hidl7manager4V1_015IServiceManager17InstanceDebugInfoE"
  }
  fields {
    basic_abi {
      type_abi {
        name: "android::hardware::hidl_string"
        size: 16
        alignment: 8
      }
      name: "interfaceName"
      access: public_access
    }
  }
  fields {
    basic_abi {
      type_abi {
        name: "android::hardware::hidl_string"
        size: 16
        alignment: 8
      }
      name: "instanceName"
      access: public_access
    }
  }
  fields {
    basic_abi {
      type_abi {
        name: "int"
        size: 4
        alignment: 4
      }
      name: "pid"
      access: public_access
    }
  }
  fields {
    basic_abi {
      type_abi {
        name: "android::hardware::hidl_vec<int>"
        size: 16
        alignment: 8
      }
      name: "clientPids"
      access: public_access
    }
  }
  fields {
    basic_abi {
      type_abi {
        name: "android::hidl::base::V1_0::DebugInfo::Architecture"
        size: 4
        alignment: 4
      }
      name: "arch"
      access: public_access
    }
  }
  source_file: "/home/suhwa.kim/CONA_Proj/android/out/soong/.intermediates/system/libhidl/transport/manager/1.0/android.hidl.manager@1.0_genc++_headers/gen/android/hidl/manager/1.0/IServiceManager.h"
  mangled_record_name: "_ZN7android4hidl7manager4V1_015IServiceManager17InstanceDebugInfoE"
}
records {
  basic_abi {
    type_abi {
      name: "android::hidl::manager::V1_0::BnHwServiceNotification"
      size: 80
      alignment: 4
    }
    name: "android::hidl::manager::V1_0::BnHwServiceNotification"
    access: public_access
    linker_set_key: "_ZN7android4hidl7manager4V1_023BnHwServiceNotificationE"
  }
  fields {
    basic_abi {
      type_abi {
        name: "android::sp<android::hidl::manager::V1_0::IServiceNotification>"
        size: 4
        alignment: 4
      }
      name: "_hidl_mImpl"
      access: private_access
    }
  }
  base_specifiers {
    basic_abi {
      type_abi {
        name: "android::hidl::base::V1_0::BnHwBase"
        size: 76
        alignment: 4
      }
      name: ""
      access: public_access
    }
    is_virtual: false
  }
  source_file: "/home/suhwa.kim/CONA_Proj/android/out/soong/.intermediates/system/libhidl/transport/manager/1.0/android.hidl.manager@1.0_genc++_headers/gen/android/hidl/manager/1.0/BnHwServiceNotification.h"
  mangled_record_name: "_ZN7android4hidl7manager4V1_023BnHwServiceNotificationE"
  vtable_layout {
    vtable_components {
      kind: VBaseOffset
      mangled_component_name: ""
      value: 72
    }
    vtable_components {
      kind: OffsetToTop
      mangled_component_name: ""
      value: 0
    }
    vtable_components {
      kind: RTTI
      mangled_component_name: "_ZN7android4hidl7manager4V1_023BnHwServiceNotificationE"
      value: 0
    }
    vtable_components {
      kind: FunctionPointer
      mangled_component_name: "_ZN7android8hardware9BHwBinder8transactEjRKNS0_6ParcelEPS2_jNSt3__18functionIFvRS2_EEE"
      value: 0
    }
    vtable_components {
      kind: FunctionPointer
      mangled_component_name: "_ZN7android8hardware9BHwBinder11linkToDeathERKNS_2spINS0_7IBinder14DeathRecipientEEEPvj"
      value: 0
    }
    vtable_components {
      kind: FunctionPointer
      mangled_component_name: "_ZN7android8hardware9BHwBinder13unlinkToDeathERKNS_2wpINS0_7IBinder14DeathRecipientEEEPvjPS5_"
      value: 0
    }
    vtable_components {
      kind: FunctionPointer
      mangled_component_name: "_ZNK7android8hardware7IBinder13checkSubclassEPKv"
      value: 0
    }
    vtable_components {
      kind: FunctionPointer
      mangled_component_name: "_ZN7android8hardware9BHwBinder12attachObjectEPKvPvS4_PFvS3_S4_S4_E"
      value: 0
    }
    vtable_components {
      kind: FunctionPointer
      mangled_component_name: "_ZNK7android8hardware9BHwBinder10findObjectEPKv"
      value: 0
    }
    vtable_components {
      kind: FunctionPointer
      mangled_component_name: "_ZN7android8hardware9BHwBinder12detachObjectEPKv"
      value: 0
    }
    vtable_components {
      kind: FunctionPointer
      mangled_component_name: "_ZN7android8hardware9BHwBinder11localBinderEv"
      value: 0
    }
    vtable_components {
      kind: FunctionPointer
      mangled_component_name: "_ZN7android8hardware7IBinder12remoteBinderEv"
      value: 0
    }
    vtable_components {
      kind: CompleteDtorPointer
      mangled_component_name: "_ZN7android4hidl7manager4V1_023BnHwServiceNotificationD0Ev"
      value: 0
    }
    vtable_components {
      kind: UnusedFunctionPointer
      mangled_component_name: "_ZN7android4hidl7manager4V1_023BnHwServiceNotificationD0Ev"
      value: 0
    }
    vtable_components {
      kind: FunctionPointer
      mangled_component_name: "_ZN7android4hidl7manager4V1_023BnHwServiceNotification10onTransactEjRKNS_8hardware6ParcelEPS5_jNSt3__18functionIFvRS5_EEE"
      value: 0
    }
    vtable_components {
      kind: OffsetToTop
      mangled_component_name: ""
      value: 18446744073709551596
    }
    vtable_components {
      kind: RTTI
      mangled_component_name: "_ZN7android4hidl7manager4V1_023BnHwServiceNotificationE"
      value: 0
    }
    vtable_components {
      kind: CompleteDtorPointer
      mangled_component_name: "_ZN7android4hidl7manager4V1_023BnHwServiceNotificationD0Ev"
      value: 0
    }
    vtable_components {
      kind: UnusedFunctionPointer
      mangled_component_name: "_ZN7android4hidl7manager4V1_023BnHwServiceNotificationD0Ev"
      value: 0
    }
    vtable_components {
      kind: VCallOffset
      mangled_component_name: ""
      value: 0
    }
    vtable_components {
      kind: VCallOffset
      mangled_component_name: ""
      value: 0
    }
    vtable_components {
      kind: VCallOffset
      mangled_component_name: ""
      value: 0
    }
    vtable_components {
      kind: VCallOffset
      mangled_component_name: ""
      value: 0
    }
    vtable_components {
      kind: VCallOffset
      mangled_component_name: ""
      value: 18446744073709551544
    }
    vtable_components {
      kind: OffsetToTop
      mangled_component_name: ""
      value: 18446744073709551544
    }
    vtable_components {
      kind: RTTI
      mangled_component_name: "_ZN7android4hidl7manager4V1_023BnHwServiceNotificationE"
      value: 0
    }
    vtable_components {
      kind: CompleteDtorPointer
      mangled_component_name: "_ZN7android4hidl7manager4V1_023BnHwServiceNotificationD0Ev"
      value: 0
    }
    vtable_components {
      kind: UnusedFunctionPointer
      mangled_component_name: "_ZN7android4hidl7manager4V1_023BnHwServiceNotificationD0Ev"
      value: 0
    }
    vtable_components {
      kind: FunctionPointer
      mangled_component_name: "_ZN7android7RefBase10onFirstRefEv"
      value: 0
    }
    vtable_components {
      kind: FunctionPointer
      mangled_component_name: "_ZN7android7RefBase15onLastStrongRefEPKv"
      value: 0
    }
    vtable_components {
      kind: FunctionPointer
      mangled_component_name: "_ZN7android7RefBase20onIncStrongAttemptedEjPKv"
      value: 0
    }
    vtable_components {
      kind: FunctionPointer
      mangled_component_name: "_ZN7android7RefBase13onLastWeakRefEPKv"
      value: 0
    }
  }
}
records {
  basic_abi {
    type_abi {
      name: "android::hidl::manager::V1_0::BpHwServiceNotification"
      size: 92
      alignment: 4
    }
    name: "android::hidl::manager::V1_0::BpHwServiceNotification"
    access: public_access
    linker_set_key: "_ZN7android4hidl7manager4V1_023BpHwServiceNotificationE"
  }
  fields {
    basic_abi {
      type_abi {
        name: "std::mutex"
        size: 4
        alignment: 4
      }
      name: "_hidl_mMutex"
      access: private_access
    }
  }
  fields {
    basic_abi {
      type_abi {
        name: "std::vector<android::sp<android::hardware::hidl_binder_death_recipient>, std::allocator<android::sp<android::hardware::hidl_binder_death_recipient> > >"
        size: 12
        alignment: 4
      }
      name: "_hidl_mDeathRecipients"
      access: private_access
    }
  }
  base_specifiers {
    basic_abi {
      type_abi {
        name: "android::hardware::BpInterface<android::hidl::manager::V1_0::IServiceNotification>"
        size: 32
        alignment: 4
      }
      name: ""
      access: public_access
    }
    is_virtual: false
  }
  base_specifiers {
    basic_abi {
      type_abi {
        name: "android::hardware::details::HidlInstrumentor"
        size: 44
        alignment: 4
      }
      name: ""
      access: public_access
    }
    is_virtual: false
  }
  source_file: "/home/suhwa.kim/CONA_Proj/android/out/soong/.intermediates/system/libhidl/transport/manager/1.0/android.hidl.manager@1.0_genc++_headers/gen/android/hidl/manager/1.0/BpHwServiceNotification.h"
  mangled_record_name: "_ZN7android4hidl7manager4V1_023BpHwServiceNotificationE"
  vtable_layout {
    vtable_components {
      kind: VBaseOffset
      mangled_component_name: ""
      value: 84
    }
    vtable_components {
      kind: OffsetToTop
      mangled_component_name: ""
      value: 0
    }
    vtable_components {
      kind: RTTI
      mangled_component_name: "_ZN7android4hidl7manager4V1_023BpHwServiceNotificationE"
      value: 0
    }
    vtable_components {
      kind: FunctionPointer
      mangled_component_name: "_ZNK7android4hidl7manager4V1_023BpHwServiceNotification8isRemoteEv"
      value: 0
    }
    vtable_components {
      kind: FunctionPointer
      mangled_component_name: "_ZN7android4hidl7manager4V1_023BpHwServiceNotification14interfaceChainENSt3__18functionIFvRKNS_8hardware8hidl_vecINS6_11hidl_stringEEEEEE"
      value: 0
    }
    vtable_components {
      kind: FunctionPointer
      mangled_component_name: "_ZN7android4hidl7manager4V1_023BpHwServiceNotification5debugERKNS_8hardware11hidl_handleERKNS4_8hidl_vecINS4_11hidl_stringEEE"
      value: 0
    }
    vtable_components {
      kind: FunctionPointer
      mangled_component_name: "_ZN7android4hidl7manager4V1_023BpHwServiceNotification19interfaceDescriptorENSt3__18functionIFvRKNS_8hardware11hidl_stringEEEE"
      value: 0
    }
    vtable_components {
      kind: FunctionPointer
      mangled_component_name: "_ZN7android4hidl7manager4V1_023BpHwServiceNotification12getHashChainENSt3__18functionIFvRKNS_8hardware8hidl_vecINS6_10hidl_arrayIhLj32EJEEEEEEEE"
      value: 0
    }
    vtable_components {
      kind: FunctionPointer
      mangled_component_name: "_ZN7android4hidl7manager4V1_023BpHwServiceNotification21setHALInstrumentationEv"
      value: 0
    }
    vtable_components {
      kind: FunctionPointer
      mangled_component_name: "_ZN7android4hidl7manager4V1_023BpHwServiceNotification11linkToDeathERKNS_2spINS_8hardware20hidl_death_recipientEEEy"
      value: 0
    }
    vtable_components {
      kind: FunctionPointer
      mangled_component_name: "_ZN7android4hidl7manager4V1_023BpHwServiceNotification4pingEv"
      value: 0
    }
    vtable_components {
      kind: FunctionPointer
      mangled_component_name: "_ZN7android4hidl7manager4V1_023BpHwServiceNotification12getDebugInfoENSt3__18functionIFvRKNS0_4base4V1_09DebugInfoEEEE"
      value: 0
    }
    vtable_components {
      kind: FunctionPointer
      mangled_component_name: "_ZN7android4hidl7manager4V1_023BpHwServiceNotification21notifySyspropsChangedEv"
      value: 0
    }
    vtable_components {
      kind: FunctionPointer
      mangled_component_name: "_ZN7android4hidl7manager4V1_023BpHwServiceNotification13unlinkToDeathERKNS_2spINS_8hardware20hidl_death_recipientEEE"
      value: 0
    }
    vtable_components {
      kind: CompleteDtorPointer
      mangled_component_name: "_ZN7android4hidl7manager4V1_023BpHwServiceNotificationD0Ev"
      value: 0
    }
    vtable_components {
      kind: UnusedFunctionPointer
      mangled_component_name: "_ZN7android4hidl7manager4V1_023BpHwServiceNotificationD0Ev"
      value: 0
    }
    vtable_components {
      kind: FunctionPointer
      mangled_component_name: "_ZN7android4hidl7manager4V1_023BpHwServiceNotification14onRegistrationERKNS_8hardware11hidl_stringES7_b"
      value: 0
    }
    vtable_components {
      kind: FunctionPointer
      mangled_component_name: "_ZN7android8hardware11BpInterfaceINS_4hidl7manager4V1_020IServiceNotificationEE10onAsBinderEv"
      value: 0
    }
    vtable_components {
      kind: VBaseOffset
      mangled_component_name: ""
      value: 80
    }
    vtable_components {
      kind: OffsetToTop
      mangled_component_name: ""
      value: 18446744073709551612
    }
    vtable_components {
      kind: RTTI
      mangled_component_name: "_ZN7android4hidl7manager4V1_023BpHwServiceNotificationE"
      value: 0
    }
    vtable_components {
      kind: CompleteDtorPointer
      mangled_component_name: "_ZN7android4hidl7manager4V1_023BpHwServiceNotificationD0Ev"
      value: 0
    }
    vtable_components {
      kind: UnusedFunctionPointer
      mangled_component_name: "_ZN7android4hidl7manager4V1_023BpHwServiceNotificationD0Ev"
      value: 0
    }
    vtable_components {
      kind: FunctionPointer
      mangled_component_name: "_ZN7android8hardware11BpInterfaceINS_4hidl7manager4V1_020IServiceNotificationEE10onAsBinderEv"
      value: 0
    }
    vtable_components {
      kind: VBaseOffset
      mangled_component_name: ""
      value: 76
    }
    vtable_components {
      kind: OffsetToTop
      mangled_component_name: ""
      value: 18446744073709551608
    }
    vtable_components {
      kind: RTTI
      mangled_component_name: "_ZN7android4hidl7manager4V1_023BpHwServiceNotificationE"
      value: 0
    }
    vtable_components {
      kind: CompleteDtorPointer
      mangled_component_name: "_ZN7android4hidl7manager4V1_023BpHwServiceNotificationD0Ev"
      value: 0
    }
    vtable_components {
      kind: UnusedFunctionPointer
      mangled_component_name: "_ZN7android4hidl7manager4V1_023BpHwServiceNotificationD0Ev"
      value: 0
    }
    vtable_components {
      kind: FunctionPointer
      mangled_component_name: "_ZN7android8hardware11BpHwRefBase10onFirstRefEv"
      value: 0
    }
    vtable_components {
      kind: FunctionPointer
      mangled_component_name: "_ZN7android8hardware11BpHwRefBase15onLastStrongRefEPKv"
      value: 0
    }
    vtable_components {
      kind: FunctionPointer
      mangled_component_name: "_ZN7android8hardware11BpHwRefBase20onIncStrongAttemptedEjPKv"
      value: 0
    }
    vtable_components {
      kind: OffsetToTop
      mangled_component_name: ""
      value: 18446744073709551592
    }
    vtable_components {
      kind: RTTI
      mangled_component_name: "_ZN7android4hidl7manager4V1_023BpHwServiceNotificationE"
      value: 0
    }
    vtable_components {
      kind: CompleteDtorPointer
      mangled_component_name: "_ZN7android4hidl7manager4V1_023BpHwServiceNotificationD0Ev"
      value: 0
    }
    vtable_components {
      kind: UnusedFunctionPointer
      mangled_component_name: "_ZN7android4hidl7manager4V1_023BpHwServiceNotificationD0Ev"
      value: 0
    }
    vtable_components {
      kind: VCallOffset
      mangled_component_name: ""
      value: 0
    }
    vtable_components {
      kind: VCallOffset
      mangled_component_name: ""
      value: 18446744073709551540
    }
    vtable_components {
      kind: VCallOffset
      mangled_component_name: ""
      value: 18446744073709551540
    }
    vtable_components {
      kind: VCallOffset
      mangled_component_name: ""
      value: 18446744073709551540
    }
    vtable_components {
      kind: VCallOffset
      mangled_component_name: ""
      value: 18446744073709551532
    }
    vtable_components {
      kind: OffsetToTop
      mangled_component_name: ""
      value: 18446744073709551532
    }
    vtable_components {
      kind: RTTI
      mangled_component_name: "_ZN7android4hidl7manager4V1_023BpHwServiceNotificationE"
      value: 0
    }
    vtable_components {
      kind: CompleteDtorPointer
      mangled_component_name: "_ZN7android4hidl7manager4V1_023BpHwServiceNotificationD0Ev"
      value: 0
    }
    vtable_components {
      kind: UnusedFunctionPointer
      mangled_component_name: "_ZN7android4hidl7manager4V1_023BpHwServiceNotificationD0Ev"
      value: 0
    }
    vtable_components {
      kind: FunctionPointer
      mangled_component_name: "_ZN7android8hardware11BpHwRefBase10onFirstRefEv"
      value: 0
    }
    vtable_components {
      kind: FunctionPointer
      mangled_component_name: "_ZN7android8hardware11BpHwRefBase15onLastStrongRefEPKv"
      value: 0
    }
    vtable_components {
      kind: FunctionPointer
      mangled_component_name: "_ZN7android8hardware11BpHwRefBase20onIncStrongAttemptedEjPKv"
      value: 0
    }
    vtable_components {
      kind: FunctionPointer
      mangled_component_name: "_ZN7android7RefBase13onLastWeakRefEPKv"
      value: 0
    }
  }
}
records {
  basic_abi {
    type_abi {
      name: "android::hidl::manager::V1_0::BpHwServiceManager"
      size: 92
      alignment: 4
    }
    name: "android::hidl::manager::V1_0::BpHwServiceManager"
    access: public_access
    linker_set_key: "_ZN7android4hidl7manager4V1_018BpHwServiceManagerE"
  }
  fields {
    basic_abi {
      type_abi {
        name: "std::mutex"
        size: 4
        alignment: 4
      }
      name: "_hidl_mMutex"
      access: private_access
    }
  }
  fields {
    basic_abi {
      type_abi {
        name: "std::vector<android::sp<android::hardware::hidl_binder_death_recipient>, std::allocator<android::sp<android::hardware::hidl_binder_death_recipient> > >"
        size: 12
        alignment: 4
      }
      name: "_hidl_mDeathRecipients"
      access: private_access
    }
  }
  base_specifiers {
    basic_abi {
      type_abi {
        name: "android::hardware::BpInterface<android::hidl::manager::V1_0::IServiceManager>"
        size: 32
        alignment: 4
      }
      name: ""
      access: public_access
    }
    is_virtual: false
  }
  base_specifiers {
    basic_abi {
      type_abi {
        name: "android::hardware::details::HidlInstrumentor"
        size: 44
        alignment: 4
      }
      name: ""
      access: public_access
    }
    is_virtual: false
  }
  source_file: "/home/suhwa.kim/CONA_Proj/android/out/soong/.intermediates/system/libhidl/transport/manager/1.0/android.hidl.manager@1.0_genc++_headers/gen/android/hidl/manager/1.0/BpHwServiceManager.h"
  mangled_record_name: "_ZN7android4hidl7manager4V1_018BpHwServiceManagerE"
  vtable_layout {
    vtable_components {
      kind: VBaseOffset
      mangled_component_name: ""
      value: 84
    }
    vtable_components {
      kind: OffsetToTop
      mangled_component_name: ""
      value: 0
    }
    vtable_components {
      kind: RTTI
      mangled_component_name: "_ZN7android4hidl7manager4V1_018BpHwServiceManagerE"
      value: 0
    }
    vtable_components {
      kind: FunctionPointer
      mangled_component_name: "_ZNK7android4hidl7manager4V1_018BpHwServiceManager8isRemoteEv"
      value: 0
    }
    vtable_components {
      kind: FunctionPointer
      mangled_component_name: "_ZN7android4hidl7manager4V1_018BpHwServiceManager14interfaceChainENSt3__18functionIFvRKNS_8hardware8hidl_vecINS6_11hidl_stringEEEEEE"
      value: 0
    }
    vtable_components {
      kind: FunctionPointer
      mangled_component_name: "_ZN7android4hidl7manager4V1_018BpHwServiceManager5debugERKNS_8hardware11hidl_handleERKNS4_8hidl_vecINS4_11hidl_stringEEE"
      value: 0
    }
    vtable_components {
      kind: FunctionPointer
      mangled_component_name: "_ZN7android4hidl7manager4V1_018BpHwServiceManager19interfaceDescriptorENSt3__18functionIFvRKNS_8hardware11hidl_stringEEEE"
      value: 0
    }
    vtable_components {
      kind: FunctionPointer
      mangled_component_name: "_ZN7android4hidl7manager4V1_018BpHwServiceManager12getHashChainENSt3__18functionIFvRKNS_8hardware8hidl_vecINS6_10hidl_arrayIhLj32EJEEEEEEEE"
      value: 0
    }
    vtable_components {
      kind: FunctionPointer
      mangled_component_name: "_ZN7android4hidl7manager4V1_018BpHwServiceManager21setHALInstrumentationEv"
      value: 0
    }
    vtable_components {
      kind: FunctionPointer
      mangled_component_name: "_ZN7android4hidl7manager4V1_018BpHwServiceManager11linkToDeathERKNS_2spINS_8hardware20hidl_death_recipientEEEy"
      value: 0
    }
    vtable_components {
      kind: FunctionPointer
      mangled_component_name: "_ZN7android4hidl7manager4V1_018BpHwServiceManager4pingEv"
      value: 0
    }
    vtable_components {
      kind: FunctionPointer
      mangled_component_name: "_ZN7android4hidl7manager4V1_018BpHwServiceManager12getDebugInfoENSt3__18functionIFvRKNS0_4base4V1_09DebugInfoEEEE"
      value: 0
    }
    vtable_components {
      kind: FunctionPointer
      mangled_component_name: "_ZN7android4hidl7manager4V1_018BpHwServiceManager21notifySyspropsChangedEv"
      value: 0
    }
    vtable_components {
      kind: FunctionPointer
      mangled_component_name: "_ZN7android4hidl7manager4V1_018BpHwServiceManager13unlinkToDeathERKNS_2spINS_8hardware20hidl_death_recipientEEE"
      value: 0
    }
    vtable_components {
      kind: CompleteDtorPointer
      mangled_component_name: "_ZN7android4hidl7manager4V1_018BpHwServiceManagerD0Ev"
      value: 0
    }
    vtable_components {
      kind: UnusedFunctionPointer
      mangled_component_name: "_ZN7android4hidl7manager4V1_018BpHwServiceManagerD0Ev"
      value: 0
    }
    vtable_components {
      kind: FunctionPointer
      mangled_component_name: "_ZN7android4hidl7manager4V1_018BpHwServiceManager3getERKNS_8hardware11hidl_stringES7_"
      value: 0
    }
    vtable_components {
      kind: FunctionPointer
      mangled_component_name: "_ZN7android4hidl7manager4V1_018BpHwServiceManager3addERKNS_8hardware11hidl_stringERKNS_2spINS0_4base4V1_05IBaseEEE"
      value: 0
    }
    vtable_components {
      kind: FunctionPointer
      mangled_component_name: "_ZN7android4hidl7manager4V1_018BpHwServiceManager12getTransportERKNS_8hardware11hidl_stringES7_"
      value: 0
    }
    vtable_components {
      kind: FunctionPointer
      mangled_component_name: "_ZN7android4hidl7manager4V1_018BpHwServiceManager4listENSt3__18functionIFvRKNS_8hardware8hidl_vecINS6_11hidl_stringEEEEEE"
      value: 0
    }
    vtable_components {
      kind: FunctionPointer
      mangled_component_name: "_ZN7android4hidl7manager4V1_018BpHwServiceManager15listByInterfaceERKNS_8hardware11hidl_stringENSt3__18functionIFvRKNS4_8hidl_vecIS5_EEEEE"
      value: 0
    }
    vtable_components {
      kind: FunctionPointer
      mangled_component_name: "_ZN7android4hidl7manager4V1_018BpHwServiceManager24registerForNotificationsERKNS_8hardware11hidl_stringES7_RKNS_2spINS2_20IServiceNotificationEEE"
      value: 0
    }
    vtable_components {
      kind: FunctionPointer
      mangled_component_name: "_ZN7android4hidl7manager4V1_018BpHwServiceManager9debugDumpENSt3__18functionIFvRKNS_8hardware8hidl_vecINS2_15IServiceManager17InstanceDebugInfoEEEEEE"
      value: 0
    }
    vtable_components {
      kind: FunctionPointer
      mangled_component_name: "_ZN7android4hidl7manager4V1_018BpHwServiceManager25registerPassthroughClientERKNS_8hardware11hidl_stringES7_"
      value: 0
    }
    vtable_components {
      kind: FunctionPointer
      mangled_component_name: "_ZN7android8hardware11BpInterfaceINS_4hidl7manager4V1_015IServiceManagerEE10onAsBinderEv"
      value: 0
    }
    vtable_components {
      kind: VBaseOffset
      mangled_component_name: ""
      value: 80
    }
    vtable_components {
      kind: OffsetToTop
      mangled_component_name: ""
      value: 18446744073709551612
    }
    vtable_components {
      kind: RTTI
      mangled_component_name: "_ZN7android4hidl7manager4V1_018BpHwServiceManagerE"
      value: 0
    }
    vtable_components {
      kind: CompleteDtorPointer
      mangled_component_name: "_ZN7android4hidl7manager4V1_018BpHwServiceManagerD0Ev"
      value: 0
    }
    vtable_components {
      kind: UnusedFunctionPointer
      mangled_component_name: "_ZN7android4hidl7manager4V1_018BpHwServiceManagerD0Ev"
      value: 0
    }
    vtable_components {
      kind: FunctionPointer
      mangled_component_name: "_ZN7android8hardware11BpInterfaceINS_4hidl7manager4V1_015IServiceManagerEE10onAsBinderEv"
      value: 0
    }
    vtable_components {
      kind: VBaseOffset
      mangled_component_name: ""
      value: 76
    }
    vtable_components {
      kind: OffsetToTop
      mangled_component_name: ""
      value: 18446744073709551608
    }
    vtable_components {
      kind: RTTI
      mangled_component_name: "_ZN7android4hidl7manager4V1_018BpHwServiceManagerE"
      value: 0
    }
    vtable_components {
      kind: CompleteDtorPointer
      mangled_component_name: "_ZN7android4hidl7manager4V1_018BpHwServiceManagerD0Ev"
      value: 0
    }
    vtable_components {
      kind: UnusedFunctionPointer
      mangled_component_name: "_ZN7android4hidl7manager4V1_018BpHwServiceManagerD0Ev"
      value: 0
    }
    vtable_components {
      kind: FunctionPointer
      mangled_component_name: "_ZN7android8hardware11BpHwRefBase10onFirstRefEv"
      value: 0
    }
    vtable_components {
      kind: FunctionPointer
      mangled_component_name: "_ZN7android8hardware11BpHwRefBase15onLastStrongRefEPKv"
      value: 0
    }
    vtable_components {
      kind: FunctionPointer
      mangled_component_name: "_ZN7android8hardware11BpHwRefBase20onIncStrongAttemptedEjPKv"
      value: 0
    }
    vtable_components {
      kind: OffsetToTop
      mangled_component_name: ""
      value: 18446744073709551592
    }
    vtable_components {
      kind: RTTI
      mangled_component_name: "_ZN7android4hidl7manager4V1_018BpHwServiceManagerE"
      value: 0
    }
    vtable_components {
      kind: CompleteDtorPointer
      mangled_component_name: "_ZN7android4hidl7manager4V1_018BpHwServiceManagerD0Ev"
      value: 0
    }
    vtable_components {
      kind: UnusedFunctionPointer
      mangled_component_name: "_ZN7android4hidl7manager4V1_018BpHwServiceManagerD0Ev"
      value: 0
    }
    vtable_components {
      kind: VCallOffset
      mangled_component_name: ""
      value: 0
    }
    vtable_components {
      kind: VCallOffset
      mangled_component_name: ""
      value: 18446744073709551540
    }
    vtable_components {
      kind: VCallOffset
      mangled_component_name: ""
      value: 18446744073709551540
    }
    vtable_components {
      kind: VCallOffset
      mangled_component_name: ""
      value: 18446744073709551540
    }
    vtable_components {
      kind: VCallOffset
      mangled_component_name: ""
      value: 18446744073709551532
    }
    vtable_components {
      kind: OffsetToTop
      mangled_component_name: ""
      value: 18446744073709551532
    }
    vtable_components {
      kind: RTTI
      mangled_component_name: "_ZN7android4hidl7manager4V1_018BpHwServiceManagerE"
      value: 0
    }
    vtable_components {
      kind: CompleteDtorPointer
      mangled_component_name: "_ZN7android4hidl7manager4V1_018BpHwServiceManagerD0Ev"
      value: 0
    }
    vtable_components {
      kind: UnusedFunctionPointer
      mangled_component_name: "_ZN7android4hidl7manager4V1_018BpHwServiceManagerD0Ev"
      value: 0
    }
    vtable_components {
      kind: FunctionPointer
      mangled_component_name: "_ZN7android8hardware11BpHwRefBase10onFirstRefEv"
      value: 0
    }
    vtable_components {
      kind: FunctionPointer
      mangled_component_name: "_ZN7android8hardware11BpHwRefBase15onLastStrongRefEPKv"
      value: 0
    }
    vtable_components {
      kind: FunctionPointer
      mangled_component_name: "_ZN7android8hardware11BpHwRefBase20onIncStrongAttemptedEjPKv"
      value: 0
    }
    vtable_components {
      kind: FunctionPointer
      mangled_component_name: "_ZN7android7RefBase13onLastWeakRefEPKv"
      value: 0
    }
  }
}
records {
  basic_abi {
    type_abi {
      name: "android::hidl::manager::V1_0::BnHwServiceManager"
      size: 80
      alignment: 4
    }
    name: "android::hidl::manager::V1_0::BnHwServiceManager"
    access: public_access
    linker_set_key: "_ZN7android4hidl7manager4V1_018BnHwServiceManagerE"
  }
  fields {
    basic_abi {
      type_abi {
        name: "android::sp<android::hidl::manager::V1_0::IServiceManager>"
        size: 4
        alignment: 4
      }
      name: "_hidl_mImpl"
      access: private_access
    }
  }
  base_specifiers {
    basic_abi {
      type_abi {
        name: "android::hidl::base::V1_0::BnHwBase"
        size: 76
        alignment: 4
      }
      name: ""
      access: public_access
    }
    is_virtual: false
  }
  source_file: "/home/suhwa.kim/CONA_Proj/android/out/soong/.intermediates/system/libhidl/transport/manager/1.0/android.hidl.manager@1.0_genc++_headers/gen/android/hidl/manager/1.0/BnHwServiceManager.h"
  mangled_record_name: "_ZN7android4hidl7manager4V1_018BnHwServiceManagerE"
  vtable_layout {
    vtable_components {
      kind: VBaseOffset
      mangled_component_name: ""
      value: 72
    }
    vtable_components {
      kind: OffsetToTop
      mangled_component_name: ""
      value: 0
    }
    vtable_components {
      kind: RTTI
      mangled_component_name: "_ZN7android4hidl7manager4V1_018BnHwServiceManagerE"
      value: 0
    }
    vtable_components {
      kind: FunctionPointer
      mangled_component_name: "_ZN7android8hardware9BHwBinder8transactEjRKNS0_6ParcelEPS2_jNSt3__18functionIFvRS2_EEE"
      value: 0
    }
    vtable_components {
      kind: FunctionPointer
      mangled_component_name: "_ZN7android8hardware9BHwBinder11linkToDeathERKNS_2spINS0_7IBinder14DeathRecipientEEEPvj"
      value: 0
    }
    vtable_components {
      kind: FunctionPointer
      mangled_component_name: "_ZN7android8hardware9BHwBinder13unlinkToDeathERKNS_2wpINS0_7IBinder14DeathRecipientEEEPvjPS5_"
      value: 0
    }
    vtable_components {
      kind: FunctionPointer
      mangled_component_name: "_ZNK7android8hardware7IBinder13checkSubclassEPKv"
      value: 0
    }
    vtable_components {
      kind: FunctionPointer
      mangled_component_name: "_ZN7android8hardware9BHwBinder12attachObjectEPKvPvS4_PFvS3_S4_S4_E"
      value: 0
    }
    vtable_components {
      kind: FunctionPointer
      mangled_component_name: "_ZNK7android8hardware9BHwBinder10findObjectEPKv"
      value: 0
    }
    vtable_components {
      kind: FunctionPointer
      mangled_component_name: "_ZN7android8hardware9BHwBinder12detachObjectEPKv"
      value: 0
    }
    vtable_components {
      kind: FunctionPointer
      mangled_component_name: "_ZN7android8hardware9BHwBinder11localBinderEv"
      value: 0
    }
    vtable_components {
      kind: FunctionPointer
      mangled_component_name: "_ZN7android8hardware7IBinder12remoteBinderEv"
      value: 0
    }
    vtable_components {
      kind: CompleteDtorPointer
      mangled_component_name: "_ZN7android4hidl7manager4V1_018BnHwServiceManagerD0Ev"
      value: 0
    }
    vtable_components {
      kind: UnusedFunctionPointer
      mangled_component_name: "_ZN7android4hidl7manager4V1_018BnHwServiceManagerD0Ev"
      value: 0
    }
    vtable_components {
      kind: FunctionPointer
      mangled_component_name: "_ZN7android4hidl7manager4V1_018BnHwServiceManager10onTransactEjRKNS_8hardware6ParcelEPS5_jNSt3__18functionIFvRS5_EEE"
      value: 0
    }
    vtable_components {
      kind: OffsetToTop
      mangled_component_name: ""
      value: 18446744073709551596
    }
    vtable_components {
      kind: RTTI
      mangled_component_name: "_ZN7android4hidl7manager4V1_018BnHwServiceManagerE"
      value: 0
    }
    vtable_components {
      kind: CompleteDtorPointer
      mangled_component_name: "_ZN7android4hidl7manager4V1_018BnHwServiceManagerD0Ev"
      value: 0
    }
    vtable_components {
      kind: UnusedFunctionPointer
      mangled_component_name: "_ZN7android4hidl7manager4V1_018BnHwServiceManagerD0Ev"
      value: 0
    }
    vtable_components {
      kind: VCallOffset
      mangled_component_name: ""
      value: 0
    }
    vtable_components {
      kind: VCallOffset
      mangled_component_name: ""
      value: 0
    }
    vtable_components {
      kind: VCallOffset
      mangled_component_name: ""
      value: 0
    }
    vtable_components {
      kind: VCallOffset
      mangled_component_name: ""
      value: 0
    }
    vtable_components {
      kind: VCallOffset
      mangled_component_name: ""
      value: 18446744073709551544
    }
    vtable_components {
      kind: OffsetToTop
      mangled_component_name: ""
      value: 18446744073709551544
    }
    vtable_components {
      kind: RTTI
      mangled_component_name: "_ZN7android4hidl7manager4V1_018BnHwServiceManagerE"
      value: 0
    }
    vtable_components {
      kind: CompleteDtorPointer
      mangled_component_name: "_ZN7android4hidl7manager4V1_018BnHwServiceManagerD0Ev"
      value: 0
    }
    vtable_components {
      kind: UnusedFunctionPointer
      mangled_component_name: "_ZN7android4hidl7manager4V1_018BnHwServiceManagerD0Ev"
      value: 0
    }
    vtable_components {
      kind: FunctionPointer
      mangled_component_name: "_ZN7android7RefBase10onFirstRefEv"
      value: 0
    }
    vtable_components {
      kind: FunctionPointer
      mangled_component_name: "_ZN7android7RefBase15onLastStrongRefEPKv"
      value: 0
    }
    vtable_components {
      kind: FunctionPointer
      mangled_component_name: "_ZN7android7RefBase20onIncStrongAttemptedEjPKv"
      value: 0
    }
    vtable_components {
      kind: FunctionPointer
      mangled_component_name: "_ZN7android7RefBase13onLastWeakRefEPKv"
      value: 0
    }
  }
}
records {
  basic_abi {
    type_abi {
      name: "android::hidl::manager::V1_0::BsServiceManager"
      size: 68
      alignment: 4
    }
    name: "android::hidl::manager::V1_0::BsServiceManager"
    access: public_access
    linker_set_key: "_ZN7android4hidl7manager4V1_016BsServiceManagerE"
  }
  fields {
    basic_abi {
      type_abi {
        name: "const android::sp<android::hidl::manager::V1_0::IServiceManager>"
        size: 4
        alignment: 4
      }
      name: "mImpl"
      access: private_access
    }
  }
  fields {
    basic_abi {
      type_abi {
        name: "android::hardware::details::TaskRunner"
        size: 8
        alignment: 4
      }
      name: "mOnewayQueue"
      access: private_access
    }
  }
  base_specifiers {
    basic_abi {
      type_abi {
        name: "android::hidl::manager::V1_0::IServiceManager"
        size: 12
        alignment: 4
      }
      name: ""
      access: public_access
    }
    is_virtual: false
  }
  base_specifiers {
    basic_abi {
      type_abi {
        name: "android::hardware::details::HidlInstrumentor"
        size: 44
        alignment: 4
      }
      name: ""
      access: public_access
    }
    is_virtual: false
  }
  source_file: "/home/suhwa.kim/CONA_Proj/android/out/soong/.intermediates/system/libhidl/transport/manager/1.0/android.hidl.manager@1.0_genc++_headers/gen/android/hidl/manager/1.0/BsServiceManager.h"
  mangled_record_name: "_ZN7android4hidl7manager4V1_016BsServiceManagerE"
  vtable_layout {
    vtable_components {
      kind: VBaseOffset
      mangled_component_name: ""
      value: 60
    }
    vtable_components {
      kind: OffsetToTop
      mangled_component_name: ""
      value: 0
    }
    vtable_components {
      kind: RTTI
      mangled_component_name: "_ZN7android4hidl7manager4V1_016BsServiceManagerE"
      value: 0
    }
    vtable_components {
      kind: FunctionPointer
      mangled_component_name: "_ZNK7android4hidl7manager4V1_015IServiceManager8isRemoteEv"
      value: 0
    }
    vtable_components {
      kind: FunctionPointer
      mangled_component_name: "_ZN7android4hidl7manager4V1_016BsServiceManager14interfaceChainENSt3__18functionIFvRKNS_8hardware8hidl_vecINS6_11hidl_stringEEEEEE"
      value: 0
    }
    vtable_components {
      kind: FunctionPointer
      mangled_component_name: "_ZN7android4hidl7manager4V1_016BsServiceManager5debugERKNS_8hardware11hidl_handleERKNS4_8hidl_vecINS4_11hidl_stringEEE"
      value: 0
    }
    vtable_components {
      kind: FunctionPointer
      mangled_component_name: "_ZN7android4hidl7manager4V1_016BsServiceManager19interfaceDescriptorENSt3__18functionIFvRKNS_8hardware11hidl_stringEEEE"
      value: 0
    }
    vtable_components {
      kind: FunctionPointer
      mangled_component_name: "_ZN7android4hidl7manager4V1_016BsServiceManager12getHashChainENSt3__18functionIFvRKNS_8hardware8hidl_vecINS6_10hidl_arrayIhLj32EJEEEEEEEE"
      value: 0
    }
    vtable_components {
      kind: FunctionPointer
      mangled_component_name: "_ZN7android4hidl7manager4V1_016BsServiceManager21setHALInstrumentationEv"
      value: 0
    }
    vtable_components {
      kind: FunctionPointer
      mangled_component_name: "_ZN7android4hidl7manager4V1_016BsServiceManager11linkToDeathERKNS_2spINS_8hardware20hidl_death_recipientEEEy"
      value: 0
    }
    vtable_components {
      kind: FunctionPointer
      mangled_component_name: "_ZN7android4hidl7manager4V1_016BsServiceManager4pingEv"
      value: 0
    }
    vtable_components {
      kind: FunctionPointer
      mangled_component_name: "_ZN7android4hidl7manager4V1_016BsServiceManager12getDebugInfoENSt3__18functionIFvRKNS0_4base4V1_09DebugInfoEEEE"
      value: 0
    }
    vtable_components {
      kind: FunctionPointer
      mangled_component_name: "_ZN7android4hidl7manager4V1_016BsServiceManager21notifySyspropsChangedEv"
      value: 0
    }
    vtable_components {
      kind: FunctionPointer
      mangled_component_name: "_ZN7android4hidl7manager4V1_016BsServiceManager13unlinkToDeathERKNS_2spINS_8hardware20hidl_death_recipientEEE"
      value: 0
    }
    vtable_components {
      kind: CompleteDtorPointer
      mangled_component_name: "_ZN7android4hidl7manager4V1_016BsServiceManagerD0Ev"
      value: 0
    }
    vtable_components {
      kind: UnusedFunctionPointer
      mangled_component_name: "_ZN7android4hidl7manager4V1_016BsServiceManagerD0Ev"
      value: 0
    }
    vtable_components {
      kind: FunctionPointer
      mangled_component_name: "_ZN7android4hidl7manager4V1_016BsServiceManager3getERKNS_8hardware11hidl_stringES7_"
      value: 0
    }
    vtable_components {
      kind: FunctionPointer
      mangled_component_name: "_ZN7android4hidl7manager4V1_016BsServiceManager3addERKNS_8hardware11hidl_stringERKNS_2spINS0_4base4V1_05IBaseEEE"
      value: 0
    }
    vtable_components {
      kind: FunctionPointer
      mangled_component_name: "_ZN7android4hidl7manager4V1_016BsServiceManager12getTransportERKNS_8hardware11hidl_stringES7_"
      value: 0
    }
    vtable_components {
      kind: FunctionPointer
      mangled_component_name: "_ZN7android4hidl7manager4V1_016BsServiceManager4listENSt3__18functionIFvRKNS_8hardware8hidl_vecINS6_11hidl_stringEEEEEE"
      value: 0
    }
    vtable_components {
      kind: FunctionPointer
      mangled_component_name: "_ZN7android4hidl7manager4V1_016BsServiceManager15listByInterfaceERKNS_8hardware11hidl_stringENSt3__18functionIFvRKNS4_8hidl_vecIS5_EEEEE"
      value: 0
    }
    vtable_components {
      kind: FunctionPointer
      mangled_component_name: "_ZN7android4hidl7manager4V1_016BsServiceManager24registerForNotificationsERKNS_8hardware11hidl_stringES7_RKNS_2spINS2_20IServiceNotificationEEE"
      value: 0
    }
    vtable_components {
      kind: FunctionPointer
      mangled_component_name: "_ZN7android4hidl7manager4V1_016BsServiceManager9debugDumpENSt3__18functionIFvRKNS_8hardware8hidl_vecINS2_15IServiceManager17InstanceDebugInfoEEEEEE"
      value: 0
    }
    vtable_components {
      kind: FunctionPointer
      mangled_component_name: "_ZN7android4hidl7manager4V1_016BsServiceManager25registerPassthroughClientERKNS_8hardware11hidl_stringES7_"
      value: 0
    }
    vtable_components {
      kind: OffsetToTop
      mangled_component_name: ""
      value: 18446744073709551612
    }
    vtable_components {
      kind: RTTI
      mangled_component_name: "_ZN7android4hidl7manager4V1_016BsServiceManagerE"
      value: 0
    }
    vtable_components {
      kind: CompleteDtorPointer
      mangled_component_name: "_ZN7android4hidl7manager4V1_016BsServiceManagerD0Ev"
      value: 0
    }
    vtable_components {
      kind: UnusedFunctionPointer
      mangled_component_name: "_ZN7android4hidl7manager4V1_016BsServiceManagerD0Ev"
      value: 0
    }
    vtable_components {
      kind: VCallOffset
      mangled_component_name: ""
      value: 0
    }
    vtable_components {
      kind: VCallOffset
      mangled_component_name: ""
      value: 0
    }
    vtable_components {
      kind: VCallOffset
      mangled_component_name: ""
      value: 0
    }
    vtable_components {
      kind: VCallOffset
      mangled_component_name: ""
      value: 0
    }
    vtable_components {
      kind: VCallOffset
      mangled_component_name: ""
      value: 18446744073709551556
    }
    vtable_components {
      kind: OffsetToTop
      mangled_component_name: ""
      value: 18446744073709551556
    }
    vtable_components {
      kind: RTTI
      mangled_component_name: "_ZN7android4hidl7manager4V1_016BsServiceManagerE"
      value: 0
    }
    vtable_components {
      kind: CompleteDtorPointer
      mangled_component_name: "_ZN7android4hidl7manager4V1_016BsServiceManagerD0Ev"
      value: 0
    }
    vtable_components {
      kind: UnusedFunctionPointer
      mangled_component_name: "_ZN7android4hidl7manager4V1_016BsServiceManagerD0Ev"
      value: 0
    }
    vtable_components {
      kind: FunctionPointer
      mangled_component_name: "_ZN7android7RefBase10onFirstRefEv"
      value: 0
    }
    vtable_components {
      kind: FunctionPointer
      mangled_component_name: "_ZN7android7RefBase15onLastStrongRefEPKv"
      value: 0
    }
    vtable_components {
      kind: FunctionPointer
      mangled_component_name: "_ZN7android7RefBase20onIncStrongAttemptedEjPKv"
      value: 0
    }
    vtable_components {
      kind: FunctionPointer
      mangled_component_name: "_ZN7android7RefBase13onLastWeakRefEPKv"
      value: 0
    }
  }
}
records {
  basic_abi {
    type_abi {
      name: "android::hidl::manager::V1_0::BsServiceNotification"
      size: 68
      alignment: 4
    }
    name: "android::hidl::manager::V1_0::BsServiceNotification"
    access: public_access
    linker_set_key: "_ZN7android4hidl7manager4V1_021BsServiceNotificationE"
  }
  fields {
    basic_abi {
      type_abi {
        name: "const android::sp<android::hidl::manager::V1_0::IServiceNotification>"
        size: 4
        alignment: 4
      }
      name: "mImpl"
      access: private_access
    }
  }
  fields {
    basic_abi {
      type_abi {
        name: "android::hardware::details::TaskRunner"
        size: 8
        alignment: 4
      }
      name: "mOnewayQueue"
      access: private_access
    }
  }
  base_specifiers {
    basic_abi {
      type_abi {
        name: "android::hidl::manager::V1_0::IServiceNotification"
        size: 12
        alignment: 4
      }
      name: ""
      access: public_access
    }
    is_virtual: false
  }
  base_specifiers {
    basic_abi {
      type_abi {
        name: "android::hardware::details::HidlInstrumentor"
        size: 44
        alignment: 4
      }
      name: ""
      access: public_access
    }
    is_virtual: false
  }
  source_file: "/home/suhwa.kim/CONA_Proj/android/out/soong/.intermediates/system/libhidl/transport/manager/1.0/android.hidl.manager@1.0_genc++_headers/gen/android/hidl/manager/1.0/BsServiceNotification.h"
  mangled_record_name: "_ZN7android4hidl7manager4V1_021BsServiceNotificationE"
  vtable_layout {
    vtable_components {
      kind: VBaseOffset
      mangled_component_name: ""
      value: 60
    }
    vtable_components {
      kind: OffsetToTop
      mangled_component_name: ""
      value: 0
    }
    vtable_components {
      kind: RTTI
      mangled_component_name: "_ZN7android4hidl7manager4V1_021BsServiceNotificationE"
      value: 0
    }
    vtable_components {
      kind: FunctionPointer
      mangled_component_name: "_ZNK7android4hidl7manager4V1_020IServiceNotification8isRemoteEv"
      value: 0
    }
    vtable_components {
      kind: FunctionPointer
      mangled_component_name: "_ZN7android4hidl7manager4V1_021BsServiceNotification14interfaceChainENSt3__18functionIFvRKNS_8hardware8hidl_vecINS6_11hidl_stringEEEEEE"
      value: 0
    }
    vtable_components {
      kind: FunctionPointer
      mangled_component_name: "_ZN7android4hidl7manager4V1_021BsServiceNotification5debugERKNS_8hardware11hidl_handleERKNS4_8hidl_vecINS4_11hidl_stringEEE"
      value: 0
    }
    vtable_components {
      kind: FunctionPointer
      mangled_component_name: "_ZN7android4hidl7manager4V1_021BsServiceNotification19interfaceDescriptorENSt3__18functionIFvRKNS_8hardware11hidl_stringEEEE"
      value: 0
    }
    vtable_components {
      kind: FunctionPointer
      mangled_component_name: "_ZN7android4hidl7manager4V1_021BsServiceNotification12getHashChainENSt3__18functionIFvRKNS_8hardware8hidl_vecINS6_10hidl_arrayIhLj32EJEEEEEEEE"
      value: 0
    }
    vtable_components {
      kind: FunctionPointer
      mangled_component_name: "_ZN7android4hidl7manager4V1_021BsServiceNotification21setHALInstrumentationEv"
      value: 0
    }
    vtable_components {
      kind: FunctionPointer
      mangled_component_name: "_ZN7android4hidl7manager4V1_021BsServiceNotification11linkToDeathERKNS_2spINS_8hardware20hidl_death_recipientEEEy"
      value: 0
    }
    vtable_components {
      kind: FunctionPointer
      mangled_component_name: "_ZN7android4hidl7manager4V1_021BsServiceNotification4pingEv"
      value: 0
    }
    vtable_components {
      kind: FunctionPointer
      mangled_component_name: "_ZN7android4hidl7manager4V1_021BsServiceNotification12getDebugInfoENSt3__18functionIFvRKNS0_4base4V1_09DebugInfoEEEE"
      value: 0
    }
    vtable_components {
      kind: FunctionPointer
      mangled_component_name: "_ZN7android4hidl7manager4V1_021BsServiceNotification21notifySyspropsChangedEv"
      value: 0
    }
    vtable_components {
      kind: FunctionPointer
      mangled_component_name: "_ZN7android4hidl7manager4V1_021BsServiceNotification13unlinkToDeathERKNS_2spINS_8hardware20hidl_death_recipientEEE"
      value: 0
    }
    vtable_components {
      kind: CompleteDtorPointer
      mangled_component_name: "_ZN7android4hidl7manager4V1_021BsServiceNotificationD0Ev"
      value: 0
    }
    vtable_components {
      kind: UnusedFunctionPointer
      mangled_component_name: "_ZN7android4hidl7manager4V1_021BsServiceNotificationD0Ev"
      value: 0
    }
    vtable_components {
      kind: FunctionPointer
      mangled_component_name: "_ZN7android4hidl7manager4V1_021BsServiceNotification14onRegistrationERKNS_8hardware11hidl_stringES7_b"
      value: 0
    }
    vtable_components {
      kind: OffsetToTop
      mangled_component_name: ""
      value: 18446744073709551612
    }
    vtable_components {
      kind: RTTI
      mangled_component_name: "_ZN7android4hidl7manager4V1_021BsServiceNotificationE"
      value: 0
    }
    vtable_components {
      kind: CompleteDtorPointer
      mangled_component_name: "_ZN7android4hidl7manager4V1_021BsServiceNotificationD0Ev"
      value: 0
    }
    vtable_components {
      kind: UnusedFunctionPointer
      mangled_component_name: "_ZN7android4hidl7manager4V1_021BsServiceNotificationD0Ev"
      value: 0
    }
    vtable_components {
      kind: VCallOffset
      mangled_component_name: ""
      value: 0
    }
    vtable_components {
      kind: VCallOffset
      mangled_component_name: ""
      value: 0
    }
    vtable_components {
      kind: VCallOffset
      mangled_component_name: ""
      value: 0
    }
    vtable_components {
      kind: VCallOffset
      mangled_component_name: ""
      value: 0
    }
    vtable_components {
      kind: VCallOffset
      mangled_component_name: ""
      value: 18446744073709551556
    }
    vtable_components {
      kind: OffsetToTop
      mangled_component_name: ""
      value: 18446744073709551556
    }
    vtable_components {
      kind: RTTI
      mangled_component_name: "_ZN7android4hidl7manager4V1_021BsServiceNotificationE"
      value: 0
    }
    vtable_components {
      kind: CompleteDtorPointer
      mangled_component_name: "_ZN7android4hidl7manager4V1_021BsServiceNotificationD0Ev"
      value: 0
    }
    vtable_components {
      kind: UnusedFunctionPointer
      mangled_component_name: "_ZN7android4hidl7manager4V1_021BsServiceNotificationD0Ev"
      value: 0
    }
    vtable_components {
      kind: FunctionPointer
      mangled_component_name: "_ZN7android7RefBase10onFirstRefEv"
      value: 0
    }
    vtable_components {
      kind: FunctionPointer
      mangled_component_name: "_ZN7android7RefBase15onLastStrongRefEPKv"
      value: 0
    }
    vtable_components {
      kind: FunctionPointer
      mangled_component_name: "_ZN7android7RefBase20onIncStrongAttemptedEjPKv"
      value: 0
    }
    vtable_components {
      kind: FunctionPointer
      mangled_component_name: "_ZN7android7RefBase13onLastWeakRefEPKv"
      value: 0
    }
  }
}
functions {
  basic_abi {
    type_abi {
      name: "bool"
      size: 1
      alignment: 1
    }
    name: "android::hidl::manager::V1_0::IServiceNotification::isRemote"
    access: public_access
    linker_set_key: "_ZNK7android4hidl7manager4V1_020IServiceNotification8isRemoteEv"
  }
  mangled_function_name: "_ZNK7android4hidl7manager4V1_020IServiceNotification8isRemoteEv"
  source_file: "/home/suhwa.kim/CONA_Proj/android/out/soong/.intermediates/system/libhidl/transport/manager/1.0/android.hidl.manager@1.0_genc++_headers/gen/android/hidl/manager/1.0/IServiceNotification.h"
}
functions {
  basic_abi {
    type_abi {
      name: "android::hardware::Return<void>"
      size: 24
      alignment: 4
    }
    name: "android::hidl::manager::V1_0::IServiceNotification::onRegistration"
    access: public_access
    linker_set_key: "_ZN7android4hidl7manager4V1_020IServiceNotification14onRegistrationERKNS_8hardware11hidl_stringES7_b"
  }
  mangled_function_name: "_ZN7android4hidl7manager4V1_020IServiceNotification14onRegistrationERKNS_8hardware11hidl_stringES7_b"
  source_file: "/home/suhwa.kim/CONA_Proj/android/out/soong/.intermediates/system/libhidl/transport/manager/1.0/android.hidl.manager@1.0_genc++_headers/gen/android/hidl/manager/1.0/IServiceNotification.h"
  parameters {
    basic_abi {
      type_abi {
        name: "const android::hardware::hidl_string &"
        size: 4
        alignment: 4
      }
      name: "fqName"
      access: public_access
      linker_set_key: "false"
    }
    default_arg: false
  }
  parameters {
    basic_abi {
      type_abi {
        name: "const android::hardware::hidl_string &"
        size: 4
        alignment: 4
      }
      name: "name"
      access: public_access
      linker_set_key: "false"
    }
    default_arg: false
  }
  parameters {
    basic_abi {
      type_abi {
        name: "bool"
        size: 1
        alignment: 1
      }
      name: "preexisting"
      access: public_access
      linker_set_key: "false"
    }
    default_arg: false
  }
}
functions {
  basic_abi {
    type_abi {
      name: "android::hardware::Return<void>"
      size: 24
      alignment: 4
    }
    name: "android::hidl::manager::V1_0::IServiceNotification::interfaceChain"
    access: public_access
    linker_set_key: "_ZN7android4hidl7manager4V1_020IServiceNotification14interfaceChainENSt3__18functionIFvRKNS_8hardware8hidl_vecINS6_11hidl_stringEEEEEE"
  }
  mangled_function_name: "_ZN7android4hidl7manager4V1_020IServiceNotification14interfaceChainENSt3__18functionIFvRKNS_8hardware8hidl_vecINS6_11hidl_stringEEEEEE"
  source_file: "/home/suhwa.kim/CONA_Proj/android/out/soong/.intermediates/system/libhidl/transport/manager/1.0/android.hidl.manager@1.0_genc++_headers/gen/android/hidl/manager/1.0/IServiceNotification.h"
  parameters {
    basic_abi {
      type_abi {
        name: "std::function<void (const hidl_vec<hidl_string> &)>"
        size: 24
        alignment: 8
      }
      name: "_hidl_cb"
      access: public_access
      linker_set_key: "false"
    }
    default_arg: false
  }
}
functions {
  basic_abi {
    type_abi {
      name: "android::hardware::Return<void>"
      size: 24
      alignment: 4
    }
    name: "android::hidl::manager::V1_0::IServiceNotification::debug"
    access: public_access
    linker_set_key: "_ZN7android4hidl7manager4V1_020IServiceNotification5debugERKNS_8hardware11hidl_handleERKNS4_8hidl_vecINS4_11hidl_stringEEE"
  }
  mangled_function_name: "_ZN7android4hidl7manager4V1_020IServiceNotification5debugERKNS_8hardware11hidl_handleERKNS4_8hidl_vecINS4_11hidl_stringEEE"
  source_file: "/home/suhwa.kim/CONA_Proj/android/out/soong/.intermediates/system/libhidl/transport/manager/1.0/android.hidl.manager@1.0_genc++_headers/gen/android/hidl/manager/1.0/IServiceNotification.h"
  parameters {
    basic_abi {
      type_abi {
        name: "const android::hardware::hidl_handle &"
        size: 4
        alignment: 4
      }
      name: "fd"
      access: public_access
      linker_set_key: "false"
    }
    default_arg: false
  }
  parameters {
    basic_abi {
      type_abi {
        name: "const android::hardware::hidl_vec<android::hardware::hidl_string> &"
        size: 4
        alignment: 4
      }
      name: "options"
      access: public_access
      linker_set_key: "false"
    }
    default_arg: false
  }
}
functions {
  basic_abi {
    type_abi {
      name: "android::hardware::Return<void>"
      size: 24
      alignment: 4
    }
    name: "android::hidl::manager::V1_0::IServiceNotification::interfaceDescriptor"
    access: public_access
    linker_set_key: "_ZN7android4hidl7manager4V1_020IServiceNotification19interfaceDescriptorENSt3__18functionIFvRKNS_8hardware11hidl_stringEEEE"
  }
  mangled_function_name: "_ZN7android4hidl7manager4V1_020IServiceNotification19interfaceDescriptorENSt3__18functionIFvRKNS_8hardware11hidl_stringEEEE"
  source_file: "/home/suhwa.kim/CONA_Proj/android/out/soong/.intermediates/system/libhidl/transport/manager/1.0/android.hidl.manager@1.0_genc++_headers/gen/android/hidl/manager/1.0/IServiceNotification.h"
  parameters {
    basic_abi {
      type_abi {
        name: "std::function<void (const hidl_string &)>"
        size: 24
        alignment: 8
      }
      name: "_hidl_cb"
      access: public_access
      linker_set_key: "false"
    }
    default_arg: false
  }
}
functions {
  basic_abi {
    type_abi {
      name: "android::hardware::Return<void>"
      size: 24
      alignment: 4
    }
    name: "android::hidl::manager::V1_0::IServiceNotification::getHashChain"
    access: public_access
    linker_set_key: "_ZN7android4hidl7manager4V1_020IServiceNotification12getHashChainENSt3__18functionIFvRKNS_8hardware8hidl_vecINS6_10hidl_arrayIhLj32EJEEEEEEEE"
  }
  mangled_function_name: "_ZN7android4hidl7manager4V1_020IServiceNotification12getHashChainENSt3__18functionIFvRKNS_8hardware8hidl_vecINS6_10hidl_arrayIhLj32EJEEEEEEEE"
  source_file: "/home/suhwa.kim/CONA_Proj/android/out/soong/.intermediates/system/libhidl/transport/manager/1.0/android.hidl.manager@1.0_genc++_headers/gen/android/hidl/manager/1.0/IServiceNotification.h"
  parameters {
    basic_abi {
      type_abi {
        name: "std::function<void (const hidl_vec<hidl_array<unsigned char, 32> > &)>"
        size: 24
        alignment: 8
      }
      name: "_hidl_cb"
      access: public_access
      linker_set_key: "false"
    }
    default_arg: false
  }
}
functions {
  basic_abi {
    type_abi {
      name: "android::hardware::Return<void>"
      size: 24
      alignment: 4
    }
    name: "android::hidl::manager::V1_0::IServiceNotification::setHALInstrumentation"
    access: public_access
    linker_set_key: "_ZN7android4hidl7manager4V1_020IServiceNotification21setHALInstrumentationEv"
  }
  mangled_function_name: "_ZN7android4hidl7manager4V1_020IServiceNotification21setHALInstrumentationEv"
  source_file: "/home/suhwa.kim/CONA_Proj/android/out/soong/.intermediates/system/libhidl/transport/manager/1.0/android.hidl.manager@1.0_genc++_headers/gen/android/hidl/manager/1.0/IServiceNotification.h"
}
functions {
  basic_abi {
    type_abi {
      name: "android::hardware::Return<bool>"
      size: 24
      alignment: 4
    }
    name: "android::hidl::manager::V1_0::IServiceNotification::linkToDeath"
    access: public_access
    linker_set_key: "_ZN7android4hidl7manager4V1_020IServiceNotification11linkToDeathERKNS_2spINS_8hardware20hidl_death_recipientEEEy"
  }
  mangled_function_name: "_ZN7android4hidl7manager4V1_020IServiceNotification11linkToDeathERKNS_2spINS_8hardware20hidl_death_recipientEEEy"
  source_file: "/home/suhwa.kim/CONA_Proj/android/out/soong/.intermediates/system/libhidl/transport/manager/1.0/android.hidl.manager@1.0_genc++_headers/gen/android/hidl/manager/1.0/IServiceNotification.h"
  parameters {
    basic_abi {
      type_abi {
        name: "const android::sp<android::hardware::hidl_death_recipient> &"
        size: 4
        alignment: 4
      }
      name: "recipient"
      access: public_access
      linker_set_key: "false"
    }
    default_arg: false
  }
  parameters {
    basic_abi {
      type_abi {
        name: "unsigned long long"
        size: 8
        alignment: 8
      }
      name: "cookie"
      access: public_access
      linker_set_key: "false"
    }
    default_arg: false
  }
}
functions {
  basic_abi {
    type_abi {
      name: "android::hardware::Return<void>"
      size: 24
      alignment: 4
    }
    name: "android::hidl::manager::V1_0::IServiceNotification::ping"
    access: public_access
    linker_set_key: "_ZN7android4hidl7manager4V1_020IServiceNotification4pingEv"
  }
  mangled_function_name: "_ZN7android4hidl7manager4V1_020IServiceNotification4pingEv"
  source_file: "/home/suhwa.kim/CONA_Proj/android/out/soong/.intermediates/system/libhidl/transport/manager/1.0/android.hidl.manager@1.0_genc++_headers/gen/android/hidl/manager/1.0/IServiceNotification.h"
}
functions {
  basic_abi {
    type_abi {
      name: "android::hardware::Return<void>"
      size: 24
      alignment: 4
    }
    name: "android::hidl::manager::V1_0::IServiceNotification::getDebugInfo"
    access: public_access
    linker_set_key: "_ZN7android4hidl7manager4V1_020IServiceNotification12getDebugInfoENSt3__18functionIFvRKNS0_4base4V1_09DebugInfoEEEE"
  }
  mangled_function_name: "_ZN7android4hidl7manager4V1_020IServiceNotification12getDebugInfoENSt3__18functionIFvRKNS0_4base4V1_09DebugInfoEEEE"
  source_file: "/home/suhwa.kim/CONA_Proj/android/out/soong/.intermediates/system/libhidl/transport/manager/1.0/android.hidl.manager@1.0_genc++_headers/gen/android/hidl/manager/1.0/IServiceNotification.h"
  parameters {
    basic_abi {
      type_abi {
        name: "std::function<void (const DebugInfo &)>"
        size: 24
        alignment: 8
      }
      name: "_hidl_cb"
      access: public_access
      linker_set_key: "false"
    }
    default_arg: false
  }
}
functions {
  basic_abi {
    type_abi {
      name: "android::hardware::Return<void>"
      size: 24
      alignment: 4
    }
    name: "android::hidl::manager::V1_0::IServiceNotification::notifySyspropsChanged"
    access: public_access
    linker_set_key: "_ZN7android4hidl7manager4V1_020IServiceNotification21notifySyspropsChangedEv"
  }
  mangled_function_name: "_ZN7android4hidl7manager4V1_020IServiceNotification21notifySyspropsChangedEv"
  source_file: "/home/suhwa.kim/CONA_Proj/android/out/soong/.intermediates/system/libhidl/transport/manager/1.0/android.hidl.manager@1.0_genc++_headers/gen/android/hidl/manager/1.0/IServiceNotification.h"
}
functions {
  basic_abi {
    type_abi {
      name: "android::hardware::Return<bool>"
      size: 24
      alignment: 4
    }
    name: "android::hidl::manager::V1_0::IServiceNotification::unlinkToDeath"
    access: public_access
    linker_set_key: "_ZN7android4hidl7manager4V1_020IServiceNotification13unlinkToDeathERKNS_2spINS_8hardware20hidl_death_recipientEEE"
  }
  mangled_function_name: "_ZN7android4hidl7manager4V1_020IServiceNotification13unlinkToDeathERKNS_2spINS_8hardware20hidl_death_recipientEEE"
  source_file: "/home/suhwa.kim/CONA_Proj/android/out/soong/.intermediates/system/libhidl/transport/manager/1.0/android.hidl.manager@1.0_genc++_headers/gen/android/hidl/manager/1.0/IServiceNotification.h"
  parameters {
    basic_abi {
      type_abi {
        name: "const android::sp<android::hardware::hidl_death_recipient> &"
        size: 4
        alignment: 4
      }
      name: "recipient"
      access: public_access
      linker_set_key: "false"
    }
    default_arg: false
  }
}
functions {
  basic_abi {
    type_abi {
      name: "android::hardware::Return<android::sp<android::hidl::manager::V1_0::IServiceNotification> >"
      size: 28
      alignment: 4
    }
    name: "android::hidl::manager::V1_0::IServiceNotification::castFrom"
    access: public_access
    linker_set_key: "_ZN7android4hidl7manager4V1_020IServiceNotification8castFromERKNS_2spIS3_EEb"
  }
  mangled_function_name: "_ZN7android4hidl7manager4V1_020IServiceNotification8castFromERKNS_2spIS3_EEb"
  source_file: "/home/suhwa.kim/CONA_Proj/android/out/soong/.intermediates/system/libhidl/transport/manager/1.0/android.hidl.manager@1.0_genc++_headers/gen/android/hidl/manager/1.0/IServiceNotification.h"
  parameters {
    basic_abi {
      type_abi {
        name: "const android::sp<android::hidl::manager::V1_0::IServiceNotification> &"
        size: 4
        alignment: 4
      }
      name: "parent"
      access: public_access
      linker_set_key: "false"
    }
    default_arg: false
  }
  parameters {
    basic_abi {
      type_abi {
        name: "bool"
        size: 1
        alignment: 1
      }
      name: "emitError"
      access: public_access
      linker_set_key: "true"
    }
    default_arg: true
  }
}
functions {
  basic_abi {
    type_abi {
      name: "android::hardware::Return<android::sp<android::hidl::manager::V1_0::IServiceNotification> >"
      size: 28
      alignment: 4
    }
    name: "android::hidl::manager::V1_0::IServiceNotification::castFrom"
    access: public_access
    linker_set_key: "_ZN7android4hidl7manager4V1_020IServiceNotification8castFromERKNS_2spINS0_4base4V1_05IBaseEEEb"
  }
  mangled_function_name: "_ZN7android4hidl7manager4V1_020IServiceNotification8castFromERKNS_2spINS0_4base4V1_05IBaseEEEb"
  source_file: "/home/suhwa.kim/CONA_Proj/android/out/soong/.intermediates/system/libhidl/transport/manager/1.0/android.hidl.manager@1.0_genc++_headers/gen/android/hidl/manager/1.0/IServiceNotification.h"
  parameters {
    basic_abi {
      type_abi {
        name: "const android::sp<android::hidl::base::V1_0::IBase> &"
        size: 4
        alignment: 4
      }
      name: "parent"
      access: public_access
      linker_set_key: "false"
    }
    default_arg: false
  }
  parameters {
    basic_abi {
      type_abi {
        name: "bool"
        size: 1
        alignment: 1
      }
      name: "emitError"
      access: public_access
      linker_set_key: "true"
    }
    default_arg: true
  }
}
functions {
  basic_abi {
    type_abi {
      name: "android::sp<android::hidl::manager::V1_0::IServiceNotification>"
      size: 4
      alignment: 4
    }
    name: "android::hidl::manager::V1_0::IServiceNotification::tryGetService"
    access: public_access
    linker_set_key: "_ZN7android4hidl7manager4V1_020IServiceNotification13tryGetServiceERKNSt3__112basic_stringIcNS4_11char_traitsIcEENS4_9allocatorIcEEEEb"
  }
  mangled_function_name: "_ZN7android4hidl7manager4V1_020IServiceNotification13tryGetServiceERKNSt3__112basic_stringIcNS4_11char_traitsIcEENS4_9allocatorIcEEEEb"
  source_file: "/home/suhwa.kim/CONA_Proj/android/out/soong/.intermediates/system/libhidl/transport/manager/1.0/android.hidl.manager@1.0_genc++_headers/gen/android/hidl/manager/1.0/IServiceNotification.h"
  parameters {
    basic_abi {
      type_abi {
        name: "const std::basic_string<char, std::char_traits<char>, std::allocator<char> > &"
        size: 4
        alignment: 4
      }
      name: "serviceName"
      access: public_access
      linker_set_key: "true"
    }
    default_arg: true
  }
  parameters {
    basic_abi {
      type_abi {
        name: "bool"
        size: 1
        alignment: 1
      }
      name: "getStub"
      access: public_access
      linker_set_key: "true"
    }
    default_arg: true
  }
}
functions {
  basic_abi {
    type_abi {
      name: "android::sp<android::hidl::manager::V1_0::IServiceNotification>"
      size: 4
      alignment: 4
    }
    name: "android::hidl::manager::V1_0::IServiceNotification::tryGetService"
    access: public_access
    linker_set_key: "_ZN7android4hidl7manager4V1_020IServiceNotification13tryGetServiceEPKcb"
  }
  mangled_function_name: "_ZN7android4hidl7manager4V1_020IServiceNotification13tryGetServiceEPKcb"
  source_file: "/home/suhwa.kim/CONA_Proj/android/out/soong/.intermediates/system/libhidl/transport/manager/1.0/android.hidl.manager@1.0_genc++_headers/gen/android/hidl/manager/1.0/IServiceNotification.h"
  parameters {
    basic_abi {
      type_abi {
        name: "const char *"
        size: 4
        alignment: 4
      }
      name: "serviceName"
      access: public_access
      linker_set_key: "false"
    }
    default_arg: false
  }
  parameters {
    basic_abi {
      type_abi {
        name: "bool"
        size: 1
        alignment: 1
      }
      name: "getStub"
      access: public_access
      linker_set_key: "true"
    }
    default_arg: true
  }
}
functions {
  basic_abi {
    type_abi {
      name: "android::sp<android::hidl::manager::V1_0::IServiceNotification>"
      size: 4
      alignment: 4
    }
    name: "android::hidl::manager::V1_0::IServiceNotification::tryGetService"
    access: public_access
    linker_set_key: "_ZN7android4hidl7manager4V1_020IServiceNotification13tryGetServiceERKNS_8hardware11hidl_stringEb"
  }
  mangled_function_name: "_ZN7android4hidl7manager4V1_020IServiceNotification13tryGetServiceERKNS_8hardware11hidl_stringEb"
  source_file: "/home/suhwa.kim/CONA_Proj/android/out/soong/.intermediates/system/libhidl/transport/manager/1.0/android.hidl.manager@1.0_genc++_headers/gen/android/hidl/manager/1.0/IServiceNotification.h"
  parameters {
    basic_abi {
      type_abi {
        name: "const android::hardware::hidl_string &"
        size: 4
        alignment: 4
      }
      name: "serviceName"
      access: public_access
      linker_set_key: "false"
    }
    default_arg: false
  }
  parameters {
    basic_abi {
      type_abi {
        name: "bool"
        size: 1
        alignment: 1
      }
      name: "getStub"
      access: public_access
      linker_set_key: "true"
    }
    default_arg: true
  }
}
functions {
  basic_abi {
    type_abi {
      name: "android::sp<android::hidl::manager::V1_0::IServiceNotification>"
      size: 4
      alignment: 4
    }
    name: "android::hidl::manager::V1_0::IServiceNotification::tryGetService"
    access: public_access
    linker_set_key: "_ZN7android4hidl7manager4V1_020IServiceNotification13tryGetServiceEb"
  }
  mangled_function_name: "_ZN7android4hidl7manager4V1_020IServiceNotification13tryGetServiceEb"
  source_file: "/home/suhwa.kim/CONA_Proj/android/out/soong/.intermediates/system/libhidl/transport/manager/1.0/android.hidl.manager@1.0_genc++_headers/gen/android/hidl/manager/1.0/IServiceNotification.h"
  parameters {
    basic_abi {
      type_abi {
        name: "bool"
        size: 1
        alignment: 1
      }
      name: "getStub"
      access: public_access
      linker_set_key: "false"
    }
    default_arg: false
  }
}
functions {
  basic_abi {
    type_abi {
      name: "android::sp<android::hidl::manager::V1_0::IServiceNotification>"
      size: 4
      alignment: 4
    }
    name: "android::hidl::manager::V1_0::IServiceNotification::getService"
    access: public_access
    linker_set_key: "_ZN7android4hidl7manager4V1_020IServiceNotification10getServiceERKNSt3__112basic_stringIcNS4_11char_traitsIcEENS4_9allocatorIcEEEEb"
  }
  mangled_function_name: "_ZN7android4hidl7manager4V1_020IServiceNotification10getServiceERKNSt3__112basic_stringIcNS4_11char_traitsIcEENS4_9allocatorIcEEEEb"
  source_file: "/home/suhwa.kim/CONA_Proj/android/out/soong/.intermediates/system/libhidl/transport/manager/1.0/android.hidl.manager@1.0_genc++_headers/gen/android/hidl/manager/1.0/IServiceNotification.h"
  parameters {
    basic_abi {
      type_abi {
        name: "const std::basic_string<char, std::char_traits<char>, std::allocator<char> > &"
        size: 4
        alignment: 4
      }
      name: "serviceName"
      access: public_access
      linker_set_key: "true"
    }
    default_arg: true
  }
  parameters {
    basic_abi {
      type_abi {
        name: "bool"
        size: 1
        alignment: 1
      }
      name: "getStub"
      access: public_access
      linker_set_key: "true"
    }
    default_arg: true
  }
}
functions {
  basic_abi {
    type_abi {
      name: "android::sp<android::hidl::manager::V1_0::IServiceNotification>"
      size: 4
      alignment: 4
    }
    name: "android::hidl::manager::V1_0::IServiceNotification::getService"
    access: public_access
    linker_set_key: "_ZN7android4hidl7manager4V1_020IServiceNotification10getServiceEPKcb"
  }
  mangled_function_name: "_ZN7android4hidl7manager4V1_020IServiceNotification10getServiceEPKcb"
  source_file: "/home/suhwa.kim/CONA_Proj/android/out/soong/.intermediates/system/libhidl/transport/manager/1.0/android.hidl.manager@1.0_genc++_headers/gen/android/hidl/manager/1.0/IServiceNotification.h"
  parameters {
    basic_abi {
      type_abi {
        name: "const char *"
        size: 4
        alignment: 4
      }
      name: "serviceName"
      access: public_access
      linker_set_key: "false"
    }
    default_arg: false
  }
  parameters {
    basic_abi {
      type_abi {
        name: "bool"
        size: 1
        alignment: 1
      }
      name: "getStub"
      access: public_access
      linker_set_key: "true"
    }
    default_arg: true
  }
}
functions {
  basic_abi {
    type_abi {
      name: "android::sp<android::hidl::manager::V1_0::IServiceNotification>"
      size: 4
      alignment: 4
    }
    name: "android::hidl::manager::V1_0::IServiceNotification::getService"
    access: public_access
    linker_set_key: "_ZN7android4hidl7manager4V1_020IServiceNotification10getServiceERKNS_8hardware11hidl_stringEb"
  }
  mangled_function_name: "_ZN7android4hidl7manager4V1_020IServiceNotification10getServiceERKNS_8hardware11hidl_stringEb"
  source_file: "/home/suhwa.kim/CONA_Proj/android/out/soong/.intermediates/system/libhidl/transport/manager/1.0/android.hidl.manager@1.0_genc++_headers/gen/android/hidl/manager/1.0/IServiceNotification.h"
  parameters {
    basic_abi {
      type_abi {
        name: "const android::hardware::hidl_string &"
        size: 4
        alignment: 4
      }
      name: "serviceName"
      access: public_access
      linker_set_key: "false"
    }
    default_arg: false
  }
  parameters {
    basic_abi {
      type_abi {
        name: "bool"
        size: 1
        alignment: 1
      }
      name: "getStub"
      access: public_access
      linker_set_key: "true"
    }
    default_arg: true
  }
}
functions {
  basic_abi {
    type_abi {
      name: "android::sp<android::hidl::manager::V1_0::IServiceNotification>"
      size: 4
      alignment: 4
    }
    name: "android::hidl::manager::V1_0::IServiceNotification::getService"
    access: public_access
    linker_set_key: "_ZN7android4hidl7manager4V1_020IServiceNotification10getServiceEb"
  }
  mangled_function_name: "_ZN7android4hidl7manager4V1_020IServiceNotification10getServiceEb"
  source_file: "/home/suhwa.kim/CONA_Proj/android/out/soong/.intermediates/system/libhidl/transport/manager/1.0/android.hidl.manager@1.0_genc++_headers/gen/android/hidl/manager/1.0/IServiceNotification.h"
  parameters {
    basic_abi {
      type_abi {
        name: "bool"
        size: 1
        alignment: 1
      }
      name: "getStub"
      access: public_access
      linker_set_key: "false"
    }
    default_arg: false
  }
}
functions {
  basic_abi {
    type_abi {
      name: "int"
      size: 4
      alignment: 4
    }
    name: "android::hidl::manager::V1_0::IServiceNotification::registerAsService"
    access: public_access
    linker_set_key: "_ZN7android4hidl7manager4V1_020IServiceNotification17registerAsServiceERKNSt3__112basic_stringIcNS4_11char_traitsIcEENS4_9allocatorIcEEEE"
  }
  mangled_function_name: "_ZN7android4hidl7manager4V1_020IServiceNotification17registerAsServiceERKNSt3__112basic_stringIcNS4_11char_traitsIcEENS4_9allocatorIcEEEE"
  source_file: "/home/suhwa.kim/CONA_Proj/android/out/soong/.intermediates/system/libhidl/transport/manager/1.0/android.hidl.manager@1.0_genc++_headers/gen/android/hidl/manager/1.0/IServiceNotification.h"
  parameters {
    basic_abi {
      type_abi {
        name: "const std::basic_string<char, std::char_traits<char>, std::allocator<char> > &"
        size: 4
        alignment: 4
      }
      name: "serviceName"
      access: public_access
      linker_set_key: "true"
    }
    default_arg: true
  }
}
functions {
  basic_abi {
    type_abi {
      name: "bool"
      size: 1
      alignment: 1
    }
    name: "android::hidl::manager::V1_0::IServiceNotification::registerForNotifications"
    access: public_access
    linker_set_key: "_ZN7android4hidl7manager4V1_020IServiceNotification24registerForNotificationsERKNSt3__112basic_stringIcNS4_11char_traitsIcEENS4_9allocatorIcEEEERKNS_2spIS3_EE"
  }
  mangled_function_name: "_ZN7android4hidl7manager4V1_020IServiceNotification24registerForNotificationsERKNSt3__112basic_stringIcNS4_11char_traitsIcEENS4_9allocatorIcEEEERKNS_2spIS3_EE"
  source_file: "/home/suhwa.kim/CONA_Proj/android/out/soong/.intermediates/system/libhidl/transport/manager/1.0/android.hidl.manager@1.0_genc++_headers/gen/android/hidl/manager/1.0/IServiceNotification.h"
  parameters {
    basic_abi {
      type_abi {
        name: "const std::basic_string<char, std::char_traits<char>, std::allocator<char> > &"
        size: 4
        alignment: 4
      }
      name: "serviceName"
      access: public_access
      linker_set_key: "false"
    }
    default_arg: false
  }
  parameters {
    basic_abi {
      type_abi {
        name: "const android::sp<android::hidl::manager::V1_0::IServiceNotification> &"
        size: 4
        alignment: 4
      }
      name: "notification"
      access: public_access
      linker_set_key: "false"
    }
    default_arg: false
  }
}
functions {
  basic_abi {
    type_abi {
      name: "std::basic_string<char, std::char_traits<char>, std::allocator<char> >"
      size: 12
      alignment: 4
    }
    name: "android::hidl::manager::V1_0::toString"
    access: public_access
    linker_set_key: "_ZN7android4hidl7manager4V1_08toStringERKNS_2spINS2_20IServiceNotificationEEE"
  }
  mangled_function_name: "_ZN7android4hidl7manager4V1_08toStringERKNS_2spINS2_20IServiceNotificationEEE"
  source_file: "/home/suhwa.kim/CONA_Proj/android/out/soong/.intermediates/system/libhidl/transport/manager/1.0/android.hidl.manager@1.0_genc++_headers/gen/android/hidl/manager/1.0/IServiceNotification.h"
  parameters {
    basic_abi {
      type_abi {
        name: "const android::sp<android::hidl::manager::V1_0::IServiceNotification> &"
        size: 4
        alignment: 4
      }
      name: ""
      access: public_access
      linker_set_key: "false"
    }
    default_arg: false
  }
}
functions {
  basic_abi {
    type_abi {
      name: "bool"
      size: 1
      alignment: 1
    }
    name: "android::hidl::manager::V1_0::IServiceManager::isRemote"
    access: public_access
    linker_set_key: "_ZNK7android4hidl7manager4V1_015IServiceManager8isRemoteEv"
  }
  mangled_function_name: "_ZNK7android4hidl7manager4V1_015IServiceManager8isRemoteEv"
  source_file: "/home/suhwa.kim/CONA_Proj/android/out/soong/.intermediates/system/libhidl/transport/manager/1.0/android.hidl.manager@1.0_genc++_headers/gen/android/hidl/manager/1.0/IServiceManager.h"
}
functions {
  basic_abi {
    type_abi {
      name: "android::hardware::Return<android::sp<android::hidl::base::V1_0::IBase> >"
      size: 28
      alignment: 4
    }
    name: "android::hidl::manager::V1_0::IServiceManager::get"
    access: public_access
    linker_set_key: "_ZN7android4hidl7manager4V1_015IServiceManager3getERKNS_8hardware11hidl_stringES7_"
  }
  mangled_function_name: "_ZN7android4hidl7manager4V1_015IServiceManager3getERKNS_8hardware11hidl_stringES7_"
  source_file: "/home/suhwa.kim/CONA_Proj/android/out/soong/.intermediates/system/libhidl/transport/manager/1.0/android.hidl.manager@1.0_genc++_headers/gen/android/hidl/manager/1.0/IServiceManager.h"
  parameters {
    basic_abi {
      type_abi {
        name: "const android::hardware::hidl_string &"
        size: 4
        alignment: 4
      }
      name: "fqName"
      access: public_access
      linker_set_key: "false"
    }
    default_arg: false
  }
  parameters {
    basic_abi {
      type_abi {
        name: "const android::hardware::hidl_string &"
        size: 4
        alignment: 4
      }
      name: "name"
      access: public_access
      linker_set_key: "false"
    }
    default_arg: false
  }
}
functions {
  basic_abi {
    type_abi {
      name: "android::hardware::Return<bool>"
      size: 24
      alignment: 4
    }
    name: "android::hidl::manager::V1_0::IServiceManager::add"
    access: public_access
    linker_set_key: "_ZN7android4hidl7manager4V1_015IServiceManager3addERKNS_8hardware11hidl_stringERKNS_2spINS0_4base4V1_05IBaseEEE"
  }
  mangled_function_name: "_ZN7android4hidl7manager4V1_015IServiceManager3addERKNS_8hardware11hidl_stringERKNS_2spINS0_4base4V1_05IBaseEEE"
  source_file: "/home/suhwa.kim/CONA_Proj/android/out/soong/.intermediates/system/libhidl/transport/manager/1.0/android.hidl.manager@1.0_genc++_headers/gen/android/hidl/manager/1.0/IServiceManager.h"
  parameters {
    basic_abi {
      type_abi {
        name: "const android::hardware::hidl_string &"
        size: 4
        alignment: 4
      }
      name: "name"
      access: public_access
      linker_set_key: "false"
    }
    default_arg: false
  }
  parameters {
    basic_abi {
      type_abi {
        name: "const android::sp<android::hidl::base::V1_0::IBase> &"
        size: 4
        alignment: 4
      }
      name: "service"
      access: public_access
      linker_set_key: "false"
    }
    default_arg: false
  }
}
functions {
  basic_abi {
    type_abi {
      name: "android::hardware::Return<android::hidl::manager::V1_0::IServiceManager::Transport>"
      size: 24
      alignment: 4
    }
    name: "android::hidl::manager::V1_0::IServiceManager::getTransport"
    access: public_access
    linker_set_key: "_ZN7android4hidl7manager4V1_015IServiceManager12getTransportERKNS_8hardware11hidl_stringES7_"
  }
  mangled_function_name: "_ZN7android4hidl7manager4V1_015IServiceManager12getTransportERKNS_8hardware11hidl_stringES7_"
  source_file: "/home/suhwa.kim/CONA_Proj/android/out/soong/.intermediates/system/libhidl/transport/manager/1.0/android.hidl.manager@1.0_genc++_headers/gen/android/hidl/manager/1.0/IServiceManager.h"
  parameters {
    basic_abi {
      type_abi {
        name: "const android::hardware::hidl_string &"
        size: 4
        alignment: 4
      }
      name: "fqName"
      access: public_access
      linker_set_key: "false"
    }
    default_arg: false
  }
  parameters {
    basic_abi {
      type_abi {
        name: "const android::hardware::hidl_string &"
        size: 4
        alignment: 4
      }
      name: "name"
      access: public_access
      linker_set_key: "false"
    }
    default_arg: false
  }
}
functions {
  basic_abi {
    type_abi {
      name: "android::hardware::Return<void>"
      size: 24
      alignment: 4
    }
    name: "android::hidl::manager::V1_0::IServiceManager::list"
    access: public_access
    linker_set_key: "_ZN7android4hidl7manager4V1_015IServiceManager4listENSt3__18functionIFvRKNS_8hardware8hidl_vecINS6_11hidl_stringEEEEEE"
  }
  mangled_function_name: "_ZN7android4hidl7manager4V1_015IServiceManager4listENSt3__18functionIFvRKNS_8hardware8hidl_vecINS6_11hidl_stringEEEEEE"
  source_file: "/home/suhwa.kim/CONA_Proj/android/out/soong/.intermediates/system/libhidl/transport/manager/1.0/android.hidl.manager@1.0_genc++_headers/gen/android/hidl/manager/1.0/IServiceManager.h"
  parameters {
    basic_abi {
      type_abi {
        name: "std::function<void (const hidl_vec<hidl_string> &)>"
        size: 24
        alignment: 8
      }
      name: "_hidl_cb"
      access: public_access
      linker_set_key: "false"
    }
    default_arg: false
  }
}
functions {
  basic_abi {
    type_abi {
      name: "android::hardware::Return<void>"
      size: 24
      alignment: 4
    }
    name: "android::hidl::manager::V1_0::IServiceManager::listByInterface"
    access: public_access
    linker_set_key: "_ZN7android4hidl7manager4V1_015IServiceManager15listByInterfaceERKNS_8hardware11hidl_stringENSt3__18functionIFvRKNS4_8hidl_vecIS5_EEEEE"
  }
  mangled_function_name: "_ZN7android4hidl7manager4V1_015IServiceManager15listByInterfaceERKNS_8hardware11hidl_stringENSt3__18functionIFvRKNS4_8hidl_vecIS5_EEEEE"
  source_file: "/home/suhwa.kim/CONA_Proj/android/out/soong/.intermediates/system/libhidl/transport/manager/1.0/android.hidl.manager@1.0_genc++_headers/gen/android/hidl/manager/1.0/IServiceManager.h"
  parameters {
    basic_abi {
      type_abi {
        name: "const android::hardware::hidl_string &"
        size: 4
        alignment: 4
      }
      name: "fqName"
      access: public_access
      linker_set_key: "false"
    }
    default_arg: false
  }
  parameters {
    basic_abi {
      type_abi {
        name: "std::function<void (const hidl_vec<hidl_string> &)>"
        size: 24
        alignment: 8
      }
      name: "_hidl_cb"
      access: public_access
      linker_set_key: "false"
    }
    default_arg: false
  }
}
functions {
  basic_abi {
    type_abi {
      name: "android::hardware::Return<bool>"
      size: 24
      alignment: 4
    }
    name: "android::hidl::manager::V1_0::IServiceManager::registerForNotifications"
    access: public_access
    linker_set_key: "_ZN7android4hidl7manager4V1_015IServiceManager24registerForNotificationsERKNS_8hardware11hidl_stringES7_RKNS_2spINS2_20IServiceNotificationEEE"
  }
  mangled_function_name: "_ZN7android4hidl7manager4V1_015IServiceManager24registerForNotificationsERKNS_8hardware11hidl_stringES7_RKNS_2spINS2_20IServiceNotificationEEE"
  source_file: "/home/suhwa.kim/CONA_Proj/android/out/soong/.intermediates/system/libhidl/transport/manager/1.0/android.hidl.manager@1.0_genc++_headers/gen/android/hidl/manager/1.0/IServiceManager.h"
  parameters {
    basic_abi {
      type_abi {
        name: "const android::hardware::hidl_string &"
        size: 4
        alignment: 4
      }
      name: "fqName"
      access: public_access
      linker_set_key: "false"
    }
    default_arg: false
  }
  parameters {
    basic_abi {
      type_abi {
        name: "const android::hardware::hidl_string &"
        size: 4
        alignment: 4
      }
      name: "name"
      access: public_access
      linker_set_key: "false"
    }
    default_arg: false
  }
  parameters {
    basic_abi {
      type_abi {
        name: "const android::sp<android::hidl::manager::V1_0::IServiceNotification> &"
        size: 4
        alignment: 4
      }
      name: "callback"
      access: public_access
      linker_set_key: "false"
    }
    default_arg: false
  }
}
functions {
  basic_abi {
    type_abi {
      name: "android::hardware::Return<void>"
      size: 24
      alignment: 4
    }
    name: "android::hidl::manager::V1_0::IServiceManager::debugDump"
    access: public_access
    linker_set_key: "_ZN7android4hidl7manager4V1_015IServiceManager9debugDumpENSt3__18functionIFvRKNS_8hardware8hidl_vecINS3_17InstanceDebugInfoEEEEEE"
  }
  mangled_function_name: "_ZN7android4hidl7manager4V1_015IServiceManager9debugDumpENSt3__18functionIFvRKNS_8hardware8hidl_vecINS3_17InstanceDebugInfoEEEEEE"
  source_file: "/home/suhwa.kim/CONA_Proj/android/out/soong/.intermediates/system/libhidl/transport/manager/1.0/android.hidl.manager@1.0_genc++_headers/gen/android/hidl/manager/1.0/IServiceManager.h"
  parameters {
    basic_abi {
      type_abi {
        name: "std::function<void (const hidl_vec<InstanceDebugInfo> &)>"
        size: 24
        alignment: 8
      }
      name: "_hidl_cb"
      access: public_access
      linker_set_key: "false"
    }
    default_arg: false
  }
}
functions {
  basic_abi {
    type_abi {
      name: "android::hardware::Return<void>"
      size: 24
      alignment: 4
    }
    name: "android::hidl::manager::V1_0::IServiceManager::registerPassthroughClient"
    access: public_access
    linker_set_key: "_ZN7android4hidl7manager4V1_015IServiceManager25registerPassthroughClientERKNS_8hardware11hidl_stringES7_"
  }
  mangled_function_name: "_ZN7android4hidl7manager4V1_015IServiceManager25registerPassthroughClientERKNS_8hardware11hidl_stringES7_"
  source_file: "/home/suhwa.kim/CONA_Proj/android/out/soong/.intermediates/system/libhidl/transport/manager/1.0/android.hidl.manager@1.0_genc++_headers/gen/android/hidl/manager/1.0/IServiceManager.h"
  parameters {
    basic_abi {
      type_abi {
        name: "const android::hardware::hidl_string &"
        size: 4
        alignment: 4
      }
      name: "fqName"
      access: public_access
      linker_set_key: "false"
    }
    default_arg: false
  }
  parameters {
    basic_abi {
      type_abi {
        name: "const android::hardware::hidl_string &"
        size: 4
        alignment: 4
      }
      name: "name"
      access: public_access
      linker_set_key: "false"
    }
    default_arg: false
  }
}
functions {
  basic_abi {
    type_abi {
      name: "android::hardware::Return<void>"
      size: 24
      alignment: 4
    }
    name: "android::hidl::manager::V1_0::IServiceManager::interfaceChain"
    access: public_access
    linker_set_key: "_ZN7android4hidl7manager4V1_015IServiceManager14interfaceChainENSt3__18functionIFvRKNS_8hardware8hidl_vecINS6_11hidl_stringEEEEEE"
  }
  mangled_function_name: "_ZN7android4hidl7manager4V1_015IServiceManager14interfaceChainENSt3__18functionIFvRKNS_8hardware8hidl_vecINS6_11hidl_stringEEEEEE"
  source_file: "/home/suhwa.kim/CONA_Proj/android/out/soong/.intermediates/system/libhidl/transport/manager/1.0/android.hidl.manager@1.0_genc++_headers/gen/android/hidl/manager/1.0/IServiceManager.h"
  parameters {
    basic_abi {
      type_abi {
        name: "std::function<void (const hidl_vec<hidl_string> &)>"
        size: 24
        alignment: 8
      }
      name: "_hidl_cb"
      access: public_access
      linker_set_key: "false"
    }
    default_arg: false
  }
}
functions {
  basic_abi {
    type_abi {
      name: "android::hardware::Return<void>"
      size: 24
      alignment: 4
    }
    name: "android::hidl::manager::V1_0::IServiceManager::debug"
    access: public_access
    linker_set_key: "_ZN7android4hidl7manager4V1_015IServiceManager5debugERKNS_8hardware11hidl_handleERKNS4_8hidl_vecINS4_11hidl_stringEEE"
  }
  mangled_function_name: "_ZN7android4hidl7manager4V1_015IServiceManager5debugERKNS_8hardware11hidl_handleERKNS4_8hidl_vecINS4_11hidl_stringEEE"
  source_file: "/home/suhwa.kim/CONA_Proj/android/out/soong/.intermediates/system/libhidl/transport/manager/1.0/android.hidl.manager@1.0_genc++_headers/gen/android/hidl/manager/1.0/IServiceManager.h"
  parameters {
    basic_abi {
      type_abi {
        name: "const android::hardware::hidl_handle &"
        size: 4
        alignment: 4
      }
      name: "fd"
      access: public_access
      linker_set_key: "false"
    }
    default_arg: false
  }
  parameters {
    basic_abi {
      type_abi {
        name: "const android::hardware::hidl_vec<android::hardware::hidl_string> &"
        size: 4
        alignment: 4
      }
      name: "options"
      access: public_access
      linker_set_key: "false"
    }
    default_arg: false
  }
}
functions {
  basic_abi {
    type_abi {
      name: "android::hardware::Return<void>"
      size: 24
      alignment: 4
    }
    name: "android::hidl::manager::V1_0::IServiceManager::interfaceDescriptor"
    access: public_access
    linker_set_key: "_ZN7android4hidl7manager4V1_015IServiceManager19interfaceDescriptorENSt3__18functionIFvRKNS_8hardware11hidl_stringEEEE"
  }
  mangled_function_name: "_ZN7android4hidl7manager4V1_015IServiceManager19interfaceDescriptorENSt3__18functionIFvRKNS_8hardware11hidl_stringEEEE"
  source_file: "/home/suhwa.kim/CONA_Proj/android/out/soong/.intermediates/system/libhidl/transport/manager/1.0/android.hidl.manager@1.0_genc++_headers/gen/android/hidl/manager/1.0/IServiceManager.h"
  parameters {
    basic_abi {
      type_abi {
        name: "std::function<void (const hidl_string &)>"
        size: 24
        alignment: 8
      }
      name: "_hidl_cb"
      access: public_access
      linker_set_key: "false"
    }
    default_arg: false
  }
}
functions {
  basic_abi {
    type_abi {
      name: "android::hardware::Return<void>"
      size: 24
      alignment: 4
    }
    name: "android::hidl::manager::V1_0::IServiceManager::getHashChain"
    access: public_access
    linker_set_key: "_ZN7android4hidl7manager4V1_015IServiceManager12getHashChainENSt3__18functionIFvRKNS_8hardware8hidl_vecINS6_10hidl_arrayIhLj32EJEEEEEEEE"
  }
  mangled_function_name: "_ZN7android4hidl7manager4V1_015IServiceManager12getHashChainENSt3__18functionIFvRKNS_8hardware8hidl_vecINS6_10hidl_arrayIhLj32EJEEEEEEEE"
  source_file: "/home/suhwa.kim/CONA_Proj/android/out/soong/.intermediates/system/libhidl/transport/manager/1.0/android.hidl.manager@1.0_genc++_headers/gen/android/hidl/manager/1.0/IServiceManager.h"
  parameters {
    basic_abi {
      type_abi {
        name: "std::function<void (const hidl_vec<hidl_array<unsigned char, 32> > &)>"
        size: 24
        alignment: 8
      }
      name: "_hidl_cb"
      access: public_access
      linker_set_key: "false"
    }
    default_arg: false
  }
}
functions {
  basic_abi {
    type_abi {
      name: "android::hardware::Return<void>"
      size: 24
      alignment: 4
    }
    name: "android::hidl::manager::V1_0::IServiceManager::setHALInstrumentation"
    access: public_access
    linker_set_key: "_ZN7android4hidl7manager4V1_015IServiceManager21setHALInstrumentationEv"
  }
  mangled_function_name: "_ZN7android4hidl7manager4V1_015IServiceManager21setHALInstrumentationEv"
  source_file: "/home/suhwa.kim/CONA_Proj/android/out/soong/.intermediates/system/libhidl/transport/manager/1.0/android.hidl.manager@1.0_genc++_headers/gen/android/hidl/manager/1.0/IServiceManager.h"
}
functions {
  basic_abi {
    type_abi {
      name: "android::hardware::Return<bool>"
      size: 24
      alignment: 4
    }
    name: "android::hidl::manager::V1_0::IServiceManager::linkToDeath"
    access: public_access
    linker_set_key: "_ZN7android4hidl7manager4V1_015IServiceManager11linkToDeathERKNS_2spINS_8hardware20hidl_death_recipientEEEy"
  }
  mangled_function_name: "_ZN7android4hidl7manager4V1_015IServiceManager11linkToDeathERKNS_2spINS_8hardware20hidl_death_recipientEEEy"
  source_file: "/home/suhwa.kim/CONA_Proj/android/out/soong/.intermediates/system/libhidl/transport/manager/1.0/android.hidl.manager@1.0_genc++_headers/gen/android/hidl/manager/1.0/IServiceManager.h"
  parameters {
    basic_abi {
      type_abi {
        name: "const android::sp<android::hardware::hidl_death_recipient> &"
        size: 4
        alignment: 4
      }
      name: "recipient"
      access: public_access
      linker_set_key: "false"
    }
    default_arg: false
  }
  parameters {
    basic_abi {
      type_abi {
        name: "unsigned long long"
        size: 8
        alignment: 8
      }
      name: "cookie"
      access: public_access
      linker_set_key: "false"
    }
    default_arg: false
  }
}
functions {
  basic_abi {
    type_abi {
      name: "android::hardware::Return<void>"
      size: 24
      alignment: 4
    }
    name: "android::hidl::manager::V1_0::IServiceManager::ping"
    access: public_access
    linker_set_key: "_ZN7android4hidl7manager4V1_015IServiceManager4pingEv"
  }
  mangled_function_name: "_ZN7android4hidl7manager4V1_015IServiceManager4pingEv"
  source_file: "/home/suhwa.kim/CONA_Proj/android/out/soong/.intermediates/system/libhidl/transport/manager/1.0/android.hidl.manager@1.0_genc++_headers/gen/android/hidl/manager/1.0/IServiceManager.h"
}
functions {
  basic_abi {
    type_abi {
      name: "android::hardware::Return<void>"
      size: 24
      alignment: 4
    }
    name: "android::hidl::manager::V1_0::IServiceManager::getDebugInfo"
    access: public_access
    linker_set_key: "_ZN7android4hidl7manager4V1_015IServiceManager12getDebugInfoENSt3__18functionIFvRKNS0_4base4V1_09DebugInfoEEEE"
  }
  mangled_function_name: "_ZN7android4hidl7manager4V1_015IServiceManager12getDebugInfoENSt3__18functionIFvRKNS0_4base4V1_09DebugInfoEEEE"
  source_file: "/home/suhwa.kim/CONA_Proj/android/out/soong/.intermediates/system/libhidl/transport/manager/1.0/android.hidl.manager@1.0_genc++_headers/gen/android/hidl/manager/1.0/IServiceManager.h"
  parameters {
    basic_abi {
      type_abi {
        name: "std::function<void (const DebugInfo &)>"
        size: 24
        alignment: 8
      }
      name: "_hidl_cb"
      access: public_access
      linker_set_key: "false"
    }
    default_arg: false
  }
}
functions {
  basic_abi {
    type_abi {
      name: "android::hardware::Return<void>"
      size: 24
      alignment: 4
    }
    name: "android::hidl::manager::V1_0::IServiceManager::notifySyspropsChanged"
    access: public_access
    linker_set_key: "_ZN7android4hidl7manager4V1_015IServiceManager21notifySyspropsChangedEv"
  }
  mangled_function_name: "_ZN7android4hidl7manager4V1_015IServiceManager21notifySyspropsChangedEv"
  source_file: "/home/suhwa.kim/CONA_Proj/android/out/soong/.intermediates/system/libhidl/transport/manager/1.0/android.hidl.manager@1.0_genc++_headers/gen/android/hidl/manager/1.0/IServiceManager.h"
}
functions {
  basic_abi {
    type_abi {
      name: "android::hardware::Return<bool>"
      size: 24
      alignment: 4
    }
    name: "android::hidl::manager::V1_0::IServiceManager::unlinkToDeath"
    access: public_access
    linker_set_key: "_ZN7android4hidl7manager4V1_015IServiceManager13unlinkToDeathERKNS_2spINS_8hardware20hidl_death_recipientEEE"
  }
  mangled_function_name: "_ZN7android4hidl7manager4V1_015IServiceManager13unlinkToDeathERKNS_2spINS_8hardware20hidl_death_recipientEEE"
  source_file: "/home/suhwa.kim/CONA_Proj/android/out/soong/.intermediates/system/libhidl/transport/manager/1.0/android.hidl.manager@1.0_genc++_headers/gen/android/hidl/manager/1.0/IServiceManager.h"
  parameters {
    basic_abi {
      type_abi {
        name: "const android::sp<android::hardware::hidl_death_recipient> &"
        size: 4
        alignment: 4
      }
      name: "recipient"
      access: public_access
      linker_set_key: "false"
    }
    default_arg: false
  }
}
functions {
  basic_abi {
    type_abi {
      name: "android::hardware::Return<android::sp<android::hidl::manager::V1_0::IServiceManager> >"
      size: 28
      alignment: 4
    }
    name: "android::hidl::manager::V1_0::IServiceManager::castFrom"
    access: public_access
    linker_set_key: "_ZN7android4hidl7manager4V1_015IServiceManager8castFromERKNS_2spIS3_EEb"
  }
  mangled_function_name: "_ZN7android4hidl7manager4V1_015IServiceManager8castFromERKNS_2spIS3_EEb"
  source_file: "/home/suhwa.kim/CONA_Proj/android/out/soong/.intermediates/system/libhidl/transport/manager/1.0/android.hidl.manager@1.0_genc++_headers/gen/android/hidl/manager/1.0/IServiceManager.h"
  parameters {
    basic_abi {
      type_abi {
        name: "const android::sp<android::hidl::manager::V1_0::IServiceManager> &"
        size: 4
        alignment: 4
      }
      name: "parent"
      access: public_access
      linker_set_key: "false"
    }
    default_arg: false
  }
  parameters {
    basic_abi {
      type_abi {
        name: "bool"
        size: 1
        alignment: 1
      }
      name: "emitError"
      access: public_access
      linker_set_key: "true"
    }
    default_arg: true
  }
}
functions {
  basic_abi {
    type_abi {
      name: "android::hardware::Return<android::sp<android::hidl::manager::V1_0::IServiceManager> >"
      size: 28
      alignment: 4
    }
    name: "android::hidl::manager::V1_0::IServiceManager::castFrom"
    access: public_access
    linker_set_key: "_ZN7android4hidl7manager4V1_015IServiceManager8castFromERKNS_2spINS0_4base4V1_05IBaseEEEb"
  }
  mangled_function_name: "_ZN7android4hidl7manager4V1_015IServiceManager8castFromERKNS_2spINS0_4base4V1_05IBaseEEEb"
  source_file: "/home/suhwa.kim/CONA_Proj/android/out/soong/.intermediates/system/libhidl/transport/manager/1.0/android.hidl.manager@1.0_genc++_headers/gen/android/hidl/manager/1.0/IServiceManager.h"
  parameters {
    basic_abi {
      type_abi {
        name: "const android::sp<android::hidl::base::V1_0::IBase> &"
        size: 4
        alignment: 4
      }
      name: "parent"
      access: public_access
      linker_set_key: "false"
    }
    default_arg: false
  }
  parameters {
    basic_abi {
      type_abi {
        name: "bool"
        size: 1
        alignment: 1
      }
      name: "emitError"
      access: public_access
      linker_set_key: "true"
    }
    default_arg: true
  }
}
functions {
  basic_abi {
    type_abi {
      name: "android::sp<android::hidl::manager::V1_0::IServiceManager>"
      size: 4
      alignment: 4
    }
    name: "android::hidl::manager::V1_0::IServiceManager::tryGetService"
    access: public_access
    linker_set_key: "_ZN7android4hidl7manager4V1_015IServiceManager13tryGetServiceERKNSt3__112basic_stringIcNS4_11char_traitsIcEENS4_9allocatorIcEEEEb"
  }
  mangled_function_name: "_ZN7android4hidl7manager4V1_015IServiceManager13tryGetServiceERKNSt3__112basic_stringIcNS4_11char_traitsIcEENS4_9allocatorIcEEEEb"
  source_file: "/home/suhwa.kim/CONA_Proj/android/out/soong/.intermediates/system/libhidl/transport/manager/1.0/android.hidl.manager@1.0_genc++_headers/gen/android/hidl/manager/1.0/IServiceManager.h"
  parameters {
    basic_abi {
      type_abi {
        name: "const std::basic_string<char, std::char_traits<char>, std::allocator<char> > &"
        size: 4
        alignment: 4
      }
      name: "serviceName"
      access: public_access
      linker_set_key: "true"
    }
    default_arg: true
  }
  parameters {
    basic_abi {
      type_abi {
        name: "bool"
        size: 1
        alignment: 1
      }
      name: "getStub"
      access: public_access
      linker_set_key: "true"
    }
    default_arg: true
  }
}
functions {
  basic_abi {
    type_abi {
      name: "android::sp<android::hidl::manager::V1_0::IServiceManager>"
      size: 4
      alignment: 4
    }
    name: "android::hidl::manager::V1_0::IServiceManager::tryGetService"
    access: public_access
    linker_set_key: "_ZN7android4hidl7manager4V1_015IServiceManager13tryGetServiceEPKcb"
  }
  mangled_function_name: "_ZN7android4hidl7manager4V1_015IServiceManager13tryGetServiceEPKcb"
  source_file: "/home/suhwa.kim/CONA_Proj/android/out/soong/.intermediates/system/libhidl/transport/manager/1.0/android.hidl.manager@1.0_genc++_headers/gen/android/hidl/manager/1.0/IServiceManager.h"
  parameters {
    basic_abi {
      type_abi {
        name: "const char *"
        size: 4
        alignment: 4
      }
      name: "serviceName"
      access: public_access
      linker_set_key: "false"
    }
    default_arg: false
  }
  parameters {
    basic_abi {
      type_abi {
        name: "bool"
        size: 1
        alignment: 1
      }
      name: "getStub"
      access: public_access
      linker_set_key: "true"
    }
    default_arg: true
  }
}
functions {
  basic_abi {
    type_abi {
      name: "android::sp<android::hidl::manager::V1_0::IServiceManager>"
      size: 4
      alignment: 4
    }
    name: "android::hidl::manager::V1_0::IServiceManager::tryGetService"
    access: public_access
    linker_set_key: "_ZN7android4hidl7manager4V1_015IServiceManager13tryGetServiceERKNS_8hardware11hidl_stringEb"
  }
  mangled_function_name: "_ZN7android4hidl7manager4V1_015IServiceManager13tryGetServiceERKNS_8hardware11hidl_stringEb"
  source_file: "/home/suhwa.kim/CONA_Proj/android/out/soong/.intermediates/system/libhidl/transport/manager/1.0/android.hidl.manager@1.0_genc++_headers/gen/android/hidl/manager/1.0/IServiceManager.h"
  parameters {
    basic_abi {
      type_abi {
        name: "const android::hardware::hidl_string &"
        size: 4
        alignment: 4
      }
      name: "serviceName"
      access: public_access
      linker_set_key: "false"
    }
    default_arg: false
  }
  parameters {
    basic_abi {
      type_abi {
        name: "bool"
        size: 1
        alignment: 1
      }
      name: "getStub"
      access: public_access
      linker_set_key: "true"
    }
    default_arg: true
  }
}
functions {
  basic_abi {
    type_abi {
      name: "android::sp<android::hidl::manager::V1_0::IServiceManager>"
      size: 4
      alignment: 4
    }
    name: "android::hidl::manager::V1_0::IServiceManager::tryGetService"
    access: public_access
    linker_set_key: "_ZN7android4hidl7manager4V1_015IServiceManager13tryGetServiceEb"
  }
  mangled_function_name: "_ZN7android4hidl7manager4V1_015IServiceManager13tryGetServiceEb"
  source_file: "/home/suhwa.kim/CONA_Proj/android/out/soong/.intermediates/system/libhidl/transport/manager/1.0/android.hidl.manager@1.0_genc++_headers/gen/android/hidl/manager/1.0/IServiceManager.h"
  parameters {
    basic_abi {
      type_abi {
        name: "bool"
        size: 1
        alignment: 1
      }
      name: "getStub"
      access: public_access
      linker_set_key: "false"
    }
    default_arg: false
  }
}
functions {
  basic_abi {
    type_abi {
      name: "android::sp<android::hidl::manager::V1_0::IServiceManager>"
      size: 4
      alignment: 4
    }
    name: "android::hidl::manager::V1_0::IServiceManager::getService"
    access: public_access
    linker_set_key: "_ZN7android4hidl7manager4V1_015IServiceManager10getServiceERKNSt3__112basic_stringIcNS4_11char_traitsIcEENS4_9allocatorIcEEEEb"
  }
  mangled_function_name: "_ZN7android4hidl7manager4V1_015IServiceManager10getServiceERKNSt3__112basic_stringIcNS4_11char_traitsIcEENS4_9allocatorIcEEEEb"
  source_file: "/home/suhwa.kim/CONA_Proj/android/out/soong/.intermediates/system/libhidl/transport/manager/1.0/android.hidl.manager@1.0_genc++_headers/gen/android/hidl/manager/1.0/IServiceManager.h"
  parameters {
    basic_abi {
      type_abi {
        name: "const std::basic_string<char, std::char_traits<char>, std::allocator<char> > &"
        size: 4
        alignment: 4
      }
      name: "serviceName"
      access: public_access
      linker_set_key: "true"
    }
    default_arg: true
  }
  parameters {
    basic_abi {
      type_abi {
        name: "bool"
        size: 1
        alignment: 1
      }
      name: "getStub"
      access: public_access
      linker_set_key: "true"
    }
    default_arg: true
  }
}
functions {
  basic_abi {
    type_abi {
      name: "android::sp<android::hidl::manager::V1_0::IServiceManager>"
      size: 4
      alignment: 4
    }
    name: "android::hidl::manager::V1_0::IServiceManager::getService"
    access: public_access
    linker_set_key: "_ZN7android4hidl7manager4V1_015IServiceManager10getServiceEPKcb"
  }
  mangled_function_name: "_ZN7android4hidl7manager4V1_015IServiceManager10getServiceEPKcb"
  source_file: "/home/suhwa.kim/CONA_Proj/android/out/soong/.intermediates/system/libhidl/transport/manager/1.0/android.hidl.manager@1.0_genc++_headers/gen/android/hidl/manager/1.0/IServiceManager.h"
  parameters {
    basic_abi {
      type_abi {
        name: "const char *"
        size: 4
        alignment: 4
      }
      name: "serviceName"
      access: public_access
      linker_set_key: "false"
    }
    default_arg: false
  }
  parameters {
    basic_abi {
      type_abi {
        name: "bool"
        size: 1
        alignment: 1
      }
      name: "getStub"
      access: public_access
      linker_set_key: "true"
    }
    default_arg: true
  }
}
functions {
  basic_abi {
    type_abi {
      name: "android::sp<android::hidl::manager::V1_0::IServiceManager>"
      size: 4
      alignment: 4
    }
    name: "android::hidl::manager::V1_0::IServiceManager::getService"
    access: public_access
    linker_set_key: "_ZN7android4hidl7manager4V1_015IServiceManager10getServiceERKNS_8hardware11hidl_stringEb"
  }
  mangled_function_name: "_ZN7android4hidl7manager4V1_015IServiceManager10getServiceERKNS_8hardware11hidl_stringEb"
  source_file: "/home/suhwa.kim/CONA_Proj/android/out/soong/.intermediates/system/libhidl/transport/manager/1.0/android.hidl.manager@1.0_genc++_headers/gen/android/hidl/manager/1.0/IServiceManager.h"
  parameters {
    basic_abi {
      type_abi {
        name: "const android::hardware::hidl_string &"
        size: 4
        alignment: 4
      }
      name: "serviceName"
      access: public_access
      linker_set_key: "false"
    }
    default_arg: false
  }
  parameters {
    basic_abi {
      type_abi {
        name: "bool"
        size: 1
        alignment: 1
      }
      name: "getStub"
      access: public_access
      linker_set_key: "true"
    }
    default_arg: true
  }
}
functions {
  basic_abi {
    type_abi {
      name: "android::sp<android::hidl::manager::V1_0::IServiceManager>"
      size: 4
      alignment: 4
    }
    name: "android::hidl::manager::V1_0::IServiceManager::getService"
    access: public_access
    linker_set_key: "_ZN7android4hidl7manager4V1_015IServiceManager10getServiceEb"
  }
  mangled_function_name: "_ZN7android4hidl7manager4V1_015IServiceManager10getServiceEb"
  source_file: "/home/suhwa.kim/CONA_Proj/android/out/soong/.intermediates/system/libhidl/transport/manager/1.0/android.hidl.manager@1.0_genc++_headers/gen/android/hidl/manager/1.0/IServiceManager.h"
  parameters {
    basic_abi {
      type_abi {
        name: "bool"
        size: 1
        alignment: 1
      }
      name: "getStub"
      access: public_access
      linker_set_key: "false"
    }
    default_arg: false
  }
}
functions {
  basic_abi {
    type_abi {
      name: "int"
      size: 4
      alignment: 4
    }
    name: "android::hidl::manager::V1_0::IServiceManager::registerAsService"
    access: public_access
    linker_set_key: "_ZN7android4hidl7manager4V1_015IServiceManager17registerAsServiceERKNSt3__112basic_stringIcNS4_11char_traitsIcEENS4_9allocatorIcEEEE"
  }
  mangled_function_name: "_ZN7android4hidl7manager4V1_015IServiceManager17registerAsServiceERKNSt3__112basic_stringIcNS4_11char_traitsIcEENS4_9allocatorIcEEEE"
  source_file: "/home/suhwa.kim/CONA_Proj/android/out/soong/.intermediates/system/libhidl/transport/manager/1.0/android.hidl.manager@1.0_genc++_headers/gen/android/hidl/manager/1.0/IServiceManager.h"
  parameters {
    basic_abi {
      type_abi {
        name: "const std::basic_string<char, std::char_traits<char>, std::allocator<char> > &"
        size: 4
        alignment: 4
      }
      name: "serviceName"
      access: public_access
      linker_set_key: "true"
    }
    default_arg: true
  }
}
functions {
  basic_abi {
    type_abi {
      name: "bool"
      size: 1
      alignment: 1
    }
    name: "android::hidl::manager::V1_0::IServiceManager::registerForNotifications"
    access: public_access
    linker_set_key: "_ZN7android4hidl7manager4V1_015IServiceManager24registerForNotificationsERKNSt3__112basic_stringIcNS4_11char_traitsIcEENS4_9allocatorIcEEEERKNS_2spINS2_20IServiceNotificationEEE"
  }
  mangled_function_name: "_ZN7android4hidl7manager4V1_015IServiceManager24registerForNotificationsERKNSt3__112basic_stringIcNS4_11char_traitsIcEENS4_9allocatorIcEEEERKNS_2spINS2_20IServiceNotificationEEE"
  source_file: "/home/suhwa.kim/CONA_Proj/android/out/soong/.intermediates/system/libhidl/transport/manager/1.0/android.hidl.manager@1.0_genc++_headers/gen/android/hidl/manager/1.0/IServiceManager.h"
  parameters {
    basic_abi {
      type_abi {
        name: "const std::basic_string<char, std::char_traits<char>, std::allocator<char> > &"
        size: 4
        alignment: 4
      }
      name: "serviceName"
      access: public_access
      linker_set_key: "false"
    }
    default_arg: false
  }
  parameters {
    basic_abi {
      type_abi {
        name: "const android::sp<android::hidl::manager::V1_0::IServiceNotification> &"
        size: 4
        alignment: 4
      }
      name: "notification"
      access: public_access
      linker_set_key: "false"
    }
    default_arg: false
  }
}
functions {
  basic_abi {
    type_abi {
      name: "unsigned char"
      size: 1
      alignment: 1
    }
    name: "android::hidl::manager::V1_0::operator|"
    access: public_access
    linker_set_key: "_ZN7android4hidl7manager4V1_0orENS2_15IServiceManager9TransportES4_"
  }
  mangled_function_name: "_ZN7android4hidl7manager4V1_0orENS2_15IServiceManager9TransportES4_"
  source_file: "/home/suhwa.kim/CONA_Proj/android/out/soong/.intermediates/system/libhidl/transport/manager/1.0/android.hidl.manager@1.0_genc++_headers/gen/android/hidl/manager/1.0/IServiceManager.h"
  parameters {
    basic_abi {
      type_abi {
        name: "const android::hidl::manager::V1_0::IServiceManager::Transport"
        size: 1
        alignment: 1
      }
      name: "lhs"
      access: public_access
      linker_set_key: "false"
    }
    default_arg: false
  }
  parameters {
    basic_abi {
      type_abi {
        name: "const android::hidl::manager::V1_0::IServiceManager::Transport"
        size: 1
        alignment: 1
      }
      name: "rhs"
      access: public_access
      linker_set_key: "false"
    }
    default_arg: false
  }
}
functions {
  basic_abi {
    type_abi {
      name: "unsigned char"
      size: 1
      alignment: 1
    }
    name: "android::hidl::manager::V1_0::operator|"
    access: public_access
    linker_set_key: "_ZN7android4hidl7manager4V1_0orEhNS2_15IServiceManager9TransportE"
  }
  mangled_function_name: "_ZN7android4hidl7manager4V1_0orEhNS2_15IServiceManager9TransportE"
  source_file: "/home/suhwa.kim/CONA_Proj/android/out/soong/.intermediates/system/libhidl/transport/manager/1.0/android.hidl.manager@1.0_genc++_headers/gen/android/hidl/manager/1.0/IServiceManager.h"
  parameters {
    basic_abi {
      type_abi {
        name: "const unsigned char"
        size: 1
        alignment: 1
      }
      name: "lhs"
      access: public_access
      linker_set_key: "false"
    }
    default_arg: false
  }
  parameters {
    basic_abi {
      type_abi {
        name: "const android::hidl::manager::V1_0::IServiceManager::Transport"
        size: 1
        alignment: 1
      }
      name: "rhs"
      access: public_access
      linker_set_key: "false"
    }
    default_arg: false
  }
}
functions {
  basic_abi {
    type_abi {
      name: "unsigned char"
      size: 1
      alignment: 1
    }
    name: "android::hidl::manager::V1_0::operator|"
    access: public_access
    linker_set_key: "_ZN7android4hidl7manager4V1_0orENS2_15IServiceManager9TransportEh"
  }
  mangled_function_name: "_ZN7android4hidl7manager4V1_0orENS2_15IServiceManager9TransportEh"
  source_file: "/home/suhwa.kim/CONA_Proj/android/out/soong/.intermediates/system/libhidl/transport/manager/1.0/android.hidl.manager@1.0_genc++_headers/gen/android/hidl/manager/1.0/IServiceManager.h"
  parameters {
    basic_abi {
      type_abi {
        name: "const android::hidl::manager::V1_0::IServiceManager::Transport"
        size: 1
        alignment: 1
      }
      name: "lhs"
      access: public_access
      linker_set_key: "false"
    }
    default_arg: false
  }
  parameters {
    basic_abi {
      type_abi {
        name: "const unsigned char"
        size: 1
        alignment: 1
      }
      name: "rhs"
      access: public_access
      linker_set_key: "false"
    }
    default_arg: false
  }
}
functions {
  basic_abi {
    type_abi {
      name: "unsigned char"
      size: 1
      alignment: 1
    }
    name: "android::hidl::manager::V1_0::operator&"
    access: public_access
    linker_set_key: "_ZN7android4hidl7manager4V1_0anENS2_15IServiceManager9TransportES4_"
  }
  mangled_function_name: "_ZN7android4hidl7manager4V1_0anENS2_15IServiceManager9TransportES4_"
  source_file: "/home/suhwa.kim/CONA_Proj/android/out/soong/.intermediates/system/libhidl/transport/manager/1.0/android.hidl.manager@1.0_genc++_headers/gen/android/hidl/manager/1.0/IServiceManager.h"
  parameters {
    basic_abi {
      type_abi {
        name: "const android::hidl::manager::V1_0::IServiceManager::Transport"
        size: 1
        alignment: 1
      }
      name: "lhs"
      access: public_access
      linker_set_key: "false"
    }
    default_arg: false
  }
  parameters {
    basic_abi {
      type_abi {
        name: "const android::hidl::manager::V1_0::IServiceManager::Transport"
        size: 1
        alignment: 1
      }
      name: "rhs"
      access: public_access
      linker_set_key: "false"
    }
    default_arg: false
  }
}
functions {
  basic_abi {
    type_abi {
      name: "unsigned char"
      size: 1
      alignment: 1
    }
    name: "android::hidl::manager::V1_0::operator&"
    access: public_access
    linker_set_key: "_ZN7android4hidl7manager4V1_0anEhNS2_15IServiceManager9TransportE"
  }
  mangled_function_name: "_ZN7android4hidl7manager4V1_0anEhNS2_15IServiceManager9TransportE"
  source_file: "/home/suhwa.kim/CONA_Proj/android/out/soong/.intermediates/system/libhidl/transport/manager/1.0/android.hidl.manager@1.0_genc++_headers/gen/android/hidl/manager/1.0/IServiceManager.h"
  parameters {
    basic_abi {
      type_abi {
        name: "const unsigned char"
        size: 1
        alignment: 1
      }
      name: "lhs"
      access: public_access
      linker_set_key: "false"
    }
    default_arg: false
  }
  parameters {
    basic_abi {
      type_abi {
        name: "const android::hidl::manager::V1_0::IServiceManager::Transport"
        size: 1
        alignment: 1
      }
      name: "rhs"
      access: public_access
      linker_set_key: "false"
    }
    default_arg: false
  }
}
functions {
  basic_abi {
    type_abi {
      name: "unsigned char"
      size: 1
      alignment: 1
    }
    name: "android::hidl::manager::V1_0::operator&"
    access: public_access
    linker_set_key: "_ZN7android4hidl7manager4V1_0anENS2_15IServiceManager9TransportEh"
  }
  mangled_function_name: "_ZN7android4hidl7manager4V1_0anENS2_15IServiceManager9TransportEh"
  source_file: "/home/suhwa.kim/CONA_Proj/android/out/soong/.intermediates/system/libhidl/transport/manager/1.0/android.hidl.manager@1.0_genc++_headers/gen/android/hidl/manager/1.0/IServiceManager.h"
  parameters {
    basic_abi {
      type_abi {
        name: "const android::hidl::manager::V1_0::IServiceManager::Transport"
        size: 1
        alignment: 1
      }
      name: "lhs"
      access: public_access
      linker_set_key: "false"
    }
    default_arg: false
  }
  parameters {
    basic_abi {
      type_abi {
        name: "const unsigned char"
        size: 1
        alignment: 1
      }
      name: "rhs"
      access: public_access
      linker_set_key: "false"
    }
    default_arg: false
  }
}
functions {
  basic_abi {
    type_abi {
      name: "unsigned char &"
      size: 4
      alignment: 4
    }
    name: "android::hidl::manager::V1_0::operator|="
    access: public_access
    linker_set_key: "_ZN7android4hidl7manager4V1_0oRERhNS2_15IServiceManager9TransportE"
  }
  mangled_function_name: "_ZN7android4hidl7manager4V1_0oRERhNS2_15IServiceManager9TransportE"
  source_file: "/home/suhwa.kim/CONA_Proj/android/out/soong/.intermediates/system/libhidl/transport/manager/1.0/android.hidl.manager@1.0_genc++_headers/gen/android/hidl/manager/1.0/IServiceManager.h"
  parameters {
    basic_abi {
      type_abi {
        name: "unsigned char &"
        size: 4
        alignment: 4
      }
      name: "v"
      access: public_access
      linker_set_key: "false"
    }
    default_arg: false
  }
  parameters {
    basic_abi {
      type_abi {
        name: "const android::hidl::manager::V1_0::IServiceManager::Transport"
        size: 1
        alignment: 1
      }
      name: "e"
      access: public_access
      linker_set_key: "false"
    }
    default_arg: false
  }
}
functions {
  basic_abi {
    type_abi {
      name: "unsigned char &"
      size: 4
      alignment: 4
    }
    name: "android::hidl::manager::V1_0::operator&="
    access: public_access
    linker_set_key: "_ZN7android4hidl7manager4V1_0aNERhNS2_15IServiceManager9TransportE"
  }
  mangled_function_name: "_ZN7android4hidl7manager4V1_0aNERhNS2_15IServiceManager9TransportE"
  source_file: "/home/suhwa.kim/CONA_Proj/android/out/soong/.intermediates/system/libhidl/transport/manager/1.0/android.hidl.manager@1.0_genc++_headers/gen/android/hidl/manager/1.0/IServiceManager.h"
  parameters {
    basic_abi {
      type_abi {
        name: "unsigned char &"
        size: 4
        alignment: 4
      }
      name: "v"
      access: public_access
      linker_set_key: "false"
    }
    default_arg: false
  }
  parameters {
    basic_abi {
      type_abi {
        name: "const android::hidl::manager::V1_0::IServiceManager::Transport"
        size: 1
        alignment: 1
      }
      name: "e"
      access: public_access
      linker_set_key: "false"
    }
    default_arg: false
  }
}
functions {
  basic_abi {
    type_abi {
      name: "std::basic_string<char, std::char_traits<char>, std::allocator<char> >"
      size: 12
      alignment: 4
    }
    name: "android::hidl::manager::V1_0::toString"
    access: public_access
    linker_set_key: "_ZN7android4hidl7manager4V1_08toStringEh"
  }
  mangled_function_name: "_ZN7android4hidl7manager4V1_08toStringEh"
  source_file: "/home/suhwa.kim/CONA_Proj/android/out/soong/.intermediates/system/libhidl/transport/manager/1.0/android.hidl.manager@1.0_genc++_headers/gen/android/hidl/manager/1.0/IServiceManager.h"
  parameters {
    basic_abi {
      type_abi {
        name: "unsigned char"
        size: 1
        alignment: 1
      }
      name: "o"
      access: public_access
      linker_set_key: "false"
    }
    default_arg: false
  }
  template_info {
    elements {
      basic_abi {
        name: ""
        linker_set_key: ""
      }
    }
  }
}
functions {
  basic_abi {
    type_abi {
      name: "std::basic_string<char, std::char_traits<char>, std::allocator<char> >"
      size: 12
      alignment: 4
    }
    name: "android::hidl::manager::V1_0::toString"
    access: public_access
    linker_set_key: "_ZN7android4hidl7manager4V1_08toStringINS2_15IServiceManager9TransportEEENSt3__112basic_stringIcNS6_11char_traitsIcEENS6_9allocatorIcEEEEh"
  }
  mangled_function_name: "_ZN7android4hidl7manager4V1_08toStringINS2_15IServiceManager9TransportEEENSt3__112basic_stringIcNS6_11char_traitsIcEENS6_9allocatorIcEEEEh"
  source_file: "/home/suhwa.kim/CONA_Proj/android/out/soong/.intermediates/system/libhidl/transport/manager/1.0/android.hidl.manager@1.0_genc++_headers/gen/android/hidl/manager/1.0/IServiceManager.h"
  parameters {
    basic_abi {
      type_abi {
        name: "unsigned char"
        size: 1
        alignment: 1
      }
      name: "o"
      access: public_access
      linker_set_key: "false"
    }
    default_arg: false
  }
  template_info {
    elements {
      basic_abi {
        type_abi {
          name: "android::hidl::manager::V1_0::IServiceManager::Transport"
          size: 1
          alignment: 1
        }
        linker_set_key: "android::hidl::manager::V1_0::IServiceManager::Transport"
      }
    }
  }
}
functions {
  basic_abi {
    type_abi {
      name: "std::basic_string<char, std::char_traits<char>, std::allocator<char> >"
      size: 12
      alignment: 4
    }
    name: "android::hidl::manager::V1_0::toString"
    access: public_access
    linker_set_key: "_ZN7android4hidl7manager4V1_08toStringENS2_15IServiceManager9TransportE"
  }
  mangled_function_name: "_ZN7android4hidl7manager4V1_08toStringENS2_15IServiceManager9TransportE"
  source_file: "/home/suhwa.kim/CONA_Proj/android/out/soong/.intermediates/system/libhidl/transport/manager/1.0/android.hidl.manager@1.0_genc++_headers/gen/android/hidl/manager/1.0/IServiceManager.h"
  parameters {
    basic_abi {
      type_abi {
        name: "android::hidl::manager::V1_0::IServiceManager::Transport"
        size: 1
        alignment: 1
      }
      name: "o"
      access: public_access
      linker_set_key: "false"
    }
    default_arg: false
  }
}
functions {
  basic_abi {
    type_abi {
      name: "int"
      size: 4
      alignment: 4
    }
    name: "android::hidl::manager::V1_0::operator|"
    access: public_access
    linker_set_key: "_ZN7android4hidl7manager4V1_0orENS2_15IServiceManager11PidConstantES4_"
  }
  mangled_function_name: "_ZN7android4hidl7manager4V1_0orENS2_15IServiceManager11PidConstantES4_"
  source_file: "/home/suhwa.kim/CONA_Proj/android/out/soong/.intermediates/system/libhidl/transport/manager/1.0/android.hidl.manager@1.0_genc++_headers/gen/android/hidl/manager/1.0/IServiceManager.h"
  parameters {
    basic_abi {
      type_abi {
        name: "const android::hidl::manager::V1_0::IServiceManager::PidConstant"
        size: 4
        alignment: 4
      }
      name: "lhs"
      access: public_access
      linker_set_key: "false"
    }
    default_arg: false
  }
  parameters {
    basic_abi {
      type_abi {
        name: "const android::hidl::manager::V1_0::IServiceManager::PidConstant"
        size: 4
        alignment: 4
      }
      name: "rhs"
      access: public_access
      linker_set_key: "false"
    }
    default_arg: false
  }
}
functions {
  basic_abi {
    type_abi {
      name: "int"
      size: 4
      alignment: 4
    }
    name: "android::hidl::manager::V1_0::operator|"
    access: public_access
    linker_set_key: "_ZN7android4hidl7manager4V1_0orEiNS2_15IServiceManager11PidConstantE"
  }
  mangled_function_name: "_ZN7android4hidl7manager4V1_0orEiNS2_15IServiceManager11PidConstantE"
  source_file: "/home/suhwa.kim/CONA_Proj/android/out/soong/.intermediates/system/libhidl/transport/manager/1.0/android.hidl.manager@1.0_genc++_headers/gen/android/hidl/manager/1.0/IServiceManager.h"
  parameters {
    basic_abi {
      type_abi {
        name: "const int"
        size: 4
        alignment: 4
      }
      name: "lhs"
      access: public_access
      linker_set_key: "false"
    }
    default_arg: false
  }
  parameters {
    basic_abi {
      type_abi {
        name: "const android::hidl::manager::V1_0::IServiceManager::PidConstant"
        size: 4
        alignment: 4
      }
      name: "rhs"
      access: public_access
      linker_set_key: "false"
    }
    default_arg: false
  }
}
functions {
  basic_abi {
    type_abi {
      name: "int"
      size: 4
      alignment: 4
    }
    name: "android::hidl::manager::V1_0::operator|"
    access: public_access
    linker_set_key: "_ZN7android4hidl7manager4V1_0orENS2_15IServiceManager11PidConstantEi"
  }
  mangled_function_name: "_ZN7android4hidl7manager4V1_0orENS2_15IServiceManager11PidConstantEi"
  source_file: "/home/suhwa.kim/CONA_Proj/android/out/soong/.intermediates/system/libhidl/transport/manager/1.0/android.hidl.manager@1.0_genc++_headers/gen/android/hidl/manager/1.0/IServiceManager.h"
  parameters {
    basic_abi {
      type_abi {
        name: "const android::hidl::manager::V1_0::IServiceManager::PidConstant"
        size: 4
        alignment: 4
      }
      name: "lhs"
      access: public_access
      linker_set_key: "false"
    }
    default_arg: false
  }
  parameters {
    basic_abi {
      type_abi {
        name: "const int"
        size: 4
        alignment: 4
      }
      name: "rhs"
      access: public_access
      linker_set_key: "false"
    }
    default_arg: false
  }
}
functions {
  basic_abi {
    type_abi {
      name: "int"
      size: 4
      alignment: 4
    }
    name: "android::hidl::manager::V1_0::operator&"
    access: public_access
    linker_set_key: "_ZN7android4hidl7manager4V1_0anENS2_15IServiceManager11PidConstantES4_"
  }
  mangled_function_name: "_ZN7android4hidl7manager4V1_0anENS2_15IServiceManager11PidConstantES4_"
  source_file: "/home/suhwa.kim/CONA_Proj/android/out/soong/.intermediates/system/libhidl/transport/manager/1.0/android.hidl.manager@1.0_genc++_headers/gen/android/hidl/manager/1.0/IServiceManager.h"
  parameters {
    basic_abi {
      type_abi {
        name: "const android::hidl::manager::V1_0::IServiceManager::PidConstant"
        size: 4
        alignment: 4
      }
      name: "lhs"
      access: public_access
      linker_set_key: "false"
    }
    default_arg: false
  }
  parameters {
    basic_abi {
      type_abi {
        name: "const android::hidl::manager::V1_0::IServiceManager::PidConstant"
        size: 4
        alignment: 4
      }
      name: "rhs"
      access: public_access
      linker_set_key: "false"
    }
    default_arg: false
  }
}
functions {
  basic_abi {
    type_abi {
      name: "int"
      size: 4
      alignment: 4
    }
    name: "android::hidl::manager::V1_0::operator&"
    access: public_access
    linker_set_key: "_ZN7android4hidl7manager4V1_0anEiNS2_15IServiceManager11PidConstantE"
  }
  mangled_function_name: "_ZN7android4hidl7manager4V1_0anEiNS2_15IServiceManager11PidConstantE"
  source_file: "/home/suhwa.kim/CONA_Proj/android/out/soong/.intermediates/system/libhidl/transport/manager/1.0/android.hidl.manager@1.0_genc++_headers/gen/android/hidl/manager/1.0/IServiceManager.h"
  parameters {
    basic_abi {
      type_abi {
        name: "const int"
        size: 4
        alignment: 4
      }
      name: "lhs"
      access: public_access
      linker_set_key: "false"
    }
    default_arg: false
  }
  parameters {
    basic_abi {
      type_abi {
        name: "const android::hidl::manager::V1_0::IServiceManager::PidConstant"
        size: 4
        alignment: 4
      }
      name: "rhs"
      access: public_access
      linker_set_key: "false"
    }
    default_arg: false
  }
}
functions {
  basic_abi {
    type_abi {
      name: "int"
      size: 4
      alignment: 4
    }
    name: "android::hidl::manager::V1_0::operator&"
    access: public_access
    linker_set_key: "_ZN7android4hidl7manager4V1_0anENS2_15IServiceManager11PidConstantEi"
  }
  mangled_function_name: "_ZN7android4hidl7manager4V1_0anENS2_15IServiceManager11PidConstantEi"
  source_file: "/home/suhwa.kim/CONA_Proj/android/out/soong/.intermediates/system/libhidl/transport/manager/1.0/android.hidl.manager@1.0_genc++_headers/gen/android/hidl/manager/1.0/IServiceManager.h"
  parameters {
    basic_abi {
      type_abi {
        name: "const android::hidl::manager::V1_0::IServiceManager::PidConstant"
        size: 4
        alignment: 4
      }
      name: "lhs"
      access: public_access
      linker_set_key: "false"
    }
    default_arg: false
  }
  parameters {
    basic_abi {
      type_abi {
        name: "const int"
        size: 4
        alignment: 4
      }
      name: "rhs"
      access: public_access
      linker_set_key: "false"
    }
    default_arg: false
  }
}
functions {
  basic_abi {
    type_abi {
      name: "int &"
      size: 4
      alignment: 4
    }
    name: "android::hidl::manager::V1_0::operator|="
    access: public_access
    linker_set_key: "_ZN7android4hidl7manager4V1_0oRERiNS2_15IServiceManager11PidConstantE"
  }
  mangled_function_name: "_ZN7android4hidl7manager4V1_0oRERiNS2_15IServiceManager11PidConstantE"
  source_file: "/home/suhwa.kim/CONA_Proj/android/out/soong/.intermediates/system/libhidl/transport/manager/1.0/android.hidl.manager@1.0_genc++_headers/gen/android/hidl/manager/1.0/IServiceManager.h"
  parameters {
    basic_abi {
      type_abi {
        name: "int &"
        size: 4
        alignment: 4
      }
      name: "v"
      access: public_access
      linker_set_key: "false"
    }
    default_arg: false
  }
  parameters {
    basic_abi {
      type_abi {
        name: "const android::hidl::manager::V1_0::IServiceManager::PidConstant"
        size: 4
        alignment: 4
      }
      name: "e"
      access: public_access
      linker_set_key: "false"
    }
    default_arg: false
  }
}
functions {
  basic_abi {
    type_abi {
      name: "int &"
      size: 4
      alignment: 4
    }
    name: "android::hidl::manager::V1_0::operator&="
    access: public_access
    linker_set_key: "_ZN7android4hidl7manager4V1_0aNERiNS2_15IServiceManager11PidConstantE"
  }
  mangled_function_name: "_ZN7android4hidl7manager4V1_0aNERiNS2_15IServiceManager11PidConstantE"
  source_file: "/home/suhwa.kim/CONA_Proj/android/out/soong/.intermediates/system/libhidl/transport/manager/1.0/android.hidl.manager@1.0_genc++_headers/gen/android/hidl/manager/1.0/IServiceManager.h"
  parameters {
    basic_abi {
      type_abi {
        name: "int &"
        size: 4
        alignment: 4
      }
      name: "v"
      access: public_access
      linker_set_key: "false"
    }
    default_arg: false
  }
  parameters {
    basic_abi {
      type_abi {
        name: "const android::hidl::manager::V1_0::IServiceManager::PidConstant"
        size: 4
        alignment: 4
      }
      name: "e"
      access: public_access
      linker_set_key: "false"
    }
    default_arg: false
  }
}
functions {
  basic_abi {
    type_abi {
      name: "std::basic_string<char, std::char_traits<char>, std::allocator<char> >"
      size: 12
      alignment: 4
    }
    name: "android::hidl::manager::V1_0::toString"
    access: public_access
    linker_set_key: "_ZN7android4hidl7manager4V1_08toStringEi"
  }
  mangled_function_name: "_ZN7android4hidl7manager4V1_08toStringEi"
  source_file: "/home/suhwa.kim/CONA_Proj/android/out/soong/.intermediates/system/libhidl/transport/manager/1.0/android.hidl.manager@1.0_genc++_headers/gen/android/hidl/manager/1.0/IServiceManager.h"
  parameters {
    basic_abi {
      type_abi {
        name: "int"
        size: 4
        alignment: 4
      }
      name: "o"
      access: public_access
      linker_set_key: "false"
    }
    default_arg: false
  }
  template_info {
    elements {
      basic_abi {
        name: ""
        linker_set_key: ""
      }
    }
  }
}
functions {
  basic_abi {
    type_abi {
      name: "std::basic_string<char, std::char_traits<char>, std::allocator<char> >"
      size: 12
      alignment: 4
    }
    name: "android::hidl::manager::V1_0::toString"
    access: public_access
    linker_set_key: "_ZN7android4hidl7manager4V1_08toStringINS2_15IServiceManager11PidConstantEEENSt3__112basic_stringIcNS6_11char_traitsIcEENS6_9allocatorIcEEEEi"
  }
  mangled_function_name: "_ZN7android4hidl7manager4V1_08toStringINS2_15IServiceManager11PidConstantEEENSt3__112basic_stringIcNS6_11char_traitsIcEENS6_9allocatorIcEEEEi"
  source_file: "/home/suhwa.kim/CONA_Proj/android/out/soong/.intermediates/system/libhidl/transport/manager/1.0/android.hidl.manager@1.0_genc++_headers/gen/android/hidl/manager/1.0/IServiceManager.h"
  parameters {
    basic_abi {
      type_abi {
        name: "int"
        size: 4
        alignment: 4
      }
      name: "o"
      access: public_access
      linker_set_key: "false"
    }
    default_arg: false
  }
  template_info {
    elements {
      basic_abi {
        type_abi {
          name: "android::hidl::manager::V1_0::IServiceManager::PidConstant"
          size: 4
          alignment: 4
        }
        linker_set_key: "android::hidl::manager::V1_0::IServiceManager::PidConstant"
      }
    }
  }
}
functions {
  basic_abi {
    type_abi {
      name: "std::basic_string<char, std::char_traits<char>, std::allocator<char> >"
      size: 12
      alignment: 4
    }
    name: "android::hidl::manager::V1_0::toString"
    access: public_access
    linker_set_key: "_ZN7android4hidl7manager4V1_08toStringENS2_15IServiceManager11PidConstantE"
  }
  mangled_function_name: "_ZN7android4hidl7manager4V1_08toStringENS2_15IServiceManager11PidConstantE"
  source_file: "/home/suhwa.kim/CONA_Proj/android/out/soong/.intermediates/system/libhidl/transport/manager/1.0/android.hidl.manager@1.0_genc++_headers/gen/android/hidl/manager/1.0/IServiceManager.h"
  parameters {
    basic_abi {
      type_abi {
        name: "android::hidl::manager::V1_0::IServiceManager::PidConstant"
        size: 4
        alignment: 4
      }
      name: "o"
      access: public_access
      linker_set_key: "false"
    }
    default_arg: false
  }
}
functions {
  basic_abi {
    type_abi {
      name: "std::basic_string<char, std::char_traits<char>, std::allocator<char> >"
      size: 12
      alignment: 4
    }
    name: "android::hidl::manager::V1_0::toString"
    access: public_access
    linker_set_key: "_ZN7android4hidl7manager4V1_08toStringERKNS2_15IServiceManager17InstanceDebugInfoE"
  }
  mangled_function_name: "_ZN7android4hidl7manager4V1_08toStringERKNS2_15IServiceManager17InstanceDebugInfoE"
  source_file: "/home/suhwa.kim/CONA_Proj/android/out/soong/.intermediates/system/libhidl/transport/manager/1.0/android.hidl.manager@1.0_genc++_headers/gen/android/hidl/manager/1.0/IServiceManager.h"
  parameters {
    basic_abi {
      type_abi {
        name: "const android::hidl::manager::V1_0::IServiceManager::InstanceDebugInfo &"
        size: 4
        alignment: 4
      }
      name: ""
      access: public_access
      linker_set_key: "false"
    }
    default_arg: false
  }
}
functions {
  basic_abi {
    type_abi {
      name: "bool"
      size: 1
      alignment: 1
    }
    name: "android::hidl::manager::V1_0::operator=="
    access: public_access
    linker_set_key: "_ZN7android4hidl7manager4V1_0eqERKNS2_15IServiceManager17InstanceDebugInfoES6_"
  }
  mangled_function_name: "_ZN7android4hidl7manager4V1_0eqERKNS2_15IServiceManager17InstanceDebugInfoES6_"
  source_file: "/home/suhwa.kim/CONA_Proj/android/out/soong/.intermediates/system/libhidl/transport/manager/1.0/android.hidl.manager@1.0_genc++_headers/gen/android/hidl/manager/1.0/IServiceManager.h"
  parameters {
    basic_abi {
      type_abi {
        name: "const android::hidl::manager::V1_0::IServiceManager::InstanceDebugInfo &"
        size: 4
        alignment: 4
      }
      name: ""
      access: public_access
      linker_set_key: "false"
    }
    default_arg: false
  }
  parameters {
    basic_abi {
      type_abi {
        name: "const android::hidl::manager::V1_0::IServiceManager::InstanceDebugInfo &"
        size: 4
        alignment: 4
      }
      name: ""
      access: public_access
      linker_set_key: "false"
    }
    default_arg: false
  }
}
functions {
  basic_abi {
    type_abi {
      name: "bool"
      size: 1
      alignment: 1
    }
    name: "android::hidl::manager::V1_0::operator!="
    access: public_access
    linker_set_key: "_ZN7android4hidl7manager4V1_0neERKNS2_15IServiceManager17InstanceDebugInfoES6_"
  }
  mangled_function_name: "_ZN7android4hidl7manager4V1_0neERKNS2_15IServiceManager17InstanceDebugInfoES6_"
  source_file: "/home/suhwa.kim/CONA_Proj/android/out/soong/.intermediates/system/libhidl/transport/manager/1.0/android.hidl.manager@1.0_genc++_headers/gen/android/hidl/manager/1.0/IServiceManager.h"
  parameters {
    basic_abi {
      type_abi {
        name: "const android::hidl::manager::V1_0::IServiceManager::InstanceDebugInfo &"
        size: 4
        alignment: 4
      }
      name: ""
      access: public_access
      linker_set_key: "false"
    }
    default_arg: false
  }
  parameters {
    basic_abi {
      type_abi {
        name: "const android::hidl::manager::V1_0::IServiceManager::InstanceDebugInfo &"
        size: 4
        alignment: 4
      }
      name: ""
      access: public_access
      linker_set_key: "false"
    }
    default_arg: false
  }
}
functions {
  basic_abi {
    type_abi {
      name: "std::basic_string<char, std::char_traits<char>, std::allocator<char> >"
      size: 12
      alignment: 4
    }
    name: "android::hidl::manager::V1_0::toString"
    access: public_access
    linker_set_key: "_ZN7android4hidl7manager4V1_08toStringERKNS_2spINS2_15IServiceManagerEEE"
  }
  mangled_function_name: "_ZN7android4hidl7manager4V1_08toStringERKNS_2spINS2_15IServiceManagerEEE"
  source_file: "/home/suhwa.kim/CONA_Proj/android/out/soong/.intermediates/system/libhidl/transport/manager/1.0/android.hidl.manager@1.0_genc++_headers/gen/android/hidl/manager/1.0/IServiceManager.h"
  parameters {
    basic_abi {
      type_abi {
        name: "const android::sp<android::hidl::manager::V1_0::IServiceManager> &"
        size: 4
        alignment: 4
      }
      name: ""
      access: public_access
      linker_set_key: "false"
    }
    default_arg: false
  }
}
functions {
  basic_abi {
    type_abi {
      name: "void"
    }
    name: "android::hidl::manager::V1_0::BnHwServiceNotification::BnHwServiceNotification"
    access: public_access
    linker_set_key: "_ZN7android4hidl7manager4V1_023BnHwServiceNotificationC1ERKNS_2spINS2_20IServiceNotificationEEE"
  }
  mangled_function_name: "_ZN7android4hidl7manager4V1_023BnHwServiceNotificationC1ERKNS_2spINS2_20IServiceNotificationEEE"
  source_file: "/home/suhwa.kim/CONA_Proj/android/out/soong/.intermediates/system/libhidl/transport/manager/1.0/android.hidl.manager@1.0_genc++_headers/gen/android/hidl/manager/1.0/BnHwServiceNotification.h"
  parameters {
    basic_abi {
      type_abi {
        name: "const android::sp<android::hidl::manager::V1_0::IServiceNotification> &"
        size: 4
        alignment: 4
      }
      name: "_hidl_impl"
      access: public_access
      linker_set_key: "false"
    }
    default_arg: false
  }
}
functions {
  basic_abi {
    type_abi {
      name: "void"
    }
    name: "android::hidl::manager::V1_0::BnHwServiceNotification::BnHwServiceNotification"
    access: public_access
    linker_set_key: "_ZN7android4hidl7manager4V1_023BnHwServiceNotificationC1ERKNS_2spINS2_20IServiceNotificationEEERKNSt3__112basic_stringIcNS9_11char_traitsIcEENS9_9allocatorIcEEEESH_"
  }
  mangled_function_name: "_ZN7android4hidl7manager4V1_023BnHwServiceNotificationC1ERKNS_2spINS2_20IServiceNotificationEEERKNSt3__112basic_stringIcNS9_11char_traitsIcEENS9_9allocatorIcEEEESH_"
  source_file: "/home/suhwa.kim/CONA_Proj/android/out/soong/.intermediates/system/libhidl/transport/manager/1.0/android.hidl.manager@1.0_genc++_headers/gen/android/hidl/manager/1.0/BnHwServiceNotification.h"
  parameters {
    basic_abi {
      type_abi {
        name: "const android::sp<android::hidl::manager::V1_0::IServiceNotification> &"
        size: 4
        alignment: 4
      }
      name: "_hidl_impl"
      access: public_access
      linker_set_key: "false"
    }
    default_arg: false
  }
  parameters {
    basic_abi {
      type_abi {
        name: "const std::basic_string<char, std::char_traits<char>, std::allocator<char> > &"
        size: 4
        alignment: 4
      }
      name: "HidlInstrumentor_package"
      access: public_access
      linker_set_key: "false"
    }
    default_arg: false
  }
  parameters {
    basic_abi {
      type_abi {
        name: "const std::basic_string<char, std::char_traits<char>, std::allocator<char> > &"
        size: 4
        alignment: 4
      }
      name: "HidlInstrumentor_interface"
      access: public_access
      linker_set_key: "false"
    }
    default_arg: false
  }
}
functions {
  basic_abi {
    type_abi {
      name: "int"
      size: 4
      alignment: 4
    }
    name: "android::hidl::manager::V1_0::BnHwServiceNotification::onTransact"
    access: public_access
    linker_set_key: "_ZN7android4hidl7manager4V1_023BnHwServiceNotification10onTransactEjRKNS_8hardware6ParcelEPS5_jNSt3__18functionIFvRS5_EEE"
  }
  mangled_function_name: "_ZN7android4hidl7manager4V1_023BnHwServiceNotification10onTransactEjRKNS_8hardware6ParcelEPS5_jNSt3__18functionIFvRS5_EEE"
  source_file: "/home/suhwa.kim/CONA_Proj/android/out/soong/.intermediates/system/libhidl/transport/manager/1.0/android.hidl.manager@1.0_genc++_headers/gen/android/hidl/manager/1.0/BnHwServiceNotification.h"
  parameters {
    basic_abi {
      type_abi {
        name: "unsigned int"
        size: 4
        alignment: 4
      }
      name: "_hidl_code"
      access: public_access
      linker_set_key: "false"
    }
    default_arg: false
  }
  parameters {
    basic_abi {
      type_abi {
        name: "const android::hardware::Parcel &"
        size: 4
        alignment: 4
      }
      name: "_hidl_data"
      access: public_access
      linker_set_key: "false"
    }
    default_arg: false
  }
  parameters {
    basic_abi {
      type_abi {
        name: "android::hardware::Parcel *"
        size: 4
        alignment: 4
      }
      name: "_hidl_reply"
      access: public_access
      linker_set_key: "false"
    }
    default_arg: false
  }
  parameters {
    basic_abi {
      type_abi {
        name: "unsigned int"
        size: 4
        alignment: 4
      }
      name: "_hidl_flags"
      access: public_access
      linker_set_key: "true"
    }
    default_arg: true
  }
  parameters {
    basic_abi {
      type_abi {
        name: "std::function<void (Parcel &)>"
        size: 24
        alignment: 8
      }
      name: "_hidl_cb"
      access: public_access
      linker_set_key: "true"
    }
    default_arg: true
  }
}
functions {
  basic_abi {
    type_abi {
      name: "android::sp<android::hidl::manager::V1_0::IServiceNotification>"
      size: 4
      alignment: 4
    }
    name: "android::hidl::manager::V1_0::BnHwServiceNotification::getImpl"
    access: public_access
    linker_set_key: "_ZN7android4hidl7manager4V1_023BnHwServiceNotification7getImplEv"
  }
  mangled_function_name: "_ZN7android4hidl7manager4V1_023BnHwServiceNotification7getImplEv"
  source_file: "/home/suhwa.kim/CONA_Proj/android/out/soong/.intermediates/system/libhidl/transport/manager/1.0/android.hidl.manager@1.0_genc++_headers/gen/android/hidl/manager/1.0/BnHwServiceNotification.h"
}
functions {
  basic_abi {
    type_abi {
      name: "android::hardware::Return<void>"
      size: 24
      alignment: 4
    }
    name: "android::hidl::manager::V1_0::BnHwServiceNotification::ping"
    access: private_access
    linker_set_key: "_ZN7android4hidl7manager4V1_023BnHwServiceNotification4pingEv"
  }
  mangled_function_name: "_ZN7android4hidl7manager4V1_023BnHwServiceNotification4pingEv"
  source_file: "/home/suhwa.kim/CONA_Proj/android/out/soong/.intermediates/system/libhidl/transport/manager/1.0/android.hidl.manager@1.0_genc++_headers/gen/android/hidl/manager/1.0/BnHwServiceNotification.h"
}
functions {
  basic_abi {
    type_abi {
      name: "android::hardware::Return<void>"
      size: 24
      alignment: 4
    }
    name: "android::hidl::manager::V1_0::BnHwServiceNotification::getDebugInfo"
    access: private_access
    linker_set_key: "_ZN7android4hidl7manager4V1_023BnHwServiceNotification12getDebugInfoENSt3__18functionIFvRKNS0_4base4V1_09DebugInfoEEEE"
  }
  mangled_function_name: "_ZN7android4hidl7manager4V1_023BnHwServiceNotification12getDebugInfoENSt3__18functionIFvRKNS0_4base4V1_09DebugInfoEEEE"
  source_file: "/home/suhwa.kim/CONA_Proj/android/out/soong/.intermediates/system/libhidl/transport/manager/1.0/android.hidl.manager@1.0_genc++_headers/gen/android/hidl/manager/1.0/BnHwServiceNotification.h"
  parameters {
    basic_abi {
      type_abi {
        name: "std::function<void (const DebugInfo &)>"
        size: 24
        alignment: 8
      }
      name: "_hidl_cb"
      access: public_access
      linker_set_key: "false"
    }
    default_arg: false
  }
}
functions {
  basic_abi {
    type_abi {
      name: "void"
    }
    name: "android::hidl::manager::V1_0::BpHwServiceNotification::BpHwServiceNotification"
    access: public_access
    linker_set_key: "_ZN7android4hidl7manager4V1_023BpHwServiceNotificationC1ERKNS_2spINS_8hardware7IBinderEEE"
  }
  mangled_function_name: "_ZN7android4hidl7manager4V1_023BpHwServiceNotificationC1ERKNS_2spINS_8hardware7IBinderEEE"
  source_file: "/home/suhwa.kim/CONA_Proj/android/out/soong/.intermediates/system/libhidl/transport/manager/1.0/android.hidl.manager@1.0_genc++_headers/gen/android/hidl/manager/1.0/BpHwServiceNotification.h"
  parameters {
    basic_abi {
      type_abi {
        name: "const android::sp<android::hardware::IBinder> &"
        size: 4
        alignment: 4
      }
      name: "_hidl_impl"
      access: public_access
      linker_set_key: "false"
    }
    default_arg: false
  }
}
functions {
  basic_abi {
    type_abi {
      name: "bool"
      size: 1
      alignment: 1
    }
    name: "android::hidl::manager::V1_0::BpHwServiceNotification::isRemote"
    access: public_access
    linker_set_key: "_ZNK7android4hidl7manager4V1_023BpHwServiceNotification8isRemoteEv"
  }
  mangled_function_name: "_ZNK7android4hidl7manager4V1_023BpHwServiceNotification8isRemoteEv"
  source_file: "/home/suhwa.kim/CONA_Proj/android/out/soong/.intermediates/system/libhidl/transport/manager/1.0/android.hidl.manager@1.0_genc++_headers/gen/android/hidl/manager/1.0/BpHwServiceNotification.h"
}
functions {
  basic_abi {
    type_abi {
      name: "android::hardware::Return<void>"
      size: 24
      alignment: 4
    }
    name: "android::hidl::manager::V1_0::BpHwServiceNotification::onRegistration"
    access: public_access
    linker_set_key: "_ZN7android4hidl7manager4V1_023BpHwServiceNotification14onRegistrationERKNS_8hardware11hidl_stringES7_b"
  }
  mangled_function_name: "_ZN7android4hidl7manager4V1_023BpHwServiceNotification14onRegistrationERKNS_8hardware11hidl_stringES7_b"
  source_file: "/home/suhwa.kim/CONA_Proj/android/out/soong/.intermediates/system/libhidl/transport/manager/1.0/android.hidl.manager@1.0_genc++_headers/gen/android/hidl/manager/1.0/BpHwServiceNotification.h"
  parameters {
    basic_abi {
      type_abi {
        name: "const android::hardware::hidl_string &"
        size: 4
        alignment: 4
      }
      name: "fqName"
      access: public_access
      linker_set_key: "false"
    }
    default_arg: false
  }
  parameters {
    basic_abi {
      type_abi {
        name: "const android::hardware::hidl_string &"
        size: 4
        alignment: 4
      }
      name: "name"
      access: public_access
      linker_set_key: "false"
    }
    default_arg: false
  }
  parameters {
    basic_abi {
      type_abi {
        name: "bool"
        size: 1
        alignment: 1
      }
      name: "preexisting"
      access: public_access
      linker_set_key: "false"
    }
    default_arg: false
  }
}
functions {
  basic_abi {
    type_abi {
      name: "android::hardware::Return<void>"
      size: 24
      alignment: 4
    }
    name: "android::hidl::manager::V1_0::BpHwServiceNotification::interfaceChain"
    access: public_access
    linker_set_key: "_ZN7android4hidl7manager4V1_023BpHwServiceNotification14interfaceChainENSt3__18functionIFvRKNS_8hardware8hidl_vecINS6_11hidl_stringEEEEEE"
  }
  mangled_function_name: "_ZN7android4hidl7manager4V1_023BpHwServiceNotification14interfaceChainENSt3__18functionIFvRKNS_8hardware8hidl_vecINS6_11hidl_stringEEEEEE"
  source_file: "/home/suhwa.kim/CONA_Proj/android/out/soong/.intermediates/system/libhidl/transport/manager/1.0/android.hidl.manager@1.0_genc++_headers/gen/android/hidl/manager/1.0/BpHwServiceNotification.h"
  parameters {
    basic_abi {
      type_abi {
        name: "std::function<void (const hidl_vec<hidl_string> &)>"
        size: 24
        alignment: 8
      }
      name: "_hidl_cb"
      access: public_access
      linker_set_key: "false"
    }
    default_arg: false
  }
}
functions {
  basic_abi {
    type_abi {
      name: "android::hardware::Return<void>"
      size: 24
      alignment: 4
    }
    name: "android::hidl::manager::V1_0::BpHwServiceNotification::debug"
    access: public_access
    linker_set_key: "_ZN7android4hidl7manager4V1_023BpHwServiceNotification5debugERKNS_8hardware11hidl_handleERKNS4_8hidl_vecINS4_11hidl_stringEEE"
  }
  mangled_function_name: "_ZN7android4hidl7manager4V1_023BpHwServiceNotification5debugERKNS_8hardware11hidl_handleERKNS4_8hidl_vecINS4_11hidl_stringEEE"
  source_file: "/home/suhwa.kim/CONA_Proj/android/out/soong/.intermediates/system/libhidl/transport/manager/1.0/android.hidl.manager@1.0_genc++_headers/gen/android/hidl/manager/1.0/BpHwServiceNotification.h"
  parameters {
    basic_abi {
      type_abi {
        name: "const android::hardware::hidl_handle &"
        size: 4
        alignment: 4
      }
      name: "fd"
      access: public_access
      linker_set_key: "false"
    }
    default_arg: false
  }
  parameters {
    basic_abi {
      type_abi {
        name: "const android::hardware::hidl_vec<android::hardware::hidl_string> &"
        size: 4
        alignment: 4
      }
      name: "options"
      access: public_access
      linker_set_key: "false"
    }
    default_arg: false
  }
}
functions {
  basic_abi {
    type_abi {
      name: "android::hardware::Return<void>"
      size: 24
      alignment: 4
    }
    name: "android::hidl::manager::V1_0::BpHwServiceNotification::interfaceDescriptor"
    access: public_access
    linker_set_key: "_ZN7android4hidl7manager4V1_023BpHwServiceNotification19interfaceDescriptorENSt3__18functionIFvRKNS_8hardware11hidl_stringEEEE"
  }
  mangled_function_name: "_ZN7android4hidl7manager4V1_023BpHwServiceNotification19interfaceDescriptorENSt3__18functionIFvRKNS_8hardware11hidl_stringEEEE"
  source_file: "/home/suhwa.kim/CONA_Proj/android/out/soong/.intermediates/system/libhidl/transport/manager/1.0/android.hidl.manager@1.0_genc++_headers/gen/android/hidl/manager/1.0/BpHwServiceNotification.h"
  parameters {
    basic_abi {
      type_abi {
        name: "std::function<void (const hidl_string &)>"
        size: 24
        alignment: 8
      }
      name: "_hidl_cb"
      access: public_access
      linker_set_key: "false"
    }
    default_arg: false
  }
}
functions {
  basic_abi {
    type_abi {
      name: "android::hardware::Return<void>"
      size: 24
      alignment: 4
    }
    name: "android::hidl::manager::V1_0::BpHwServiceNotification::getHashChain"
    access: public_access
    linker_set_key: "_ZN7android4hidl7manager4V1_023BpHwServiceNotification12getHashChainENSt3__18functionIFvRKNS_8hardware8hidl_vecINS6_10hidl_arrayIhLj32EJEEEEEEEE"
  }
  mangled_function_name: "_ZN7android4hidl7manager4V1_023BpHwServiceNotification12getHashChainENSt3__18functionIFvRKNS_8hardware8hidl_vecINS6_10hidl_arrayIhLj32EJEEEEEEEE"
  source_file: "/home/suhwa.kim/CONA_Proj/android/out/soong/.intermediates/system/libhidl/transport/manager/1.0/android.hidl.manager@1.0_genc++_headers/gen/android/hidl/manager/1.0/BpHwServiceNotification.h"
  parameters {
    basic_abi {
      type_abi {
        name: "std::function<void (const hidl_vec<hidl_array<unsigned char, 32> > &)>"
        size: 24
        alignment: 8
      }
      name: "_hidl_cb"
      access: public_access
      linker_set_key: "false"
    }
    default_arg: false
  }
}
functions {
  basic_abi {
    type_abi {
      name: "android::hardware::Return<void>"
      size: 24
      alignment: 4
    }
    name: "android::hidl::manager::V1_0::BpHwServiceNotification::setHALInstrumentation"
    access: public_access
    linker_set_key: "_ZN7android4hidl7manager4V1_023BpHwServiceNotification21setHALInstrumentationEv"
  }
  mangled_function_name: "_ZN7android4hidl7manager4V1_023BpHwServiceNotification21setHALInstrumentationEv"
  source_file: "/home/suhwa.kim/CONA_Proj/android/out/soong/.intermediates/system/libhidl/transport/manager/1.0/android.hidl.manager@1.0_genc++_headers/gen/android/hidl/manager/1.0/BpHwServiceNotification.h"
}
functions {
  basic_abi {
    type_abi {
      name: "android::hardware::Return<bool>"
      size: 24
      alignment: 4
    }
    name: "android::hidl::manager::V1_0::BpHwServiceNotification::linkToDeath"
    access: public_access
    linker_set_key: "_ZN7android4hidl7manager4V1_023BpHwServiceNotification11linkToDeathERKNS_2spINS_8hardware20hidl_death_recipientEEEy"
  }
  mangled_function_name: "_ZN7android4hidl7manager4V1_023BpHwServiceNotification11linkToDeathERKNS_2spINS_8hardware20hidl_death_recipientEEEy"
  source_file: "/home/suhwa.kim/CONA_Proj/android/out/soong/.intermediates/system/libhidl/transport/manager/1.0/android.hidl.manager@1.0_genc++_headers/gen/android/hidl/manager/1.0/BpHwServiceNotification.h"
  parameters {
    basic_abi {
      type_abi {
        name: "const android::sp<android::hardware::hidl_death_recipient> &"
        size: 4
        alignment: 4
      }
      name: "recipient"
      access: public_access
      linker_set_key: "false"
    }
    default_arg: false
  }
  parameters {
    basic_abi {
      type_abi {
        name: "unsigned long long"
        size: 8
        alignment: 8
      }
      name: "cookie"
      access: public_access
      linker_set_key: "false"
    }
    default_arg: false
  }
}
functions {
  basic_abi {
    type_abi {
      name: "android::hardware::Return<void>"
      size: 24
      alignment: 4
    }
    name: "android::hidl::manager::V1_0::BpHwServiceNotification::ping"
    access: public_access
    linker_set_key: "_ZN7android4hidl7manager4V1_023BpHwServiceNotification4pingEv"
  }
  mangled_function_name: "_ZN7android4hidl7manager4V1_023BpHwServiceNotification4pingEv"
  source_file: "/home/suhwa.kim/CONA_Proj/android/out/soong/.intermediates/system/libhidl/transport/manager/1.0/android.hidl.manager@1.0_genc++_headers/gen/android/hidl/manager/1.0/BpHwServiceNotification.h"
}
functions {
  basic_abi {
    type_abi {
      name: "android::hardware::Return<void>"
      size: 24
      alignment: 4
    }
    name: "android::hidl::manager::V1_0::BpHwServiceNotification::getDebugInfo"
    access: public_access
    linker_set_key: "_ZN7android4hidl7manager4V1_023BpHwServiceNotification12getDebugInfoENSt3__18functionIFvRKNS0_4base4V1_09DebugInfoEEEE"
  }
  mangled_function_name: "_ZN7android4hidl7manager4V1_023BpHwServiceNotification12getDebugInfoENSt3__18functionIFvRKNS0_4base4V1_09DebugInfoEEEE"
  source_file: "/home/suhwa.kim/CONA_Proj/android/out/soong/.intermediates/system/libhidl/transport/manager/1.0/android.hidl.manager@1.0_genc++_headers/gen/android/hidl/manager/1.0/BpHwServiceNotification.h"
  parameters {
    basic_abi {
      type_abi {
        name: "std::function<void (const DebugInfo &)>"
        size: 24
        alignment: 8
      }
      name: "_hidl_cb"
      access: public_access
      linker_set_key: "false"
    }
    default_arg: false
  }
}
functions {
  basic_abi {
    type_abi {
      name: "android::hardware::Return<void>"
      size: 24
      alignment: 4
    }
    name: "android::hidl::manager::V1_0::BpHwServiceNotification::notifySyspropsChanged"
    access: public_access
    linker_set_key: "_ZN7android4hidl7manager4V1_023BpHwServiceNotification21notifySyspropsChangedEv"
  }
  mangled_function_name: "_ZN7android4hidl7manager4V1_023BpHwServiceNotification21notifySyspropsChangedEv"
  source_file: "/home/suhwa.kim/CONA_Proj/android/out/soong/.intermediates/system/libhidl/transport/manager/1.0/android.hidl.manager@1.0_genc++_headers/gen/android/hidl/manager/1.0/BpHwServiceNotification.h"
}
functions {
  basic_abi {
    type_abi {
      name: "android::hardware::Return<bool>"
      size: 24
      alignment: 4
    }
    name: "android::hidl::manager::V1_0::BpHwServiceNotification::unlinkToDeath"
    access: public_access
    linker_set_key: "_ZN7android4hidl7manager4V1_023BpHwServiceNotification13unlinkToDeathERKNS_2spINS_8hardware20hidl_death_recipientEEE"
  }
  mangled_function_name: "_ZN7android4hidl7manager4V1_023BpHwServiceNotification13unlinkToDeathERKNS_2spINS_8hardware20hidl_death_recipientEEE"
  source_file: "/home/suhwa.kim/CONA_Proj/android/out/soong/.intermediates/system/libhidl/transport/manager/1.0/android.hidl.manager@1.0_genc++_headers/gen/android/hidl/manager/1.0/BpHwServiceNotification.h"
  parameters {
    basic_abi {
      type_abi {
        name: "const android::sp<android::hardware::hidl_death_recipient> &"
        size: 4
        alignment: 4
      }
      name: "recipient"
      access: public_access
      linker_set_key: "false"
    }
    default_arg: false
  }
}
functions {
  basic_abi {
    type_abi {
      name: "int"
      size: 4
      alignment: 4
    }
    name: "android::hidl::manager::V1_0::readEmbeddedFromParcel"
    access: public_access
    linker_set_key: "_ZN7android4hidl7manager4V1_022readEmbeddedFromParcelERKNS2_15IServiceManager17InstanceDebugInfoERKNS_8hardware6ParcelEjj"
  }
  mangled_function_name: "_ZN7android4hidl7manager4V1_022readEmbeddedFromParcelERKNS2_15IServiceManager17InstanceDebugInfoERKNS_8hardware6ParcelEjj"
  source_file: "/home/suhwa.kim/CONA_Proj/android/out/soong/.intermediates/system/libhidl/transport/manager/1.0/android.hidl.manager@1.0_genc++_headers/gen/android/hidl/manager/1.0/IHwServiceManager.h"
  parameters {
    basic_abi {
      type_abi {
        name: "const android::hidl::manager::V1_0::IServiceManager::InstanceDebugInfo &"
        size: 4
        alignment: 4
      }
      name: "obj"
      access: public_access
      linker_set_key: "false"
    }
    default_arg: false
  }
  parameters {
    basic_abi {
      type_abi {
        name: "const android::hardware::Parcel &"
        size: 4
        alignment: 4
      }
      name: "parcel"
      access: public_access
      linker_set_key: "false"
    }
    default_arg: false
  }
  parameters {
    basic_abi {
      type_abi {
        name: "unsigned int"
        size: 4
        alignment: 4
      }
      name: "parentHandle"
      access: public_access
      linker_set_key: "false"
    }
    default_arg: false
  }
  parameters {
    basic_abi {
      type_abi {
        name: "unsigned int"
        size: 4
        alignment: 4
      }
      name: "parentOffset"
      access: public_access
      linker_set_key: "false"
    }
    default_arg: false
  }
}
functions {
  basic_abi {
    type_abi {
      name: "int"
      size: 4
      alignment: 4
    }
    name: "android::hidl::manager::V1_0::writeEmbeddedToParcel"
    access: public_access
    linker_set_key: "_ZN7android4hidl7manager4V1_021writeEmbeddedToParcelERKNS2_15IServiceManager17InstanceDebugInfoEPNS_8hardware6ParcelEjj"
  }
  mangled_function_name: "_ZN7android4hidl7manager4V1_021writeEmbeddedToParcelERKNS2_15IServiceManager17InstanceDebugInfoEPNS_8hardware6ParcelEjj"
  source_file: "/home/suhwa.kim/CONA_Proj/android/out/soong/.intermediates/system/libhidl/transport/manager/1.0/android.hidl.manager@1.0_genc++_headers/gen/android/hidl/manager/1.0/IHwServiceManager.h"
  parameters {
    basic_abi {
      type_abi {
        name: "const android::hidl::manager::V1_0::IServiceManager::InstanceDebugInfo &"
        size: 4
        alignment: 4
      }
      name: "obj"
      access: public_access
      linker_set_key: "false"
    }
    default_arg: false
  }
  parameters {
    basic_abi {
      type_abi {
        name: "android::hardware::Parcel *"
        size: 4
        alignment: 4
      }
      name: "parcel"
      access: public_access
      linker_set_key: "false"
    }
    default_arg: false
  }
  parameters {
    basic_abi {
      type_abi {
        name: "unsigned int"
        size: 4
        alignment: 4
      }
      name: "parentHandle"
      access: public_access
      linker_set_key: "false"
    }
    default_arg: false
  }
  parameters {
    basic_abi {
      type_abi {
        name: "unsigned int"
        size: 4
        alignment: 4
      }
      name: "parentOffset"
      access: public_access
      linker_set_key: "false"
    }
    default_arg: false
  }
}
functions {
  basic_abi {
    type_abi {
      name: "void"
    }
    name: "android::hidl::manager::V1_0::BpHwServiceManager::BpHwServiceManager"
    access: public_access
    linker_set_key: "_ZN7android4hidl7manager4V1_018BpHwServiceManagerC1ERKNS_2spINS_8hardware7IBinderEEE"
  }
  mangled_function_name: "_ZN7android4hidl7manager4V1_018BpHwServiceManagerC1ERKNS_2spINS_8hardware7IBinderEEE"
  source_file: "/home/suhwa.kim/CONA_Proj/android/out/soong/.intermediates/system/libhidl/transport/manager/1.0/android.hidl.manager@1.0_genc++_headers/gen/android/hidl/manager/1.0/BpHwServiceManager.h"
  parameters {
    basic_abi {
      type_abi {
        name: "const android::sp<android::hardware::IBinder> &"
        size: 4
        alignment: 4
      }
      name: "_hidl_impl"
      access: public_access
      linker_set_key: "false"
    }
    default_arg: false
  }
}
functions {
  basic_abi {
    type_abi {
      name: "bool"
      size: 1
      alignment: 1
    }
    name: "android::hidl::manager::V1_0::BpHwServiceManager::isRemote"
    access: public_access
    linker_set_key: "_ZNK7android4hidl7manager4V1_018BpHwServiceManager8isRemoteEv"
  }
  mangled_function_name: "_ZNK7android4hidl7manager4V1_018BpHwServiceManager8isRemoteEv"
  source_file: "/home/suhwa.kim/CONA_Proj/android/out/soong/.intermediates/system/libhidl/transport/manager/1.0/android.hidl.manager@1.0_genc++_headers/gen/android/hidl/manager/1.0/BpHwServiceManager.h"
}
functions {
  basic_abi {
    type_abi {
      name: "android::hardware::Return<android::sp<android::hidl::base::V1_0::IBase> >"
      size: 28
      alignment: 4
    }
    name: "android::hidl::manager::V1_0::BpHwServiceManager::get"
    access: public_access
    linker_set_key: "_ZN7android4hidl7manager4V1_018BpHwServiceManager3getERKNS_8hardware11hidl_stringES7_"
  }
  mangled_function_name: "_ZN7android4hidl7manager4V1_018BpHwServiceManager3getERKNS_8hardware11hidl_stringES7_"
  source_file: "/home/suhwa.kim/CONA_Proj/android/out/soong/.intermediates/system/libhidl/transport/manager/1.0/android.hidl.manager@1.0_genc++_headers/gen/android/hidl/manager/1.0/BpHwServiceManager.h"
  parameters {
    basic_abi {
      type_abi {
        name: "const android::hardware::hidl_string &"
        size: 4
        alignment: 4
      }
      name: "fqName"
      access: public_access
      linker_set_key: "false"
    }
    default_arg: false
  }
  parameters {
    basic_abi {
      type_abi {
        name: "const android::hardware::hidl_string &"
        size: 4
        alignment: 4
      }
      name: "name"
      access: public_access
      linker_set_key: "false"
    }
    default_arg: false
  }
}
functions {
  basic_abi {
    type_abi {
      name: "android::hardware::Return<bool>"
      size: 24
      alignment: 4
    }
    name: "android::hidl::manager::V1_0::BpHwServiceManager::add"
    access: public_access
    linker_set_key: "_ZN7android4hidl7manager4V1_018BpHwServiceManager3addERKNS_8hardware11hidl_stringERKNS_2spINS0_4base4V1_05IBaseEEE"
  }
  mangled_function_name: "_ZN7android4hidl7manager4V1_018BpHwServiceManager3addERKNS_8hardware11hidl_stringERKNS_2spINS0_4base4V1_05IBaseEEE"
  source_file: "/home/suhwa.kim/CONA_Proj/android/out/soong/.intermediates/system/libhidl/transport/manager/1.0/android.hidl.manager@1.0_genc++_headers/gen/android/hidl/manager/1.0/BpHwServiceManager.h"
  parameters {
    basic_abi {
      type_abi {
        name: "const android::hardware::hidl_string &"
        size: 4
        alignment: 4
      }
      name: "name"
      access: public_access
      linker_set_key: "false"
    }
    default_arg: false
  }
  parameters {
    basic_abi {
      type_abi {
        name: "const android::sp<android::hidl::base::V1_0::IBase> &"
        size: 4
        alignment: 4
      }
      name: "service"
      access: public_access
      linker_set_key: "false"
    }
    default_arg: false
  }
}
functions {
  basic_abi {
    type_abi {
      name: "android::hardware::Return<android::hidl::manager::V1_0::IServiceManager::Transport>"
      size: 24
      alignment: 4
    }
    name: "android::hidl::manager::V1_0::BpHwServiceManager::getTransport"
    access: public_access
    linker_set_key: "_ZN7android4hidl7manager4V1_018BpHwServiceManager12getTransportERKNS_8hardware11hidl_stringES7_"
  }
  mangled_function_name: "_ZN7android4hidl7manager4V1_018BpHwServiceManager12getTransportERKNS_8hardware11hidl_stringES7_"
  source_file: "/home/suhwa.kim/CONA_Proj/android/out/soong/.intermediates/system/libhidl/transport/manager/1.0/android.hidl.manager@1.0_genc++_headers/gen/android/hidl/manager/1.0/BpHwServiceManager.h"
  parameters {
    basic_abi {
      type_abi {
        name: "const android::hardware::hidl_string &"
        size: 4
        alignment: 4
      }
      name: "fqName"
      access: public_access
      linker_set_key: "false"
    }
    default_arg: false
  }
  parameters {
    basic_abi {
      type_abi {
        name: "const android::hardware::hidl_string &"
        size: 4
        alignment: 4
      }
      name: "name"
      access: public_access
      linker_set_key: "false"
    }
    default_arg: false
  }
}
functions {
  basic_abi {
    type_abi {
      name: "android::hardware::Return<void>"
      size: 24
      alignment: 4
    }
    name: "android::hidl::manager::V1_0::BpHwServiceManager::list"
    access: public_access
    linker_set_key: "_ZN7android4hidl7manager4V1_018BpHwServiceManager4listENSt3__18functionIFvRKNS_8hardware8hidl_vecINS6_11hidl_stringEEEEEE"
  }
  mangled_function_name: "_ZN7android4hidl7manager4V1_018BpHwServiceManager4listENSt3__18functionIFvRKNS_8hardware8hidl_vecINS6_11hidl_stringEEEEEE"
  source_file: "/home/suhwa.kim/CONA_Proj/android/out/soong/.intermediates/system/libhidl/transport/manager/1.0/android.hidl.manager@1.0_genc++_headers/gen/android/hidl/manager/1.0/BpHwServiceManager.h"
  parameters {
    basic_abi {
      type_abi {
        name: "std::function<void (const hidl_vec<hidl_string> &)>"
        size: 24
        alignment: 8
      }
      name: "_hidl_cb"
      access: public_access
      linker_set_key: "false"
    }
    default_arg: false
  }
}
functions {
  basic_abi {
    type_abi {
      name: "android::hardware::Return<void>"
      size: 24
      alignment: 4
    }
    name: "android::hidl::manager::V1_0::BpHwServiceManager::listByInterface"
    access: public_access
    linker_set_key: "_ZN7android4hidl7manager4V1_018BpHwServiceManager15listByInterfaceERKNS_8hardware11hidl_stringENSt3__18functionIFvRKNS4_8hidl_vecIS5_EEEEE"
  }
  mangled_function_name: "_ZN7android4hidl7manager4V1_018BpHwServiceManager15listByInterfaceERKNS_8hardware11hidl_stringENSt3__18functionIFvRKNS4_8hidl_vecIS5_EEEEE"
  source_file: "/home/suhwa.kim/CONA_Proj/android/out/soong/.intermediates/system/libhidl/transport/manager/1.0/android.hidl.manager@1.0_genc++_headers/gen/android/hidl/manager/1.0/BpHwServiceManager.h"
  parameters {
    basic_abi {
      type_abi {
        name: "const android::hardware::hidl_string &"
        size: 4
        alignment: 4
      }
      name: "fqName"
      access: public_access
      linker_set_key: "false"
    }
    default_arg: false
  }
  parameters {
    basic_abi {
      type_abi {
        name: "std::function<void (const hidl_vec<hidl_string> &)>"
        size: 24
        alignment: 8
      }
      name: "_hidl_cb"
      access: public_access
      linker_set_key: "false"
    }
    default_arg: false
  }
}
functions {
  basic_abi {
    type_abi {
      name: "android::hardware::Return<bool>"
      size: 24
      alignment: 4
    }
    name: "android::hidl::manager::V1_0::BpHwServiceManager::registerForNotifications"
    access: public_access
    linker_set_key: "_ZN7android4hidl7manager4V1_018BpHwServiceManager24registerForNotificationsERKNS_8hardware11hidl_stringES7_RKNS_2spINS2_20IServiceNotificationEEE"
  }
  mangled_function_name: "_ZN7android4hidl7manager4V1_018BpHwServiceManager24registerForNotificationsERKNS_8hardware11hidl_stringES7_RKNS_2spINS2_20IServiceNotificationEEE"
  source_file: "/home/suhwa.kim/CONA_Proj/android/out/soong/.intermediates/system/libhidl/transport/manager/1.0/android.hidl.manager@1.0_genc++_headers/gen/android/hidl/manager/1.0/BpHwServiceManager.h"
  parameters {
    basic_abi {
      type_abi {
        name: "const android::hardware::hidl_string &"
        size: 4
        alignment: 4
      }
      name: "fqName"
      access: public_access
      linker_set_key: "false"
    }
    default_arg: false
  }
  parameters {
    basic_abi {
      type_abi {
        name: "const android::hardware::hidl_string &"
        size: 4
        alignment: 4
      }
      name: "name"
      access: public_access
      linker_set_key: "false"
    }
    default_arg: false
  }
  parameters {
    basic_abi {
      type_abi {
        name: "const android::sp<android::hidl::manager::V1_0::IServiceNotification> &"
        size: 4
        alignment: 4
      }
      name: "callback"
      access: public_access
      linker_set_key: "false"
    }
    default_arg: false
  }
}
functions {
  basic_abi {
    type_abi {
      name: "android::hardware::Return<void>"
      size: 24
      alignment: 4
    }
    name: "android::hidl::manager::V1_0::BpHwServiceManager::debugDump"
    access: public_access
    linker_set_key: "_ZN7android4hidl7manager4V1_018BpHwServiceManager9debugDumpENSt3__18functionIFvRKNS_8hardware8hidl_vecINS2_15IServiceManager17InstanceDebugInfoEEEEEE"
  }
  mangled_function_name: "_ZN7android4hidl7manager4V1_018BpHwServiceManager9debugDumpENSt3__18functionIFvRKNS_8hardware8hidl_vecINS2_15IServiceManager17InstanceDebugInfoEEEEEE"
  source_file: "/home/suhwa.kim/CONA_Proj/android/out/soong/.intermediates/system/libhidl/transport/manager/1.0/android.hidl.manager@1.0_genc++_headers/gen/android/hidl/manager/1.0/BpHwServiceManager.h"
  parameters {
    basic_abi {
      type_abi {
        name: "std::function<void (const hidl_vec<InstanceDebugInfo> &)>"
        size: 24
        alignment: 8
      }
      name: "_hidl_cb"
      access: public_access
      linker_set_key: "false"
    }
    default_arg: false
  }
}
functions {
  basic_abi {
    type_abi {
      name: "android::hardware::Return<void>"
      size: 24
      alignment: 4
    }
    name: "android::hidl::manager::V1_0::BpHwServiceManager::registerPassthroughClient"
    access: public_access
    linker_set_key: "_ZN7android4hidl7manager4V1_018BpHwServiceManager25registerPassthroughClientERKNS_8hardware11hidl_stringES7_"
  }
  mangled_function_name: "_ZN7android4hidl7manager4V1_018BpHwServiceManager25registerPassthroughClientERKNS_8hardware11hidl_stringES7_"
  source_file: "/home/suhwa.kim/CONA_Proj/android/out/soong/.intermediates/system/libhidl/transport/manager/1.0/android.hidl.manager@1.0_genc++_headers/gen/android/hidl/manager/1.0/BpHwServiceManager.h"
  parameters {
    basic_abi {
      type_abi {
        name: "const android::hardware::hidl_string &"
        size: 4
        alignment: 4
      }
      name: "fqName"
      access: public_access
      linker_set_key: "false"
    }
    default_arg: false
  }
  parameters {
    basic_abi {
      type_abi {
        name: "const android::hardware::hidl_string &"
        size: 4
        alignment: 4
      }
      name: "name"
      access: public_access
      linker_set_key: "false"
    }
    default_arg: false
  }
}
functions {
  basic_abi {
    type_abi {
      name: "android::hardware::Return<void>"
      size: 24
      alignment: 4
    }
    name: "android::hidl::manager::V1_0::BpHwServiceManager::interfaceChain"
    access: public_access
    linker_set_key: "_ZN7android4hidl7manager4V1_018BpHwServiceManager14interfaceChainENSt3__18functionIFvRKNS_8hardware8hidl_vecINS6_11hidl_stringEEEEEE"
  }
  mangled_function_name: "_ZN7android4hidl7manager4V1_018BpHwServiceManager14interfaceChainENSt3__18functionIFvRKNS_8hardware8hidl_vecINS6_11hidl_stringEEEEEE"
  source_file: "/home/suhwa.kim/CONA_Proj/android/out/soong/.intermediates/system/libhidl/transport/manager/1.0/android.hidl.manager@1.0_genc++_headers/gen/android/hidl/manager/1.0/BpHwServiceManager.h"
  parameters {
    basic_abi {
      type_abi {
        name: "std::function<void (const hidl_vec<hidl_string> &)>"
        size: 24
        alignment: 8
      }
      name: "_hidl_cb"
      access: public_access
      linker_set_key: "false"
    }
    default_arg: false
  }
}
functions {
  basic_abi {
    type_abi {
      name: "android::hardware::Return<void>"
      size: 24
      alignment: 4
    }
    name: "android::hidl::manager::V1_0::BpHwServiceManager::debug"
    access: public_access
    linker_set_key: "_ZN7android4hidl7manager4V1_018BpHwServiceManager5debugERKNS_8hardware11hidl_handleERKNS4_8hidl_vecINS4_11hidl_stringEEE"
  }
  mangled_function_name: "_ZN7android4hidl7manager4V1_018BpHwServiceManager5debugERKNS_8hardware11hidl_handleERKNS4_8hidl_vecINS4_11hidl_stringEEE"
  source_file: "/home/suhwa.kim/CONA_Proj/android/out/soong/.intermediates/system/libhidl/transport/manager/1.0/android.hidl.manager@1.0_genc++_headers/gen/android/hidl/manager/1.0/BpHwServiceManager.h"
  parameters {
    basic_abi {
      type_abi {
        name: "const android::hardware::hidl_handle &"
        size: 4
        alignment: 4
      }
      name: "fd"
      access: public_access
      linker_set_key: "false"
    }
    default_arg: false
  }
  parameters {
    basic_abi {
      type_abi {
        name: "const android::hardware::hidl_vec<android::hardware::hidl_string> &"
        size: 4
        alignment: 4
      }
      name: "options"
      access: public_access
      linker_set_key: "false"
    }
    default_arg: false
  }
}
functions {
  basic_abi {
    type_abi {
      name: "android::hardware::Return<void>"
      size: 24
      alignment: 4
    }
    name: "android::hidl::manager::V1_0::BpHwServiceManager::interfaceDescriptor"
    access: public_access
    linker_set_key: "_ZN7android4hidl7manager4V1_018BpHwServiceManager19interfaceDescriptorENSt3__18functionIFvRKNS_8hardware11hidl_stringEEEE"
  }
  mangled_function_name: "_ZN7android4hidl7manager4V1_018BpHwServiceManager19interfaceDescriptorENSt3__18functionIFvRKNS_8hardware11hidl_stringEEEE"
  source_file: "/home/suhwa.kim/CONA_Proj/android/out/soong/.intermediates/system/libhidl/transport/manager/1.0/android.hidl.manager@1.0_genc++_headers/gen/android/hidl/manager/1.0/BpHwServiceManager.h"
  parameters {
    basic_abi {
      type_abi {
        name: "std::function<void (const hidl_string &)>"
        size: 24
        alignment: 8
      }
      name: "_hidl_cb"
      access: public_access
      linker_set_key: "false"
    }
    default_arg: false
  }
}
functions {
  basic_abi {
    type_abi {
      name: "android::hardware::Return<void>"
      size: 24
      alignment: 4
    }
    name: "android::hidl::manager::V1_0::BpHwServiceManager::getHashChain"
    access: public_access
    linker_set_key: "_ZN7android4hidl7manager4V1_018BpHwServiceManager12getHashChainENSt3__18functionIFvRKNS_8hardware8hidl_vecINS6_10hidl_arrayIhLj32EJEEEEEEEE"
  }
  mangled_function_name: "_ZN7android4hidl7manager4V1_018BpHwServiceManager12getHashChainENSt3__18functionIFvRKNS_8hardware8hidl_vecINS6_10hidl_arrayIhLj32EJEEEEEEEE"
  source_file: "/home/suhwa.kim/CONA_Proj/android/out/soong/.intermediates/system/libhidl/transport/manager/1.0/android.hidl.manager@1.0_genc++_headers/gen/android/hidl/manager/1.0/BpHwServiceManager.h"
  parameters {
    basic_abi {
      type_abi {
        name: "std::function<void (const hidl_vec<hidl_array<unsigned char, 32> > &)>"
        size: 24
        alignment: 8
      }
      name: "_hidl_cb"
      access: public_access
      linker_set_key: "false"
    }
    default_arg: false
  }
}
functions {
  basic_abi {
    type_abi {
      name: "android::hardware::Return<void>"
      size: 24
      alignment: 4
    }
    name: "android::hidl::manager::V1_0::BpHwServiceManager::setHALInstrumentation"
    access: public_access
    linker_set_key: "_ZN7android4hidl7manager4V1_018BpHwServiceManager21setHALInstrumentationEv"
  }
  mangled_function_name: "_ZN7android4hidl7manager4V1_018BpHwServiceManager21setHALInstrumentationEv"
  source_file: "/home/suhwa.kim/CONA_Proj/android/out/soong/.intermediates/system/libhidl/transport/manager/1.0/android.hidl.manager@1.0_genc++_headers/gen/android/hidl/manager/1.0/BpHwServiceManager.h"
}
functions {
  basic_abi {
    type_abi {
      name: "android::hardware::Return<bool>"
      size: 24
      alignment: 4
    }
    name: "android::hidl::manager::V1_0::BpHwServiceManager::linkToDeath"
    access: public_access
    linker_set_key: "_ZN7android4hidl7manager4V1_018BpHwServiceManager11linkToDeathERKNS_2spINS_8hardware20hidl_death_recipientEEEy"
  }
  mangled_function_name: "_ZN7android4hidl7manager4V1_018BpHwServiceManager11linkToDeathERKNS_2spINS_8hardware20hidl_death_recipientEEEy"
  source_file: "/home/suhwa.kim/CONA_Proj/android/out/soong/.intermediates/system/libhidl/transport/manager/1.0/android.hidl.manager@1.0_genc++_headers/gen/android/hidl/manager/1.0/BpHwServiceManager.h"
  parameters {
    basic_abi {
      type_abi {
        name: "const android::sp<android::hardware::hidl_death_recipient> &"
        size: 4
        alignment: 4
      }
      name: "recipient"
      access: public_access
      linker_set_key: "false"
    }
    default_arg: false
  }
  parameters {
    basic_abi {
      type_abi {
        name: "unsigned long long"
        size: 8
        alignment: 8
      }
      name: "cookie"
      access: public_access
      linker_set_key: "false"
    }
    default_arg: false
  }
}
functions {
  basic_abi {
    type_abi {
      name: "android::hardware::Return<void>"
      size: 24
      alignment: 4
    }
    name: "android::hidl::manager::V1_0::BpHwServiceManager::ping"
    access: public_access
    linker_set_key: "_ZN7android4hidl7manager4V1_018BpHwServiceManager4pingEv"
  }
  mangled_function_name: "_ZN7android4hidl7manager4V1_018BpHwServiceManager4pingEv"
  source_file: "/home/suhwa.kim/CONA_Proj/android/out/soong/.intermediates/system/libhidl/transport/manager/1.0/android.hidl.manager@1.0_genc++_headers/gen/android/hidl/manager/1.0/BpHwServiceManager.h"
}
functions {
  basic_abi {
    type_abi {
      name: "android::hardware::Return<void>"
      size: 24
      alignment: 4
    }
    name: "android::hidl::manager::V1_0::BpHwServiceManager::getDebugInfo"
    access: public_access
    linker_set_key: "_ZN7android4hidl7manager4V1_018BpHwServiceManager12getDebugInfoENSt3__18functionIFvRKNS0_4base4V1_09DebugInfoEEEE"
  }
  mangled_function_name: "_ZN7android4hidl7manager4V1_018BpHwServiceManager12getDebugInfoENSt3__18functionIFvRKNS0_4base4V1_09DebugInfoEEEE"
  source_file: "/home/suhwa.kim/CONA_Proj/android/out/soong/.intermediates/system/libhidl/transport/manager/1.0/android.hidl.manager@1.0_genc++_headers/gen/android/hidl/manager/1.0/BpHwServiceManager.h"
  parameters {
    basic_abi {
      type_abi {
        name: "std::function<void (const DebugInfo &)>"
        size: 24
        alignment: 8
      }
      name: "_hidl_cb"
      access: public_access
      linker_set_key: "false"
    }
    default_arg: false
  }
}
functions {
  basic_abi {
    type_abi {
      name: "android::hardware::Return<void>"
      size: 24
      alignment: 4
    }
    name: "android::hidl::manager::V1_0::BpHwServiceManager::notifySyspropsChanged"
    access: public_access
    linker_set_key: "_ZN7android4hidl7manager4V1_018BpHwServiceManager21notifySyspropsChangedEv"
  }
  mangled_function_name: "_ZN7android4hidl7manager4V1_018BpHwServiceManager21notifySyspropsChangedEv"
  source_file: "/home/suhwa.kim/CONA_Proj/android/out/soong/.intermediates/system/libhidl/transport/manager/1.0/android.hidl.manager@1.0_genc++_headers/gen/android/hidl/manager/1.0/BpHwServiceManager.h"
}
functions {
  basic_abi {
    type_abi {
      name: "android::hardware::Return<bool>"
      size: 24
      alignment: 4
    }
    name: "android::hidl::manager::V1_0::BpHwServiceManager::unlinkToDeath"
    access: public_access
    linker_set_key: "_ZN7android4hidl7manager4V1_018BpHwServiceManager13unlinkToDeathERKNS_2spINS_8hardware20hidl_death_recipientEEE"
  }
  mangled_function_name: "_ZN7android4hidl7manager4V1_018BpHwServiceManager13unlinkToDeathERKNS_2spINS_8hardware20hidl_death_recipientEEE"
  source_file: "/home/suhwa.kim/CONA_Proj/android/out/soong/.intermediates/system/libhidl/transport/manager/1.0/android.hidl.manager@1.0_genc++_headers/gen/android/hidl/manager/1.0/BpHwServiceManager.h"
  parameters {
    basic_abi {
      type_abi {
        name: "const android::sp<android::hardware::hidl_death_recipient> &"
        size: 4
        alignment: 4
      }
      name: "recipient"
      access: public_access
      linker_set_key: "false"
    }
    default_arg: false
  }
}
functions {
  basic_abi {
    type_abi {
      name: "void"
    }
    name: "android::hidl::manager::V1_0::BnHwServiceManager::BnHwServiceManager"
    access: public_access
    linker_set_key: "_ZN7android4hidl7manager4V1_018BnHwServiceManagerC1ERKNS_2spINS2_15IServiceManagerEEE"
  }
  mangled_function_name: "_ZN7android4hidl7manager4V1_018BnHwServiceManagerC1ERKNS_2spINS2_15IServiceManagerEEE"
  source_file: "/home/suhwa.kim/CONA_Proj/android/out/soong/.intermediates/system/libhidl/transport/manager/1.0/android.hidl.manager@1.0_genc++_headers/gen/android/hidl/manager/1.0/BnHwServiceManager.h"
  parameters {
    basic_abi {
      type_abi {
        name: "const android::sp<android::hidl::manager::V1_0::IServiceManager> &"
        size: 4
        alignment: 4
      }
      name: "_hidl_impl"
      access: public_access
      linker_set_key: "false"
    }
    default_arg: false
  }
}
functions {
  basic_abi {
    type_abi {
      name: "void"
    }
    name: "android::hidl::manager::V1_0::BnHwServiceManager::BnHwServiceManager"
    access: public_access
    linker_set_key: "_ZN7android4hidl7manager4V1_018BnHwServiceManagerC1ERKNS_2spINS2_15IServiceManagerEEERKNSt3__112basic_stringIcNS9_11char_traitsIcEENS9_9allocatorIcEEEESH_"
  }
  mangled_function_name: "_ZN7android4hidl7manager4V1_018BnHwServiceManagerC1ERKNS_2spINS2_15IServiceManagerEEERKNSt3__112basic_stringIcNS9_11char_traitsIcEENS9_9allocatorIcEEEESH_"
  source_file: "/home/suhwa.kim/CONA_Proj/android/out/soong/.intermediates/system/libhidl/transport/manager/1.0/android.hidl.manager@1.0_genc++_headers/gen/android/hidl/manager/1.0/BnHwServiceManager.h"
  parameters {
    basic_abi {
      type_abi {
        name: "const android::sp<android::hidl::manager::V1_0::IServiceManager> &"
        size: 4
        alignment: 4
      }
      name: "_hidl_impl"
      access: public_access
      linker_set_key: "false"
    }
    default_arg: false
  }
  parameters {
    basic_abi {
      type_abi {
        name: "const std::basic_string<char, std::char_traits<char>, std::allocator<char> > &"
        size: 4
        alignment: 4
      }
      name: "HidlInstrumentor_package"
      access: public_access
      linker_set_key: "false"
    }
    default_arg: false
  }
  parameters {
    basic_abi {
      type_abi {
        name: "const std::basic_string<char, std::char_traits<char>, std::allocator<char> > &"
        size: 4
        alignment: 4
      }
      name: "HidlInstrumentor_interface"
      access: public_access
      linker_set_key: "false"
    }
    default_arg: false
  }
}
functions {
  basic_abi {
    type_abi {
      name: "int"
      size: 4
      alignment: 4
    }
    name: "android::hidl::manager::V1_0::BnHwServiceManager::onTransact"
    access: public_access
    linker_set_key: "_ZN7android4hidl7manager4V1_018BnHwServiceManager10onTransactEjRKNS_8hardware6ParcelEPS5_jNSt3__18functionIFvRS5_EEE"
  }
  mangled_function_name: "_ZN7android4hidl7manager4V1_018BnHwServiceManager10onTransactEjRKNS_8hardware6ParcelEPS5_jNSt3__18functionIFvRS5_EEE"
  source_file: "/home/suhwa.kim/CONA_Proj/android/out/soong/.intermediates/system/libhidl/transport/manager/1.0/android.hidl.manager@1.0_genc++_headers/gen/android/hidl/manager/1.0/BnHwServiceManager.h"
  parameters {
    basic_abi {
      type_abi {
        name: "unsigned int"
        size: 4
        alignment: 4
      }
      name: "_hidl_code"
      access: public_access
      linker_set_key: "false"
    }
    default_arg: false
  }
  parameters {
    basic_abi {
      type_abi {
        name: "const android::hardware::Parcel &"
        size: 4
        alignment: 4
      }
      name: "_hidl_data"
      access: public_access
      linker_set_key: "false"
    }
    default_arg: false
  }
  parameters {
    basic_abi {
      type_abi {
        name: "android::hardware::Parcel *"
        size: 4
        alignment: 4
      }
      name: "_hidl_reply"
      access: public_access
      linker_set_key: "false"
    }
    default_arg: false
  }
  parameters {
    basic_abi {
      type_abi {
        name: "unsigned int"
        size: 4
        alignment: 4
      }
      name: "_hidl_flags"
      access: public_access
      linker_set_key: "true"
    }
    default_arg: true
  }
  parameters {
    basic_abi {
      type_abi {
        name: "std::function<void (Parcel &)>"
        size: 24
        alignment: 8
      }
      name: "_hidl_cb"
      access: public_access
      linker_set_key: "true"
    }
    default_arg: true
  }
}
functions {
  basic_abi {
    type_abi {
      name: "android::sp<android::hidl::manager::V1_0::IServiceManager>"
      size: 4
      alignment: 4
    }
    name: "android::hidl::manager::V1_0::BnHwServiceManager::getImpl"
    access: public_access
    linker_set_key: "_ZN7android4hidl7manager4V1_018BnHwServiceManager7getImplEv"
  }
  mangled_function_name: "_ZN7android4hidl7manager4V1_018BnHwServiceManager7getImplEv"
  source_file: "/home/suhwa.kim/CONA_Proj/android/out/soong/.intermediates/system/libhidl/transport/manager/1.0/android.hidl.manager@1.0_genc++_headers/gen/android/hidl/manager/1.0/BnHwServiceManager.h"
}
functions {
  basic_abi {
    type_abi {
      name: "android::hardware::Return<void>"
      size: 24
      alignment: 4
    }
    name: "android::hidl::manager::V1_0::BnHwServiceManager::ping"
    access: private_access
    linker_set_key: "_ZN7android4hidl7manager4V1_018BnHwServiceManager4pingEv"
  }
  mangled_function_name: "_ZN7android4hidl7manager4V1_018BnHwServiceManager4pingEv"
  source_file: "/home/suhwa.kim/CONA_Proj/android/out/soong/.intermediates/system/libhidl/transport/manager/1.0/android.hidl.manager@1.0_genc++_headers/gen/android/hidl/manager/1.0/BnHwServiceManager.h"
}
functions {
  basic_abi {
    type_abi {
      name: "android::hardware::Return<void>"
      size: 24
      alignment: 4
    }
    name: "android::hidl::manager::V1_0::BnHwServiceManager::getDebugInfo"
    access: private_access
    linker_set_key: "_ZN7android4hidl7manager4V1_018BnHwServiceManager12getDebugInfoENSt3__18functionIFvRKNS0_4base4V1_09DebugInfoEEEE"
  }
  mangled_function_name: "_ZN7android4hidl7manager4V1_018BnHwServiceManager12getDebugInfoENSt3__18functionIFvRKNS0_4base4V1_09DebugInfoEEEE"
  source_file: "/home/suhwa.kim/CONA_Proj/android/out/soong/.intermediates/system/libhidl/transport/manager/1.0/android.hidl.manager@1.0_genc++_headers/gen/android/hidl/manager/1.0/BnHwServiceManager.h"
  parameters {
    basic_abi {
      type_abi {
        name: "std::function<void (const DebugInfo &)>"
        size: 24
        alignment: 8
      }
      name: "_hidl_cb"
      access: public_access
      linker_set_key: "false"
    }
    default_arg: false
  }
}
functions {
  basic_abi {
    type_abi {
      name: "void"
    }
    name: "android::hidl::manager::V1_0::BsServiceManager::BsServiceManager"
    access: public_access
    linker_set_key: "_ZN7android4hidl7manager4V1_016BsServiceManagerC1ENS_2spINS2_15IServiceManagerEEE"
  }
  mangled_function_name: "_ZN7android4hidl7manager4V1_016BsServiceManagerC1ENS_2spINS2_15IServiceManagerEEE"
  source_file: "/home/suhwa.kim/CONA_Proj/android/out/soong/.intermediates/system/libhidl/transport/manager/1.0/android.hidl.manager@1.0_genc++_headers/gen/android/hidl/manager/1.0/BsServiceManager.h"
  parameters {
    basic_abi {
      type_abi {
        name: "const android::sp<android::hidl::manager::V1_0::IServiceManager>"
        size: 4
        alignment: 4
      }
      name: "impl"
      access: public_access
      linker_set_key: "false"
    }
    default_arg: false
  }
}
functions {
  basic_abi {
    type_abi {
      name: "android::hardware::Return<android::sp<android::hidl::base::V1_0::IBase> >"
      size: 28
      alignment: 4
    }
    name: "android::hidl::manager::V1_0::BsServiceManager::get"
    access: public_access
    linker_set_key: "_ZN7android4hidl7manager4V1_016BsServiceManager3getERKNS_8hardware11hidl_stringES7_"
  }
  mangled_function_name: "_ZN7android4hidl7manager4V1_016BsServiceManager3getERKNS_8hardware11hidl_stringES7_"
  source_file: "/home/suhwa.kim/CONA_Proj/android/out/soong/.intermediates/system/libhidl/transport/manager/1.0/android.hidl.manager@1.0_genc++_headers/gen/android/hidl/manager/1.0/BsServiceManager.h"
  parameters {
    basic_abi {
      type_abi {
        name: "const android::hardware::hidl_string &"
        size: 4
        alignment: 4
      }
      name: "fqName"
      access: public_access
      linker_set_key: "false"
    }
    default_arg: false
  }
  parameters {
    basic_abi {
      type_abi {
        name: "const android::hardware::hidl_string &"
        size: 4
        alignment: 4
      }
      name: "name"
      access: public_access
      linker_set_key: "false"
    }
    default_arg: false
  }
}
functions {
  basic_abi {
    type_abi {
      name: "android::hardware::Return<bool>"
      size: 24
      alignment: 4
    }
    name: "android::hidl::manager::V1_0::BsServiceManager::add"
    access: public_access
    linker_set_key: "_ZN7android4hidl7manager4V1_016BsServiceManager3addERKNS_8hardware11hidl_stringERKNS_2spINS0_4base4V1_05IBaseEEE"
  }
  mangled_function_name: "_ZN7android4hidl7manager4V1_016BsServiceManager3addERKNS_8hardware11hidl_stringERKNS_2spINS0_4base4V1_05IBaseEEE"
  source_file: "/home/suhwa.kim/CONA_Proj/android/out/soong/.intermediates/system/libhidl/transport/manager/1.0/android.hidl.manager@1.0_genc++_headers/gen/android/hidl/manager/1.0/BsServiceManager.h"
  parameters {
    basic_abi {
      type_abi {
        name: "const android::hardware::hidl_string &"
        size: 4
        alignment: 4
      }
      name: "name"
      access: public_access
      linker_set_key: "false"
    }
    default_arg: false
  }
  parameters {
    basic_abi {
      type_abi {
        name: "const android::sp<android::hidl::base::V1_0::IBase> &"
        size: 4
        alignment: 4
      }
      name: "service"
      access: public_access
      linker_set_key: "false"
    }
    default_arg: false
  }
}
functions {
  basic_abi {
    type_abi {
      name: "android::hardware::Return<android::hidl::manager::V1_0::IServiceManager::Transport>"
      size: 24
      alignment: 4
    }
    name: "android::hidl::manager::V1_0::BsServiceManager::getTransport"
    access: public_access
    linker_set_key: "_ZN7android4hidl7manager4V1_016BsServiceManager12getTransportERKNS_8hardware11hidl_stringES7_"
  }
  mangled_function_name: "_ZN7android4hidl7manager4V1_016BsServiceManager12getTransportERKNS_8hardware11hidl_stringES7_"
  source_file: "/home/suhwa.kim/CONA_Proj/android/out/soong/.intermediates/system/libhidl/transport/manager/1.0/android.hidl.manager@1.0_genc++_headers/gen/android/hidl/manager/1.0/BsServiceManager.h"
  parameters {
    basic_abi {
      type_abi {
        name: "const android::hardware::hidl_string &"
        size: 4
        alignment: 4
      }
      name: "fqName"
      access: public_access
      linker_set_key: "false"
    }
    default_arg: false
  }
  parameters {
    basic_abi {
      type_abi {
        name: "const android::hardware::hidl_string &"
        size: 4
        alignment: 4
      }
      name: "name"
      access: public_access
      linker_set_key: "false"
    }
    default_arg: false
  }
}
functions {
  basic_abi {
    type_abi {
      name: "android::hardware::Return<void>"
      size: 24
      alignment: 4
    }
    name: "android::hidl::manager::V1_0::BsServiceManager::list"
    access: public_access
    linker_set_key: "_ZN7android4hidl7manager4V1_016BsServiceManager4listENSt3__18functionIFvRKNS_8hardware8hidl_vecINS6_11hidl_stringEEEEEE"
  }
  mangled_function_name: "_ZN7android4hidl7manager4V1_016BsServiceManager4listENSt3__18functionIFvRKNS_8hardware8hidl_vecINS6_11hidl_stringEEEEEE"
  source_file: "/home/suhwa.kim/CONA_Proj/android/out/soong/.intermediates/system/libhidl/transport/manager/1.0/android.hidl.manager@1.0_genc++_headers/gen/android/hidl/manager/1.0/BsServiceManager.h"
  parameters {
    basic_abi {
      type_abi {
        name: "std::function<void (const hidl_vec<hidl_string> &)>"
        size: 24
        alignment: 8
      }
      name: "_hidl_cb"
      access: public_access
      linker_set_key: "false"
    }
    default_arg: false
  }
}
functions {
  basic_abi {
    type_abi {
      name: "android::hardware::Return<void>"
      size: 24
      alignment: 4
    }
    name: "android::hidl::manager::V1_0::BsServiceManager::listByInterface"
    access: public_access
    linker_set_key: "_ZN7android4hidl7manager4V1_016BsServiceManager15listByInterfaceERKNS_8hardware11hidl_stringENSt3__18functionIFvRKNS4_8hidl_vecIS5_EEEEE"
  }
  mangled_function_name: "_ZN7android4hidl7manager4V1_016BsServiceManager15listByInterfaceERKNS_8hardware11hidl_stringENSt3__18functionIFvRKNS4_8hidl_vecIS5_EEEEE"
  source_file: "/home/suhwa.kim/CONA_Proj/android/out/soong/.intermediates/system/libhidl/transport/manager/1.0/android.hidl.manager@1.0_genc++_headers/gen/android/hidl/manager/1.0/BsServiceManager.h"
  parameters {
    basic_abi {
      type_abi {
        name: "const android::hardware::hidl_string &"
        size: 4
        alignment: 4
      }
      name: "fqName"
      access: public_access
      linker_set_key: "false"
    }
    default_arg: false
  }
  parameters {
    basic_abi {
      type_abi {
        name: "std::function<void (const hidl_vec<hidl_string> &)>"
        size: 24
        alignment: 8
      }
      name: "_hidl_cb"
      access: public_access
      linker_set_key: "false"
    }
    default_arg: false
  }
}
functions {
  basic_abi {
    type_abi {
      name: "android::hardware::Return<bool>"
      size: 24
      alignment: 4
    }
    name: "android::hidl::manager::V1_0::BsServiceManager::registerForNotifications"
    access: public_access
    linker_set_key: "_ZN7android4hidl7manager4V1_016BsServiceManager24registerForNotificationsERKNS_8hardware11hidl_stringES7_RKNS_2spINS2_20IServiceNotificationEEE"
  }
  mangled_function_name: "_ZN7android4hidl7manager4V1_016BsServiceManager24registerForNotificationsERKNS_8hardware11hidl_stringES7_RKNS_2spINS2_20IServiceNotificationEEE"
  source_file: "/home/suhwa.kim/CONA_Proj/android/out/soong/.intermediates/system/libhidl/transport/manager/1.0/android.hidl.manager@1.0_genc++_headers/gen/android/hidl/manager/1.0/BsServiceManager.h"
  parameters {
    basic_abi {
      type_abi {
        name: "const android::hardware::hidl_string &"
        size: 4
        alignment: 4
      }
      name: "fqName"
      access: public_access
      linker_set_key: "false"
    }
    default_arg: false
  }
  parameters {
    basic_abi {
      type_abi {
        name: "const android::hardware::hidl_string &"
        size: 4
        alignment: 4
      }
      name: "name"
      access: public_access
      linker_set_key: "false"
    }
    default_arg: false
  }
  parameters {
    basic_abi {
      type_abi {
        name: "const android::sp<android::hidl::manager::V1_0::IServiceNotification> &"
        size: 4
        alignment: 4
      }
      name: "callback"
      access: public_access
      linker_set_key: "false"
    }
    default_arg: false
  }
}
functions {
  basic_abi {
    type_abi {
      name: "android::hardware::Return<void>"
      size: 24
      alignment: 4
    }
    name: "android::hidl::manager::V1_0::BsServiceManager::debugDump"
    access: public_access
    linker_set_key: "_ZN7android4hidl7manager4V1_016BsServiceManager9debugDumpENSt3__18functionIFvRKNS_8hardware8hidl_vecINS2_15IServiceManager17InstanceDebugInfoEEEEEE"
  }
  mangled_function_name: "_ZN7android4hidl7manager4V1_016BsServiceManager9debugDumpENSt3__18functionIFvRKNS_8hardware8hidl_vecINS2_15IServiceManager17InstanceDebugInfoEEEEEE"
  source_file: "/home/suhwa.kim/CONA_Proj/android/out/soong/.intermediates/system/libhidl/transport/manager/1.0/android.hidl.manager@1.0_genc++_headers/gen/android/hidl/manager/1.0/BsServiceManager.h"
  parameters {
    basic_abi {
      type_abi {
        name: "std::function<void (const hidl_vec<InstanceDebugInfo> &)>"
        size: 24
        alignment: 8
      }
      name: "_hidl_cb"
      access: public_access
      linker_set_key: "false"
    }
    default_arg: false
  }
}
functions {
  basic_abi {
    type_abi {
      name: "android::hardware::Return<void>"
      size: 24
      alignment: 4
    }
    name: "android::hidl::manager::V1_0::BsServiceManager::registerPassthroughClient"
    access: public_access
    linker_set_key: "_ZN7android4hidl7manager4V1_016BsServiceManager25registerPassthroughClientERKNS_8hardware11hidl_stringES7_"
  }
  mangled_function_name: "_ZN7android4hidl7manager4V1_016BsServiceManager25registerPassthroughClientERKNS_8hardware11hidl_stringES7_"
  source_file: "/home/suhwa.kim/CONA_Proj/android/out/soong/.intermediates/system/libhidl/transport/manager/1.0/android.hidl.manager@1.0_genc++_headers/gen/android/hidl/manager/1.0/BsServiceManager.h"
  parameters {
    basic_abi {
      type_abi {
        name: "const android::hardware::hidl_string &"
        size: 4
        alignment: 4
      }
      name: "fqName"
      access: public_access
      linker_set_key: "false"
    }
    default_arg: false
  }
  parameters {
    basic_abi {
      type_abi {
        name: "const android::hardware::hidl_string &"
        size: 4
        alignment: 4
      }
      name: "name"
      access: public_access
      linker_set_key: "false"
    }
    default_arg: false
  }
}
functions {
  basic_abi {
    type_abi {
      name: "android::hardware::Return<void>"
      size: 24
      alignment: 4
    }
    name: "android::hidl::manager::V1_0::BsServiceManager::interfaceChain"
    access: public_access
    linker_set_key: "_ZN7android4hidl7manager4V1_016BsServiceManager14interfaceChainENSt3__18functionIFvRKNS_8hardware8hidl_vecINS6_11hidl_stringEEEEEE"
  }
  mangled_function_name: "_ZN7android4hidl7manager4V1_016BsServiceManager14interfaceChainENSt3__18functionIFvRKNS_8hardware8hidl_vecINS6_11hidl_stringEEEEEE"
  source_file: "/home/suhwa.kim/CONA_Proj/android/out/soong/.intermediates/system/libhidl/transport/manager/1.0/android.hidl.manager@1.0_genc++_headers/gen/android/hidl/manager/1.0/BsServiceManager.h"
  parameters {
    basic_abi {
      type_abi {
        name: "std::function<void (const hidl_vec<hidl_string> &)>"
        size: 24
        alignment: 8
      }
      name: "_hidl_cb"
      access: public_access
      linker_set_key: "false"
    }
    default_arg: false
  }
}
functions {
  basic_abi {
    type_abi {
      name: "android::hardware::Return<void>"
      size: 24
      alignment: 4
    }
    name: "android::hidl::manager::V1_0::BsServiceManager::debug"
    access: public_access
    linker_set_key: "_ZN7android4hidl7manager4V1_016BsServiceManager5debugERKNS_8hardware11hidl_handleERKNS4_8hidl_vecINS4_11hidl_stringEEE"
  }
  mangled_function_name: "_ZN7android4hidl7manager4V1_016BsServiceManager5debugERKNS_8hardware11hidl_handleERKNS4_8hidl_vecINS4_11hidl_stringEEE"
  source_file: "/home/suhwa.kim/CONA_Proj/android/out/soong/.intermediates/system/libhidl/transport/manager/1.0/android.hidl.manager@1.0_genc++_headers/gen/android/hidl/manager/1.0/BsServiceManager.h"
  parameters {
    basic_abi {
      type_abi {
        name: "const android::hardware::hidl_handle &"
        size: 4
        alignment: 4
      }
      name: "fd"
      access: public_access
      linker_set_key: "false"
    }
    default_arg: false
  }
  parameters {
    basic_abi {
      type_abi {
        name: "const android::hardware::hidl_vec<android::hardware::hidl_string> &"
        size: 4
        alignment: 4
      }
      name: "options"
      access: public_access
      linker_set_key: "false"
    }
    default_arg: false
  }
}
functions {
  basic_abi {
    type_abi {
      name: "android::hardware::Return<void>"
      size: 24
      alignment: 4
    }
    name: "android::hidl::manager::V1_0::BsServiceManager::interfaceDescriptor"
    access: public_access
    linker_set_key: "_ZN7android4hidl7manager4V1_016BsServiceManager19interfaceDescriptorENSt3__18functionIFvRKNS_8hardware11hidl_stringEEEE"
  }
  mangled_function_name: "_ZN7android4hidl7manager4V1_016BsServiceManager19interfaceDescriptorENSt3__18functionIFvRKNS_8hardware11hidl_stringEEEE"
  source_file: "/home/suhwa.kim/CONA_Proj/android/out/soong/.intermediates/system/libhidl/transport/manager/1.0/android.hidl.manager@1.0_genc++_headers/gen/android/hidl/manager/1.0/BsServiceManager.h"
  parameters {
    basic_abi {
      type_abi {
        name: "std::function<void (const hidl_string &)>"
        size: 24
        alignment: 8
      }
      name: "_hidl_cb"
      access: public_access
      linker_set_key: "false"
    }
    default_arg: false
  }
}
functions {
  basic_abi {
    type_abi {
      name: "android::hardware::Return<void>"
      size: 24
      alignment: 4
    }
    name: "android::hidl::manager::V1_0::BsServiceManager::getHashChain"
    access: public_access
    linker_set_key: "_ZN7android4hidl7manager4V1_016BsServiceManager12getHashChainENSt3__18functionIFvRKNS_8hardware8hidl_vecINS6_10hidl_arrayIhLj32EJEEEEEEEE"
  }
  mangled_function_name: "_ZN7android4hidl7manager4V1_016BsServiceManager12getHashChainENSt3__18functionIFvRKNS_8hardware8hidl_vecINS6_10hidl_arrayIhLj32EJEEEEEEEE"
  source_file: "/home/suhwa.kim/CONA_Proj/android/out/soong/.intermediates/system/libhidl/transport/manager/1.0/android.hidl.manager@1.0_genc++_headers/gen/android/hidl/manager/1.0/BsServiceManager.h"
  parameters {
    basic_abi {
      type_abi {
        name: "std::function<void (const hidl_vec<hidl_array<unsigned char, 32> > &)>"
        size: 24
        alignment: 8
      }
      name: "_hidl_cb"
      access: public_access
      linker_set_key: "false"
    }
    default_arg: false
  }
}
functions {
  basic_abi {
    type_abi {
      name: "android::hardware::Return<void>"
      size: 24
      alignment: 4
    }
    name: "android::hidl::manager::V1_0::BsServiceManager::setHALInstrumentation"
    access: public_access
    linker_set_key: "_ZN7android4hidl7manager4V1_016BsServiceManager21setHALInstrumentationEv"
  }
  mangled_function_name: "_ZN7android4hidl7manager4V1_016BsServiceManager21setHALInstrumentationEv"
  source_file: "/home/suhwa.kim/CONA_Proj/android/out/soong/.intermediates/system/libhidl/transport/manager/1.0/android.hidl.manager@1.0_genc++_headers/gen/android/hidl/manager/1.0/BsServiceManager.h"
}
functions {
  basic_abi {
    type_abi {
      name: "android::hardware::Return<bool>"
      size: 24
      alignment: 4
    }
    name: "android::hidl::manager::V1_0::BsServiceManager::linkToDeath"
    access: public_access
    linker_set_key: "_ZN7android4hidl7manager4V1_016BsServiceManager11linkToDeathERKNS_2spINS_8hardware20hidl_death_recipientEEEy"
  }
  mangled_function_name: "_ZN7android4hidl7manager4V1_016BsServiceManager11linkToDeathERKNS_2spINS_8hardware20hidl_death_recipientEEEy"
  source_file: "/home/suhwa.kim/CONA_Proj/android/out/soong/.intermediates/system/libhidl/transport/manager/1.0/android.hidl.manager@1.0_genc++_headers/gen/android/hidl/manager/1.0/BsServiceManager.h"
  parameters {
    basic_abi {
      type_abi {
        name: "const android::sp<android::hardware::hidl_death_recipient> &"
        size: 4
        alignment: 4
      }
      name: "recipient"
      access: public_access
      linker_set_key: "false"
    }
    default_arg: false
  }
  parameters {
    basic_abi {
      type_abi {
        name: "unsigned long long"
        size: 8
        alignment: 8
      }
      name: "cookie"
      access: public_access
      linker_set_key: "false"
    }
    default_arg: false
  }
}
functions {
  basic_abi {
    type_abi {
      name: "android::hardware::Return<void>"
      size: 24
      alignment: 4
    }
    name: "android::hidl::manager::V1_0::BsServiceManager::ping"
    access: public_access
    linker_set_key: "_ZN7android4hidl7manager4V1_016BsServiceManager4pingEv"
  }
  mangled_function_name: "_ZN7android4hidl7manager4V1_016BsServiceManager4pingEv"
  source_file: "/home/suhwa.kim/CONA_Proj/android/out/soong/.intermediates/system/libhidl/transport/manager/1.0/android.hidl.manager@1.0_genc++_headers/gen/android/hidl/manager/1.0/BsServiceManager.h"
}
functions {
  basic_abi {
    type_abi {
      name: "android::hardware::Return<void>"
      size: 24
      alignment: 4
    }
    name: "android::hidl::manager::V1_0::BsServiceManager::getDebugInfo"
    access: public_access
    linker_set_key: "_ZN7android4hidl7manager4V1_016BsServiceManager12getDebugInfoENSt3__18functionIFvRKNS0_4base4V1_09DebugInfoEEEE"
  }
  mangled_function_name: "_ZN7android4hidl7manager4V1_016BsServiceManager12getDebugInfoENSt3__18functionIFvRKNS0_4base4V1_09DebugInfoEEEE"
  source_file: "/home/suhwa.kim/CONA_Proj/android/out/soong/.intermediates/system/libhidl/transport/manager/1.0/android.hidl.manager@1.0_genc++_headers/gen/android/hidl/manager/1.0/BsServiceManager.h"
  parameters {
    basic_abi {
      type_abi {
        name: "std::function<void (const DebugInfo &)>"
        size: 24
        alignment: 8
      }
      name: "_hidl_cb"
      access: public_access
      linker_set_key: "false"
    }
    default_arg: false
  }
}
functions {
  basic_abi {
    type_abi {
      name: "android::hardware::Return<void>"
      size: 24
      alignment: 4
    }
    name: "android::hidl::manager::V1_0::BsServiceManager::notifySyspropsChanged"
    access: public_access
    linker_set_key: "_ZN7android4hidl7manager4V1_016BsServiceManager21notifySyspropsChangedEv"
  }
  mangled_function_name: "_ZN7android4hidl7manager4V1_016BsServiceManager21notifySyspropsChangedEv"
  source_file: "/home/suhwa.kim/CONA_Proj/android/out/soong/.intermediates/system/libhidl/transport/manager/1.0/android.hidl.manager@1.0_genc++_headers/gen/android/hidl/manager/1.0/BsServiceManager.h"
}
functions {
  basic_abi {
    type_abi {
      name: "android::hardware::Return<bool>"
      size: 24
      alignment: 4
    }
    name: "android::hidl::manager::V1_0::BsServiceManager::unlinkToDeath"
    access: public_access
    linker_set_key: "_ZN7android4hidl7manager4V1_016BsServiceManager13unlinkToDeathERKNS_2spINS_8hardware20hidl_death_recipientEEE"
  }
  mangled_function_name: "_ZN7android4hidl7manager4V1_016BsServiceManager13unlinkToDeathERKNS_2spINS_8hardware20hidl_death_recipientEEE"
  source_file: "/home/suhwa.kim/CONA_Proj/android/out/soong/.intermediates/system/libhidl/transport/manager/1.0/android.hidl.manager@1.0_genc++_headers/gen/android/hidl/manager/1.0/BsServiceManager.h"
  parameters {
    basic_abi {
      type_abi {
        name: "const android::sp<android::hardware::hidl_death_recipient> &"
        size: 4
        alignment: 4
      }
      name: "recipient"
      access: public_access
      linker_set_key: "false"
    }
    default_arg: false
  }
}
functions {
  basic_abi {
    type_abi {
      name: "android::hardware::Return<void>"
      size: 24
      alignment: 4
    }
    name: "android::hidl::manager::V1_0::BsServiceManager::addOnewayTask"
    access: private_access
    linker_set_key: "_ZN7android4hidl7manager4V1_016BsServiceManager13addOnewayTaskENSt3__18functionIFvvEEE"
  }
  mangled_function_name: "_ZN7android4hidl7manager4V1_016BsServiceManager13addOnewayTaskENSt3__18functionIFvvEEE"
  source_file: "/home/suhwa.kim/CONA_Proj/android/out/soong/.intermediates/system/libhidl/transport/manager/1.0/android.hidl.manager@1.0_genc++_headers/gen/android/hidl/manager/1.0/BsServiceManager.h"
  parameters {
    basic_abi {
      type_abi {
        name: "std::function<void ()>"
        size: 24
        alignment: 8
      }
      name: ""
      access: public_access
      linker_set_key: "false"
    }
    default_arg: false
  }
}
functions {
  basic_abi {
    type_abi {
      name: "void"
    }
    name: "android::hidl::manager::V1_0::BsServiceNotification::BsServiceNotification"
    access: public_access
    linker_set_key: "_ZN7android4hidl7manager4V1_021BsServiceNotificationC1ENS_2spINS2_20IServiceNotificationEEE"
  }
  mangled_function_name: "_ZN7android4hidl7manager4V1_021BsServiceNotificationC1ENS_2spINS2_20IServiceNotificationEEE"
  source_file: "/home/suhwa.kim/CONA_Proj/android/out/soong/.intermediates/system/libhidl/transport/manager/1.0/android.hidl.manager@1.0_genc++_headers/gen/android/hidl/manager/1.0/BsServiceNotification.h"
  parameters {
    basic_abi {
      type_abi {
        name: "const android::sp<android::hidl::manager::V1_0::IServiceNotification>"
        size: 4
        alignment: 4
      }
      name: "impl"
      access: public_access
      linker_set_key: "false"
    }
    default_arg: false
  }
}
functions {
  basic_abi {
    type_abi {
      name: "android::hardware::Return<void>"
      size: 24
      alignment: 4
    }
    name: "android::hidl::manager::V1_0::BsServiceNotification::onRegistration"
    access: public_access
    linker_set_key: "_ZN7android4hidl7manager4V1_021BsServiceNotification14onRegistrationERKNS_8hardware11hidl_stringES7_b"
  }
  mangled_function_name: "_ZN7android4hidl7manager4V1_021BsServiceNotification14onRegistrationERKNS_8hardware11hidl_stringES7_b"
  source_file: "/home/suhwa.kim/CONA_Proj/android/out/soong/.intermediates/system/libhidl/transport/manager/1.0/android.hidl.manager@1.0_genc++_headers/gen/android/hidl/manager/1.0/BsServiceNotification.h"
  parameters {
    basic_abi {
      type_abi {
        name: "const android::hardware::hidl_string &"
        size: 4
        alignment: 4
      }
      name: "fqName"
      access: public_access
      linker_set_key: "false"
    }
    default_arg: false
  }
  parameters {
    basic_abi {
      type_abi {
        name: "const android::hardware::hidl_string &"
        size: 4
        alignment: 4
      }
      name: "name"
      access: public_access
      linker_set_key: "false"
    }
    default_arg: false
  }
  parameters {
    basic_abi {
      type_abi {
        name: "bool"
        size: 1
        alignment: 1
      }
      name: "preexisting"
      access: public_access
      linker_set_key: "false"
    }
    default_arg: false
  }
}
functions {
  basic_abi {
    type_abi {
      name: "android::hardware::Return<void>"
      size: 24
      alignment: 4
    }
    name: "android::hidl::manager::V1_0::BsServiceNotification::interfaceChain"
    access: public_access
    linker_set_key: "_ZN7android4hidl7manager4V1_021BsServiceNotification14interfaceChainENSt3__18functionIFvRKNS_8hardware8hidl_vecINS6_11hidl_stringEEEEEE"
  }
  mangled_function_name: "_ZN7android4hidl7manager4V1_021BsServiceNotification14interfaceChainENSt3__18functionIFvRKNS_8hardware8hidl_vecINS6_11hidl_stringEEEEEE"
  source_file: "/home/suhwa.kim/CONA_Proj/android/out/soong/.intermediates/system/libhidl/transport/manager/1.0/android.hidl.manager@1.0_genc++_headers/gen/android/hidl/manager/1.0/BsServiceNotification.h"
  parameters {
    basic_abi {
      type_abi {
        name: "std::function<void (const hidl_vec<hidl_string> &)>"
        size: 24
        alignment: 8
      }
      name: "_hidl_cb"
      access: public_access
      linker_set_key: "false"
    }
    default_arg: false
  }
}
functions {
  basic_abi {
    type_abi {
      name: "android::hardware::Return<void>"
      size: 24
      alignment: 4
    }
    name: "android::hidl::manager::V1_0::BsServiceNotification::debug"
    access: public_access
    linker_set_key: "_ZN7android4hidl7manager4V1_021BsServiceNotification5debugERKNS_8hardware11hidl_handleERKNS4_8hidl_vecINS4_11hidl_stringEEE"
  }
  mangled_function_name: "_ZN7android4hidl7manager4V1_021BsServiceNotification5debugERKNS_8hardware11hidl_handleERKNS4_8hidl_vecINS4_11hidl_stringEEE"
  source_file: "/home/suhwa.kim/CONA_Proj/android/out/soong/.intermediates/system/libhidl/transport/manager/1.0/android.hidl.manager@1.0_genc++_headers/gen/android/hidl/manager/1.0/BsServiceNotification.h"
  parameters {
    basic_abi {
      type_abi {
        name: "const android::hardware::hidl_handle &"
        size: 4
        alignment: 4
      }
      name: "fd"
      access: public_access
      linker_set_key: "false"
    }
    default_arg: false
  }
  parameters {
    basic_abi {
      type_abi {
        name: "const android::hardware::hidl_vec<android::hardware::hidl_string> &"
        size: 4
        alignment: 4
      }
      name: "options"
      access: public_access
      linker_set_key: "false"
    }
    default_arg: false
  }
}
functions {
  basic_abi {
    type_abi {
      name: "android::hardware::Return<void>"
      size: 24
      alignment: 4
    }
    name: "android::hidl::manager::V1_0::BsServiceNotification::interfaceDescriptor"
    access: public_access
    linker_set_key: "_ZN7android4hidl7manager4V1_021BsServiceNotification19interfaceDescriptorENSt3__18functionIFvRKNS_8hardware11hidl_stringEEEE"
  }
  mangled_function_name: "_ZN7android4hidl7manager4V1_021BsServiceNotification19interfaceDescriptorENSt3__18functionIFvRKNS_8hardware11hidl_stringEEEE"
  source_file: "/home/suhwa.kim/CONA_Proj/android/out/soong/.intermediates/system/libhidl/transport/manager/1.0/android.hidl.manager@1.0_genc++_headers/gen/android/hidl/manager/1.0/BsServiceNotification.h"
  parameters {
    basic_abi {
      type_abi {
        name: "std::function<void (const hidl_string &)>"
        size: 24
        alignment: 8
      }
      name: "_hidl_cb"
      access: public_access
      linker_set_key: "false"
    }
    default_arg: false
  }
}
functions {
  basic_abi {
    type_abi {
      name: "android::hardware::Return<void>"
      size: 24
      alignment: 4
    }
    name: "android::hidl::manager::V1_0::BsServiceNotification::getHashChain"
    access: public_access
    linker_set_key: "_ZN7android4hidl7manager4V1_021BsServiceNotification12getHashChainENSt3__18functionIFvRKNS_8hardware8hidl_vecINS6_10hidl_arrayIhLj32EJEEEEEEEE"
  }
  mangled_function_name: "_ZN7android4hidl7manager4V1_021BsServiceNotification12getHashChainENSt3__18functionIFvRKNS_8hardware8hidl_vecINS6_10hidl_arrayIhLj32EJEEEEEEEE"
  source_file: "/home/suhwa.kim/CONA_Proj/android/out/soong/.intermediates/system/libhidl/transport/manager/1.0/android.hidl.manager@1.0_genc++_headers/gen/android/hidl/manager/1.0/BsServiceNotification.h"
  parameters {
    basic_abi {
      type_abi {
        name: "std::function<void (const hidl_vec<hidl_array<unsigned char, 32> > &)>"
        size: 24
        alignment: 8
      }
      name: "_hidl_cb"
      access: public_access
      linker_set_key: "false"
    }
    default_arg: false
  }
}
functions {
  basic_abi {
    type_abi {
      name: "android::hardware::Return<void>"
      size: 24
      alignment: 4
    }
    name: "android::hidl::manager::V1_0::BsServiceNotification::setHALInstrumentation"
    access: public_access
    linker_set_key: "_ZN7android4hidl7manager4V1_021BsServiceNotification21setHALInstrumentationEv"
  }
  mangled_function_name: "_ZN7android4hidl7manager4V1_021BsServiceNotification21setHALInstrumentationEv"
  source_file: "/home/suhwa.kim/CONA_Proj/android/out/soong/.intermediates/system/libhidl/transport/manager/1.0/android.hidl.manager@1.0_genc++_headers/gen/android/hidl/manager/1.0/BsServiceNotification.h"
}
functions {
  basic_abi {
    type_abi {
      name: "android::hardware::Return<bool>"
      size: 24
      alignment: 4
    }
    name: "android::hidl::manager::V1_0::BsServiceNotification::linkToDeath"
    access: public_access
    linker_set_key: "_ZN7android4hidl7manager4V1_021BsServiceNotification11linkToDeathERKNS_2spINS_8hardware20hidl_death_recipientEEEy"
  }
  mangled_function_name: "_ZN7android4hidl7manager4V1_021BsServiceNotification11linkToDeathERKNS_2spINS_8hardware20hidl_death_recipientEEEy"
  source_file: "/home/suhwa.kim/CONA_Proj/android/out/soong/.intermediates/system/libhidl/transport/manager/1.0/android.hidl.manager@1.0_genc++_headers/gen/android/hidl/manager/1.0/BsServiceNotification.h"
  parameters {
    basic_abi {
      type_abi {
        name: "const android::sp<android::hardware::hidl_death_recipient> &"
        size: 4
        alignment: 4
      }
      name: "recipient"
      access: public_access
      linker_set_key: "false"
    }
    default_arg: false
  }
  parameters {
    basic_abi {
      type_abi {
        name: "unsigned long long"
        size: 8
        alignment: 8
      }
      name: "cookie"
      access: public_access
      linker_set_key: "false"
    }
    default_arg: false
  }
}
functions {
  basic_abi {
    type_abi {
      name: "android::hardware::Return<void>"
      size: 24
      alignment: 4
    }
    name: "android::hidl::manager::V1_0::BsServiceNotification::ping"
    access: public_access
    linker_set_key: "_ZN7android4hidl7manager4V1_021BsServiceNotification4pingEv"
  }
  mangled_function_name: "_ZN7android4hidl7manager4V1_021BsServiceNotification4pingEv"
  source_file: "/home/suhwa.kim/CONA_Proj/android/out/soong/.intermediates/system/libhidl/transport/manager/1.0/android.hidl.manager@1.0_genc++_headers/gen/android/hidl/manager/1.0/BsServiceNotification.h"
}
functions {
  basic_abi {
    type_abi {
      name: "android::hardware::Return<void>"
      size: 24
      alignment: 4
    }
    name: "android::hidl::manager::V1_0::BsServiceNotification::getDebugInfo"
    access: public_access
    linker_set_key: "_ZN7android4hidl7manager4V1_021BsServiceNotification12getDebugInfoENSt3__18functionIFvRKNS0_4base4V1_09DebugInfoEEEE"
  }
  mangled_function_name: "_ZN7android4hidl7manager4V1_021BsServiceNotification12getDebugInfoENSt3__18functionIFvRKNS0_4base4V1_09DebugInfoEEEE"
  source_file: "/home/suhwa.kim/CONA_Proj/android/out/soong/.intermediates/system/libhidl/transport/manager/1.0/android.hidl.manager@1.0_genc++_headers/gen/android/hidl/manager/1.0/BsServiceNotification.h"
  parameters {
    basic_abi {
      type_abi {
        name: "std::function<void (const DebugInfo &)>"
        size: 24
        alignment: 8
      }
      name: "_hidl_cb"
      access: public_access
      linker_set_key: "false"
    }
    default_arg: false
  }
}
functions {
  basic_abi {
    type_abi {
      name: "android::hardware::Return<void>"
      size: 24
      alignment: 4
    }
    name: "android::hidl::manager::V1_0::BsServiceNotification::notifySyspropsChanged"
    access: public_access
    linker_set_key: "_ZN7android4hidl7manager4V1_021BsServiceNotification21notifySyspropsChangedEv"
  }
  mangled_function_name: "_ZN7android4hidl7manager4V1_021BsServiceNotification21notifySyspropsChangedEv"
  source_file: "/home/suhwa.kim/CONA_Proj/android/out/soong/.intermediates/system/libhidl/transport/manager/1.0/android.hidl.manager@1.0_genc++_headers/gen/android/hidl/manager/1.0/BsServiceNotification.h"
}
functions {
  basic_abi {
    type_abi {
      name: "android::hardware::Return<bool>"
      size: 24
      alignment: 4
    }
    name: "android::hidl::manager::V1_0::BsServiceNotification::unlinkToDeath"
    access: public_access
    linker_set_key: "_ZN7android4hidl7manager4V1_021BsServiceNotification13unlinkToDeathERKNS_2spINS_8hardware20hidl_death_recipientEEE"
  }
  mangled_function_name: "_ZN7android4hidl7manager4V1_021BsServiceNotification13unlinkToDeathERKNS_2spINS_8hardware20hidl_death_recipientEEE"
  source_file: "/home/suhwa.kim/CONA_Proj/android/out/soong/.intermediates/system/libhidl/transport/manager/1.0/android.hidl.manager@1.0_genc++_headers/gen/android/hidl/manager/1.0/BsServiceNotification.h"
  parameters {
    basic_abi {
      type_abi {
        name: "const android::sp<android::hardware::hidl_death_recipient> &"
        size: 4
        alignment: 4
      }
      name: "recipient"
      access: public_access
      linker_set_key: "false"
    }
    default_arg: false
  }
}
functions {
  basic_abi {
    type_abi {
      name: "android::hardware::Return<void>"
      size: 24
      alignment: 4
    }
    name: "android::hidl::manager::V1_0::BsServiceNotification::addOnewayTask"
    access: private_access
    linker_set_key: "_ZN7android4hidl7manager4V1_021BsServiceNotification13addOnewayTaskENSt3__18functionIFvvEEE"
  }
  mangled_function_name: "_ZN7android4hidl7manager4V1_021BsServiceNotification13addOnewayTaskENSt3__18functionIFvvEEE"
  source_file: "/home/suhwa.kim/CONA_Proj/android/out/soong/.intermediates/system/libhidl/transport/manager/1.0/android.hidl.manager@1.0_genc++_headers/gen/android/hidl/manager/1.0/BsServiceNotification.h"
  parameters {
    basic_abi {
      type_abi {
        name: "std::function<void ()>"
        size: 24
        alignment: 8
      }
      name: ""
      access: public_access
      linker_set_key: "false"
    }
    default_arg: false
  }
}
enums {
  basic_abi {
    type_abi {
      name: "unsigned char"
      size: 1
      alignment: 1
    }
    name: "android::hidl::manager::V1_0::IServiceManager::Transport"
    access: public_access
    linker_set_key: "_ZN7android4hidl7manager4V1_015IServiceManager9TransportE"
  }
  enum_fields {
    basic_abi {
      type_abi {
        name: "android::hidl::manager::V1_0::IServiceManager::Transport"
        size: 1
        alignment: 1
      }
      name: "android::hidl::manager::V1_0::IServiceManager::Transport::EMPTY"
      access: public_access
      linker_set_key: "0"
    }
    enum_field_value: 0
  }
  enum_fields {
    basic_abi {
      type_abi {
        name: "android::hidl::manager::V1_0::IServiceManager::Transport"
        size: 1
        alignment: 1
      }
      name: "android::hidl::manager::V1_0::IServiceManager::Transport::HWBINDER"
      access: public_access
      linker_set_key: "1"
    }
    enum_field_value: 1
  }
  enum_fields {
    basic_abi {
      type_abi {
        name: "android::hidl::manager::V1_0::IServiceManager::Transport"
        size: 1
        alignment: 1
      }
      name: "android::hidl::manager::V1_0::IServiceManager::Transport::PASSTHROUGH"
      access: public_access
      linker_set_key: "2"
    }
    enum_field_value: 2
  }
  source_file: "/home/suhwa.kim/CONA_Proj/android/out/soong/.intermediates/system/libhidl/transport/manager/1.0/android.hidl.manager@1.0_genc++_headers/gen/android/hidl/manager/1.0/IServiceManager.h"
}
enums {
  basic_abi {
    type_abi {
      name: "int"
      size: 4
      alignment: 4
    }
    name: "android::hidl::manager::V1_0::IServiceManager::PidConstant"
    access: public_access
    linker_set_key: "_ZN7android4hidl7manager4V1_015IServiceManager11PidConstantE"
  }
  enum_fields {
    basic_abi {
      type_abi {
        name: "android::hidl::manager::V1_0::IServiceManager::PidConstant"
        size: 4
        alignment: 4
      }
      name: "android::hidl::manager::V1_0::IServiceManager::PidConstant::NO_PID"
      access: public_access
      linker_set_key: "18446744073709551615"
    }
    enum_field_value: -1
  }
  source_file: "/home/suhwa.kim/CONA_Proj/android/out/soong/.intermediates/system/libhidl/transport/manager/1.0/android.hidl.manager@1.0_genc++_headers/gen/android/hidl/manager/1.0/IServiceManager.h"
}
global_vars {
  basic_abi {
    type_abi {
      name: "const char *"
      size: 4
      alignment: 4
    }
    name: "android::hidl::manager::V1_0::IServiceNotification::descriptor"
    access: public_access
    linker_set_key: "_ZN7android4hidl7manager4V1_020IServiceNotification10descriptorE"
  }
  source_file: "/home/suhwa.kim/CONA_Proj/android/out/soong/.intermediates/system/libhidl/transport/manager/1.0/android.hidl.manager@1.0_genc++_headers/gen/android/hidl/manager/1.0/IServiceNotification.h"
}
global_vars {
  basic_abi {
    type_abi {
      name: "const char *"
      size: 4
      alignment: 4
    }
    name: "android::hidl::manager::V1_0::IServiceManager::descriptor"
    access: public_access
    linker_set_key: "_ZN7android4hidl7manager4V1_015IServiceManager10descriptorE"
  }
  source_file: "/home/suhwa.kim/CONA_Proj/android/out/soong/.intermediates/system/libhidl/transport/manager/1.0/android.hidl.manager@1.0_genc++_headers/gen/android/hidl/manager/1.0/IServiceManager.h"
}
